
CWMaskAndRandChaotic.elf:     file format elf32-avr

Sections:
Idx Name          Size      VMA       LMA       File off  Algn
  0 .text         00001e26  00000000  00000000  00000094  2**1
                  CONTENTS, ALLOC, LOAD, READONLY, CODE
  1 .data         00000218  00802000  00001e26  00001eba  2**0
                  CONTENTS, ALLOC, LOAD, DATA
  2 .bss          0000022a  00802218  00802218  000020d2  2**0
                  ALLOC
  3 .comment      00000030  00000000  00000000  000020d2  2**0
                  CONTENTS, READONLY
  4 .note.gnu.avr.deviceinfo 00000040  00000000  00000000  00002104  2**2
                  CONTENTS, READONLY
  5 .debug_aranges 00000020  00000000  00000000  00002148  2**3
                  CONTENTS, READONLY, DEBUGGING
  6 .debug_info   000020ff  00000000  00000000  00002168  2**0
                  CONTENTS, READONLY, DEBUGGING
  7 .debug_abbrev 00001ecc  00000000  00000000  00004267  2**0
                  CONTENTS, READONLY, DEBUGGING
  8 .debug_line   00000333  00000000  00000000  00006133  2**0
                  CONTENTS, READONLY, DEBUGGING
  9 .debug_str    00001561  00000000  00000000  00006466  2**0
                  CONTENTS, READONLY, DEBUGGING

Disassembly of section .text:

00000000 <__vectors>:
       0:	c4 c0       	rjmp	.+392    	; 0x18a <__ctors_end>
       2:	00 00       	nop
       4:	e2 c0       	rjmp	.+452    	; 0x1ca <__bad_interrupt>
       6:	00 00       	nop
       8:	e0 c0       	rjmp	.+448    	; 0x1ca <__bad_interrupt>
       a:	00 00       	nop
       c:	de c0       	rjmp	.+444    	; 0x1ca <__bad_interrupt>
       e:	00 00       	nop
      10:	dc c0       	rjmp	.+440    	; 0x1ca <__bad_interrupt>
      12:	00 00       	nop
      14:	da c0       	rjmp	.+436    	; 0x1ca <__bad_interrupt>
      16:	00 00       	nop
      18:	d8 c0       	rjmp	.+432    	; 0x1ca <__bad_interrupt>
      1a:	00 00       	nop
      1c:	d6 c0       	rjmp	.+428    	; 0x1ca <__bad_interrupt>
      1e:	00 00       	nop
      20:	d4 c0       	rjmp	.+424    	; 0x1ca <__bad_interrupt>
      22:	00 00       	nop
      24:	d2 c0       	rjmp	.+420    	; 0x1ca <__bad_interrupt>
      26:	00 00       	nop
      28:	d0 c0       	rjmp	.+416    	; 0x1ca <__bad_interrupt>
      2a:	00 00       	nop
      2c:	ce c0       	rjmp	.+412    	; 0x1ca <__bad_interrupt>
      2e:	00 00       	nop
      30:	cc c0       	rjmp	.+408    	; 0x1ca <__bad_interrupt>
      32:	00 00       	nop
      34:	ca c0       	rjmp	.+404    	; 0x1ca <__bad_interrupt>
      36:	00 00       	nop
      38:	0c 94 9f 08 	jmp	0x113e	; 0x113e <__vector_14>
      3c:	0c 94 cc 08 	jmp	0x1198	; 0x1198 <__vector_15>
      40:	0c 94 f9 08 	jmp	0x11f2	; 0x11f2 <__vector_16>
      44:	0c 94 26 09 	jmp	0x124c	; 0x124c <__vector_17>
      48:	0c 94 53 09 	jmp	0x12a6	; 0x12a6 <__vector_18>
      4c:	0c 94 80 09 	jmp	0x1300	; 0x1300 <__vector_19>
      50:	0c 94 ad 09 	jmp	0x135a	; 0x135a <__vector_20>
      54:	0c 94 da 09 	jmp	0x13b4	; 0x13b4 <__vector_21>
      58:	0c 94 07 0a 	jmp	0x140e	; 0x140e <__vector_22>
      5c:	0c 94 34 0a 	jmp	0x1468	; 0x1468 <__vector_23>
      60:	b4 c0       	rjmp	.+360    	; 0x1ca <__bad_interrupt>
      62:	00 00       	nop
      64:	b2 c0       	rjmp	.+356    	; 0x1ca <__bad_interrupt>
      66:	00 00       	nop
      68:	b0 c0       	rjmp	.+352    	; 0x1ca <__bad_interrupt>
      6a:	00 00       	nop
      6c:	ae c0       	rjmp	.+348    	; 0x1ca <__bad_interrupt>
      6e:	00 00       	nop
      70:	ac c0       	rjmp	.+344    	; 0x1ca <__bad_interrupt>
      72:	00 00       	nop
      74:	aa c0       	rjmp	.+340    	; 0x1ca <__bad_interrupt>
      76:	00 00       	nop
      78:	a8 c0       	rjmp	.+336    	; 0x1ca <__bad_interrupt>
      7a:	00 00       	nop
      7c:	a6 c0       	rjmp	.+332    	; 0x1ca <__bad_interrupt>
      7e:	00 00       	nop
      80:	a4 c0       	rjmp	.+328    	; 0x1ca <__bad_interrupt>
      82:	00 00       	nop
      84:	a2 c0       	rjmp	.+324    	; 0x1ca <__bad_interrupt>
      86:	00 00       	nop
      88:	a0 c0       	rjmp	.+320    	; 0x1ca <__bad_interrupt>
      8a:	00 00       	nop
      8c:	9e c0       	rjmp	.+316    	; 0x1ca <__bad_interrupt>
      8e:	00 00       	nop
      90:	9c c0       	rjmp	.+312    	; 0x1ca <__bad_interrupt>
      92:	00 00       	nop
      94:	9a c0       	rjmp	.+308    	; 0x1ca <__bad_interrupt>
      96:	00 00       	nop
      98:	98 c0       	rjmp	.+304    	; 0x1ca <__bad_interrupt>
      9a:	00 00       	nop
      9c:	96 c0       	rjmp	.+300    	; 0x1ca <__bad_interrupt>
      9e:	00 00       	nop
      a0:	94 c0       	rjmp	.+296    	; 0x1ca <__bad_interrupt>
      a2:	00 00       	nop
      a4:	92 c0       	rjmp	.+292    	; 0x1ca <__bad_interrupt>
      a6:	00 00       	nop
      a8:	90 c0       	rjmp	.+288    	; 0x1ca <__bad_interrupt>
      aa:	00 00       	nop
      ac:	8e c0       	rjmp	.+284    	; 0x1ca <__bad_interrupt>
      ae:	00 00       	nop
      b0:	8c c0       	rjmp	.+280    	; 0x1ca <__bad_interrupt>
      b2:	00 00       	nop
      b4:	8a c0       	rjmp	.+276    	; 0x1ca <__bad_interrupt>
      b6:	00 00       	nop
      b8:	88 c0       	rjmp	.+272    	; 0x1ca <__bad_interrupt>
      ba:	00 00       	nop
      bc:	0c 94 6f 0b 	jmp	0x16de	; 0x16de <__vector_47>
      c0:	0c 94 9c 0b 	jmp	0x1738	; 0x1738 <__vector_48>
      c4:	0c 94 c9 0b 	jmp	0x1792	; 0x1792 <__vector_49>
      c8:	0c 94 f6 0b 	jmp	0x17ec	; 0x17ec <__vector_50>
      cc:	0c 94 23 0c 	jmp	0x1846	; 0x1846 <__vector_51>
      d0:	0c 94 50 0c 	jmp	0x18a0	; 0x18a0 <__vector_52>
      d4:	7a c0       	rjmp	.+244    	; 0x1ca <__bad_interrupt>
      d6:	00 00       	nop
      d8:	78 c0       	rjmp	.+240    	; 0x1ca <__bad_interrupt>
      da:	00 00       	nop
      dc:	76 c0       	rjmp	.+236    	; 0x1ca <__bad_interrupt>
      de:	00 00       	nop
      e0:	74 c0       	rjmp	.+232    	; 0x1ca <__bad_interrupt>
      e2:	00 00       	nop
      e4:	72 c0       	rjmp	.+228    	; 0x1ca <__bad_interrupt>
      e6:	00 00       	nop
      e8:	70 c0       	rjmp	.+224    	; 0x1ca <__bad_interrupt>
      ea:	00 00       	nop
      ec:	6e c0       	rjmp	.+220    	; 0x1ca <__bad_interrupt>
      ee:	00 00       	nop
      f0:	6c c0       	rjmp	.+216    	; 0x1ca <__bad_interrupt>
      f2:	00 00       	nop
      f4:	6a c0       	rjmp	.+212    	; 0x1ca <__bad_interrupt>
      f6:	00 00       	nop
      f8:	68 c0       	rjmp	.+208    	; 0x1ca <__bad_interrupt>
      fa:	00 00       	nop
      fc:	66 c0       	rjmp	.+204    	; 0x1ca <__bad_interrupt>
      fe:	00 00       	nop
     100:	64 c0       	rjmp	.+200    	; 0x1ca <__bad_interrupt>
     102:	00 00       	nop
     104:	62 c0       	rjmp	.+196    	; 0x1ca <__bad_interrupt>
     106:	00 00       	nop
     108:	60 c0       	rjmp	.+192    	; 0x1ca <__bad_interrupt>
     10a:	00 00       	nop
     10c:	5e c0       	rjmp	.+188    	; 0x1ca <__bad_interrupt>
     10e:	00 00       	nop
     110:	5c c0       	rjmp	.+184    	; 0x1ca <__bad_interrupt>
     112:	00 00       	nop
     114:	5a c0       	rjmp	.+180    	; 0x1ca <__bad_interrupt>
     116:	00 00       	nop
     118:	58 c0       	rjmp	.+176    	; 0x1ca <__bad_interrupt>
     11a:	00 00       	nop
     11c:	56 c0       	rjmp	.+172    	; 0x1ca <__bad_interrupt>
     11e:	00 00       	nop
     120:	54 c0       	rjmp	.+168    	; 0x1ca <__bad_interrupt>
     122:	00 00       	nop
     124:	52 c0       	rjmp	.+164    	; 0x1ca <__bad_interrupt>
     126:	00 00       	nop
     128:	50 c0       	rjmp	.+160    	; 0x1ca <__bad_interrupt>
     12a:	00 00       	nop
     12c:	4e c0       	rjmp	.+156    	; 0x1ca <__bad_interrupt>
     12e:	00 00       	nop
     130:	4c c0       	rjmp	.+152    	; 0x1ca <__bad_interrupt>
     132:	00 00       	nop
     134:	0c 94 61 0a 	jmp	0x14c2	; 0x14c2 <__vector_77>
     138:	0c 94 8e 0a 	jmp	0x151c	; 0x151c <__vector_78>
     13c:	0c 94 bb 0a 	jmp	0x1576	; 0x1576 <__vector_79>
     140:	0c 94 e8 0a 	jmp	0x15d0	; 0x15d0 <__vector_80>
     144:	0c 94 15 0b 	jmp	0x162a	; 0x162a <__vector_81>
     148:	0c 94 42 0b 	jmp	0x1684	; 0x1684 <__vector_82>
     14c:	3e c0       	rjmp	.+124    	; 0x1ca <__bad_interrupt>
     14e:	00 00       	nop
     150:	3c c0       	rjmp	.+120    	; 0x1ca <__bad_interrupt>
     152:	00 00       	nop
     154:	3a c0       	rjmp	.+116    	; 0x1ca <__bad_interrupt>
     156:	00 00       	nop
     158:	38 c0       	rjmp	.+112    	; 0x1ca <__bad_interrupt>
     15a:	00 00       	nop
     15c:	36 c0       	rjmp	.+108    	; 0x1ca <__bad_interrupt>
     15e:	00 00       	nop
     160:	34 c0       	rjmp	.+104    	; 0x1ca <__bad_interrupt>
     162:	00 00       	nop
     164:	32 c0       	rjmp	.+100    	; 0x1ca <__bad_interrupt>
     166:	00 00       	nop
     168:	30 c0       	rjmp	.+96     	; 0x1ca <__bad_interrupt>
     16a:	00 00       	nop
     16c:	7d 07       	cpc	r23, r29
     16e:	81 07       	cpc	r24, r17
     170:	85 07       	cpc	r24, r21
     172:	89 07       	cpc	r24, r25
     174:	8d 07       	cpc	r24, r29
     176:	91 07       	cpc	r25, r17
     178:	95 07       	cpc	r25, r21
     17a:	99 07       	cpc	r25, r25
     17c:	9d 07       	cpc	r25, r29
     17e:	a1 07       	cpc	r26, r17
     180:	a5 07       	cpc	r26, r21
     182:	a9 07       	cpc	r26, r25
     184:	ad 07       	cpc	r26, r29
     186:	b1 07       	cpc	r27, r17
     188:	b5 07       	cpc	r27, r21

0000018a <__ctors_end>:
     18a:	11 24       	eor	r1, r1
     18c:	1f be       	out	0x3f, r1	; 63
     18e:	cf ef       	ldi	r28, 0xFF	; 255
     190:	cd bf       	out	0x3d, r28	; 61
     192:	df e3       	ldi	r29, 0x3F	; 63
     194:	de bf       	out	0x3e, r29	; 62
     196:	00 e0       	ldi	r16, 0x00	; 0
     198:	0c bf       	out	0x3c, r16	; 60

0000019a <__do_copy_data>:
     19a:	12 e2       	ldi	r17, 0x22	; 34
     19c:	a0 e0       	ldi	r26, 0x00	; 0
     19e:	b0 e2       	ldi	r27, 0x20	; 32
     1a0:	e6 e2       	ldi	r30, 0x26	; 38
     1a2:	fe e1       	ldi	r31, 0x1E	; 30
     1a4:	00 e0       	ldi	r16, 0x00	; 0
     1a6:	0b bf       	out	0x3b, r16	; 59
     1a8:	02 c0       	rjmp	.+4      	; 0x1ae <__do_copy_data+0x14>
     1aa:	07 90       	elpm	r0, Z+
     1ac:	0d 92       	st	X+, r0
     1ae:	a8 31       	cpi	r26, 0x18	; 24
     1b0:	b1 07       	cpc	r27, r17
     1b2:	d9 f7       	brne	.-10     	; 0x1aa <__do_copy_data+0x10>

000001b4 <__do_clear_bss>:
     1b4:	24 e2       	ldi	r18, 0x24	; 36
     1b6:	a8 e1       	ldi	r26, 0x18	; 24
     1b8:	b2 e2       	ldi	r27, 0x22	; 34
     1ba:	01 c0       	rjmp	.+2      	; 0x1be <.do_clear_bss_start>

000001bc <.do_clear_bss_loop>:
     1bc:	1d 92       	st	X+, r1

000001be <.do_clear_bss_start>:
     1be:	a2 34       	cpi	r26, 0x42	; 66
     1c0:	b2 07       	cpc	r27, r18
     1c2:	e1 f7       	brne	.-8      	; 0x1bc <.do_clear_bss_loop>
     1c4:	8e d2       	rcall	.+1308   	; 0x6e2 <main>
     1c6:	0c 94 11 0f 	jmp	0x1e22	; 0x1e22 <_exit>

000001ca <__bad_interrupt>:
     1ca:	1a cf       	rjmp	.-460    	; 0x0 <__vectors>

000001cc <sysclk_enable_peripheral_clock>:
     1cc:	00 97       	sbiw	r24, 0x00	; 0
     1ce:	09 f4       	brne	.+2      	; 0x1d2 <sysclk_enable_peripheral_clock+0x6>
     1d0:	5e c0       	rjmp	.+188    	; 0x28e <sysclk_enable_peripheral_clock+0xc2>
     1d2:	81 15       	cp	r24, r1
     1d4:	24 e0       	ldi	r18, 0x04	; 4
     1d6:	92 07       	cpc	r25, r18
     1d8:	11 f4       	brne	.+4      	; 0x1de <sysclk_enable_peripheral_clock+0x12>
     1da:	64 e0       	ldi	r22, 0x04	; 4
     1dc:	05 c0       	rjmp	.+10     	; 0x1e8 <sysclk_enable_peripheral_clock+0x1c>
     1de:	80 38       	cpi	r24, 0x80	; 128
     1e0:	21 e0       	ldi	r18, 0x01	; 1
     1e2:	92 07       	cpc	r25, r18
     1e4:	19 f4       	brne	.+6      	; 0x1ec <sysclk_enable_peripheral_clock+0x20>
     1e6:	62 e0       	ldi	r22, 0x02	; 2
     1e8:	80 e0       	ldi	r24, 0x00	; 0
     1ea:	50 c0       	rjmp	.+160    	; 0x28c <sysclk_enable_peripheral_clock+0xc0>
     1ec:	80 38       	cpi	r24, 0x80	; 128
     1ee:	23 e0       	ldi	r18, 0x03	; 3
     1f0:	92 07       	cpc	r25, r18
     1f2:	11 f4       	brne	.+4      	; 0x1f8 <sysclk_enable_peripheral_clock+0x2c>
     1f4:	61 e0       	ldi	r22, 0x01	; 1
     1f6:	05 c0       	rjmp	.+10     	; 0x202 <sysclk_enable_peripheral_clock+0x36>
     1f8:	81 15       	cp	r24, r1
     1fa:	22 e0       	ldi	r18, 0x02	; 2
     1fc:	92 07       	cpc	r25, r18
     1fe:	19 f4       	brne	.+6      	; 0x206 <sysclk_enable_peripheral_clock+0x3a>
     200:	62 e0       	ldi	r22, 0x02	; 2
     202:	81 e0       	ldi	r24, 0x01	; 1
     204:	43 c0       	rjmp	.+134    	; 0x28c <sysclk_enable_peripheral_clock+0xc0>
     206:	81 15       	cp	r24, r1
     208:	28 e0       	ldi	r18, 0x08	; 8
     20a:	92 07       	cpc	r25, r18
     20c:	11 f4       	brne	.+4      	; 0x212 <sysclk_enable_peripheral_clock+0x46>
     20e:	61 e0       	ldi	r22, 0x01	; 1
     210:	36 c0       	rjmp	.+108    	; 0x27e <sysclk_enable_peripheral_clock+0xb2>
     212:	81 15       	cp	r24, r1
     214:	29 e0       	ldi	r18, 0x09	; 9
     216:	92 07       	cpc	r25, r18
     218:	11 f4       	brne	.+4      	; 0x21e <sysclk_enable_peripheral_clock+0x52>
     21a:	61 e0       	ldi	r22, 0x01	; 1
     21c:	29 c0       	rjmp	.+82     	; 0x270 <sysclk_enable_peripheral_clock+0xa4>
     21e:	81 15       	cp	r24, r1
     220:	2a e0       	ldi	r18, 0x0A	; 10
     222:	92 07       	cpc	r25, r18
     224:	11 f4       	brne	.+4      	; 0x22a <sysclk_enable_peripheral_clock+0x5e>
     226:	61 e0       	ldi	r22, 0x01	; 1
     228:	30 c0       	rjmp	.+96     	; 0x28a <sysclk_enable_peripheral_clock+0xbe>
     22a:	80 34       	cpi	r24, 0x40	; 64
     22c:	28 e0       	ldi	r18, 0x08	; 8
     22e:	92 07       	cpc	r25, r18
     230:	11 f4       	brne	.+4      	; 0x236 <sysclk_enable_peripheral_clock+0x6a>
     232:	62 e0       	ldi	r22, 0x02	; 2
     234:	24 c0       	rjmp	.+72     	; 0x27e <sysclk_enable_peripheral_clock+0xb2>
     236:	80 39       	cpi	r24, 0x90	; 144
     238:	28 e0       	ldi	r18, 0x08	; 8
     23a:	92 07       	cpc	r25, r18
     23c:	11 f4       	brne	.+4      	; 0x242 <sysclk_enable_peripheral_clock+0x76>
     23e:	64 e0       	ldi	r22, 0x04	; 4
     240:	1e c0       	rjmp	.+60     	; 0x27e <sysclk_enable_peripheral_clock+0xb2>
     242:	80 3c       	cpi	r24, 0xC0	; 192
     244:	28 e0       	ldi	r18, 0x08	; 8
     246:	92 07       	cpc	r25, r18
     248:	11 f4       	brne	.+4      	; 0x24e <sysclk_enable_peripheral_clock+0x82>
     24a:	68 e0       	ldi	r22, 0x08	; 8
     24c:	18 c0       	rjmp	.+48     	; 0x27e <sysclk_enable_peripheral_clock+0xb2>
     24e:	80 3c       	cpi	r24, 0xC0	; 192
     250:	29 e0       	ldi	r18, 0x09	; 9
     252:	92 07       	cpc	r25, r18
     254:	11 f4       	brne	.+4      	; 0x25a <sysclk_enable_peripheral_clock+0x8e>
     256:	68 e0       	ldi	r22, 0x08	; 8
     258:	0b c0       	rjmp	.+22     	; 0x270 <sysclk_enable_peripheral_clock+0xa4>
     25a:	80 3a       	cpi	r24, 0xA0	; 160
     25c:	28 e0       	ldi	r18, 0x08	; 8
     25e:	92 07       	cpc	r25, r18
     260:	11 f4       	brne	.+4      	; 0x266 <sysclk_enable_peripheral_clock+0x9a>
     262:	60 e1       	ldi	r22, 0x10	; 16
     264:	0c c0       	rjmp	.+24     	; 0x27e <sysclk_enable_peripheral_clock+0xb2>
     266:	80 3a       	cpi	r24, 0xA0	; 160
     268:	29 e0       	ldi	r18, 0x09	; 9
     26a:	92 07       	cpc	r25, r18
     26c:	19 f4       	brne	.+6      	; 0x274 <sysclk_enable_peripheral_clock+0xa8>
     26e:	60 e1       	ldi	r22, 0x10	; 16
     270:	84 e0       	ldi	r24, 0x04	; 4
     272:	0c c0       	rjmp	.+24     	; 0x28c <sysclk_enable_peripheral_clock+0xc0>
     274:	80 38       	cpi	r24, 0x80	; 128
     276:	24 e0       	ldi	r18, 0x04	; 4
     278:	92 07       	cpc	r25, r18
     27a:	19 f4       	brne	.+6      	; 0x282 <sysclk_enable_peripheral_clock+0xb6>
     27c:	60 e4       	ldi	r22, 0x40	; 64
     27e:	83 e0       	ldi	r24, 0x03	; 3
     280:	05 c0       	rjmp	.+10     	; 0x28c <sysclk_enable_peripheral_clock+0xc0>
     282:	80 3a       	cpi	r24, 0xA0	; 160
     284:	94 40       	sbci	r25, 0x04	; 4
     286:	19 f4       	brne	.+6      	; 0x28e <sysclk_enable_peripheral_clock+0xc2>
     288:	60 e4       	ldi	r22, 0x40	; 64
     28a:	85 e0       	ldi	r24, 0x05	; 5
     28c:	3a c7       	rjmp	.+3700   	; 0x1102 <sysclk_enable_module>
     28e:	08 95       	ret

00000290 <usart_putchar>:
     290:	fc 01       	movw	r30, r24
     292:	21 81       	ldd	r18, Z+1	; 0x01
     294:	25 ff       	sbrs	r18, 5
     296:	fc cf       	rjmp	.-8      	; 0x290 <usart_putchar>
     298:	60 83       	st	Z, r22
     29a:	80 e0       	ldi	r24, 0x00	; 0
     29c:	90 e0       	ldi	r25, 0x00	; 0
     29e:	08 95       	ret

000002a0 <usart_getchar>:
     2a0:	fc 01       	movw	r30, r24
     2a2:	21 81       	ldd	r18, Z+1	; 0x01
     2a4:	27 ff       	sbrs	r18, 7
     2a6:	fc cf       	rjmp	.-8      	; 0x2a0 <usart_getchar>
     2a8:	80 81       	ld	r24, Z
     2aa:	08 95       	ret

000002ac <usart_set_baudrate>:
     2ac:	8f 92       	push	r8
     2ae:	9f 92       	push	r9
     2b0:	af 92       	push	r10
     2b2:	bf 92       	push	r11
     2b4:	cf 92       	push	r12
     2b6:	df 92       	push	r13
     2b8:	ef 92       	push	r14
     2ba:	ff 92       	push	r15
     2bc:	0f 93       	push	r16
     2be:	1f 93       	push	r17
     2c0:	cf 93       	push	r28
     2c2:	df 93       	push	r29
     2c4:	ec 01       	movw	r28, r24
     2c6:	6a 01       	movw	r12, r20
     2c8:	7b 01       	movw	r14, r22
     2ca:	48 01       	movw	r8, r16
     2cc:	59 01       	movw	r10, r18
     2ce:	8c 81       	ldd	r24, Y+4	; 0x04
     2d0:	b9 01       	movw	r22, r18
     2d2:	a8 01       	movw	r20, r16
     2d4:	82 ff       	sbrs	r24, 2
     2d6:	11 c0       	rjmp	.+34     	; 0x2fa <usart_set_baudrate+0x4e>
     2d8:	33 e0       	ldi	r19, 0x03	; 3
     2da:	76 95       	lsr	r23
     2dc:	67 95       	ror	r22
     2de:	57 95       	ror	r21
     2e0:	47 95       	ror	r20
     2e2:	3a 95       	dec	r19
     2e4:	d1 f7       	brne	.-12     	; 0x2da <usart_set_baudrate+0x2e>
     2e6:	d5 01       	movw	r26, r10
     2e8:	c4 01       	movw	r24, r8
     2ea:	e6 e1       	ldi	r30, 0x16	; 22
     2ec:	b6 95       	lsr	r27
     2ee:	a7 95       	ror	r26
     2f0:	97 95       	ror	r25
     2f2:	87 95       	ror	r24
     2f4:	ea 95       	dec	r30
     2f6:	d1 f7       	brne	.-12     	; 0x2ec <usart_set_baudrate+0x40>
     2f8:	10 c0       	rjmp	.+32     	; 0x31a <usart_set_baudrate+0x6e>
     2fa:	94 e0       	ldi	r25, 0x04	; 4
     2fc:	76 95       	lsr	r23
     2fe:	67 95       	ror	r22
     300:	57 95       	ror	r21
     302:	47 95       	ror	r20
     304:	9a 95       	dec	r25
     306:	d1 f7       	brne	.-12     	; 0x2fc <usart_set_baudrate+0x50>
     308:	d9 01       	movw	r26, r18
     30a:	c8 01       	movw	r24, r16
     30c:	27 e1       	ldi	r18, 0x17	; 23
     30e:	b6 95       	lsr	r27
     310:	a7 95       	ror	r26
     312:	97 95       	ror	r25
     314:	87 95       	ror	r24
     316:	2a 95       	dec	r18
     318:	d1 f7       	brne	.-12     	; 0x30e <usart_set_baudrate+0x62>
     31a:	4c 15       	cp	r20, r12
     31c:	5d 05       	cpc	r21, r13
     31e:	6e 05       	cpc	r22, r14
     320:	7f 05       	cpc	r23, r15
     322:	08 f4       	brcc	.+2      	; 0x326 <usart_set_baudrate+0x7a>
     324:	98 c0       	rjmp	.+304    	; 0x456 <__LOCK_REGION_LENGTH__+0x56>
     326:	c8 16       	cp	r12, r24
     328:	d9 06       	cpc	r13, r25
     32a:	ea 06       	cpc	r14, r26
     32c:	fb 06       	cpc	r15, r27
     32e:	08 f4       	brcc	.+2      	; 0x332 <usart_set_baudrate+0x86>
     330:	92 c0       	rjmp	.+292    	; 0x456 <__LOCK_REGION_LENGTH__+0x56>
     332:	8c 81       	ldd	r24, Y+4	; 0x04
     334:	82 fd       	sbrc	r24, 2
     336:	04 c0       	rjmp	.+8      	; 0x340 <usart_set_baudrate+0x94>
     338:	cc 0c       	add	r12, r12
     33a:	dd 1c       	adc	r13, r13
     33c:	ee 1c       	adc	r14, r14
     33e:	ff 1c       	adc	r15, r15
     340:	c5 01       	movw	r24, r10
     342:	b4 01       	movw	r22, r8
     344:	a7 01       	movw	r20, r14
     346:	96 01       	movw	r18, r12
     348:	0e 94 e7 0e 	call	0x1dce	; 0x1dce <__udivmodsi4>
     34c:	19 ef       	ldi	r17, 0xF9	; 249
     34e:	8f ef       	ldi	r24, 0xFF	; 255
     350:	90 e0       	ldi	r25, 0x00	; 0
     352:	a0 e0       	ldi	r26, 0x00	; 0
     354:	b0 e0       	ldi	r27, 0x00	; 0
     356:	28 17       	cp	r18, r24
     358:	39 07       	cpc	r19, r25
     35a:	4a 07       	cpc	r20, r26
     35c:	5b 07       	cpc	r21, r27
     35e:	58 f0       	brcs	.+22     	; 0x376 <usart_set_baudrate+0xca>
     360:	88 0f       	add	r24, r24
     362:	99 1f       	adc	r25, r25
     364:	aa 1f       	adc	r26, r26
     366:	bb 1f       	adc	r27, r27
     368:	1d 3f       	cpi	r17, 0xFD	; 253
     36a:	0c f4       	brge	.+2      	; 0x36e <usart_set_baudrate+0xc2>
     36c:	81 60       	ori	r24, 0x01	; 1
     36e:	1f 5f       	subi	r17, 0xFF	; 255
     370:	17 30       	cpi	r17, 0x07	; 7
     372:	89 f7       	brne	.-30     	; 0x356 <usart_set_baudrate+0xaa>
     374:	49 c0       	rjmp	.+146    	; 0x408 <__LOCK_REGION_LENGTH__+0x8>
     376:	17 ff       	sbrs	r17, 7
     378:	47 c0       	rjmp	.+142    	; 0x408 <__LOCK_REGION_LENGTH__+0x8>
     37a:	d7 01       	movw	r26, r14
     37c:	c6 01       	movw	r24, r12
     37e:	f3 e0       	ldi	r31, 0x03	; 3
     380:	88 0f       	add	r24, r24
     382:	99 1f       	adc	r25, r25
     384:	aa 1f       	adc	r26, r26
     386:	bb 1f       	adc	r27, r27
     388:	fa 95       	dec	r31
     38a:	d1 f7       	brne	.-12     	; 0x380 <usart_set_baudrate+0xd4>
     38c:	88 1a       	sub	r8, r24
     38e:	99 0a       	sbc	r9, r25
     390:	aa 0a       	sbc	r10, r26
     392:	bb 0a       	sbc	r11, r27
     394:	81 2f       	mov	r24, r17
     396:	01 2e       	mov	r0, r17
     398:	00 0c       	add	r0, r0
     39a:	99 0b       	sbc	r25, r25
     39c:	1e 3f       	cpi	r17, 0xFE	; 254
     39e:	dc f4       	brge	.+54     	; 0x3d6 <usart_set_baudrate+0x12a>
     3a0:	2d ef       	ldi	r18, 0xFD	; 253
     3a2:	3f ef       	ldi	r19, 0xFF	; 255
     3a4:	a9 01       	movw	r20, r18
     3a6:	48 1b       	sub	r20, r24
     3a8:	59 0b       	sbc	r21, r25
     3aa:	04 c0       	rjmp	.+8      	; 0x3b4 <usart_set_baudrate+0x108>
     3ac:	88 0c       	add	r8, r8
     3ae:	99 1c       	adc	r9, r9
     3b0:	aa 1c       	adc	r10, r10
     3b2:	bb 1c       	adc	r11, r11
     3b4:	4a 95       	dec	r20
     3b6:	d2 f7       	brpl	.-12     	; 0x3ac <usart_set_baudrate+0x100>
     3b8:	d7 01       	movw	r26, r14
     3ba:	c6 01       	movw	r24, r12
     3bc:	b6 95       	lsr	r27
     3be:	a7 95       	ror	r26
     3c0:	97 95       	ror	r25
     3c2:	87 95       	ror	r24
     3c4:	bc 01       	movw	r22, r24
     3c6:	cd 01       	movw	r24, r26
     3c8:	68 0d       	add	r22, r8
     3ca:	79 1d       	adc	r23, r9
     3cc:	8a 1d       	adc	r24, r10
     3ce:	9b 1d       	adc	r25, r11
     3d0:	a7 01       	movw	r20, r14
     3d2:	96 01       	movw	r18, r12
     3d4:	16 c0       	rjmp	.+44     	; 0x402 <__LOCK_REGION_LENGTH__+0x2>
     3d6:	03 96       	adiw	r24, 0x03	; 3
     3d8:	a7 01       	movw	r20, r14
     3da:	96 01       	movw	r18, r12
     3dc:	04 c0       	rjmp	.+8      	; 0x3e6 <usart_set_baudrate+0x13a>
     3de:	22 0f       	add	r18, r18
     3e0:	33 1f       	adc	r19, r19
     3e2:	44 1f       	adc	r20, r20
     3e4:	55 1f       	adc	r21, r21
     3e6:	8a 95       	dec	r24
     3e8:	d2 f7       	brpl	.-12     	; 0x3de <usart_set_baudrate+0x132>
     3ea:	da 01       	movw	r26, r20
     3ec:	c9 01       	movw	r24, r18
     3ee:	b6 95       	lsr	r27
     3f0:	a7 95       	ror	r26
     3f2:	97 95       	ror	r25
     3f4:	87 95       	ror	r24
     3f6:	bc 01       	movw	r22, r24
     3f8:	cd 01       	movw	r24, r26
     3fa:	68 0d       	add	r22, r8
     3fc:	79 1d       	adc	r23, r9
     3fe:	8a 1d       	adc	r24, r10
     400:	9b 1d       	adc	r25, r11
     402:	0e 94 e7 0e 	call	0x1dce	; 0x1dce <__udivmodsi4>
     406:	1d c0       	rjmp	.+58     	; 0x442 <__LOCK_REGION_LENGTH__+0x42>
     408:	83 e0       	ldi	r24, 0x03	; 3
     40a:	81 0f       	add	r24, r17
     40c:	a7 01       	movw	r20, r14
     40e:	96 01       	movw	r18, r12
     410:	04 c0       	rjmp	.+8      	; 0x41a <__LOCK_REGION_LENGTH__+0x1a>
     412:	22 0f       	add	r18, r18
     414:	33 1f       	adc	r19, r19
     416:	44 1f       	adc	r20, r20
     418:	55 1f       	adc	r21, r21
     41a:	8a 95       	dec	r24
     41c:	d2 f7       	brpl	.-12     	; 0x412 <__LOCK_REGION_LENGTH__+0x12>
     41e:	da 01       	movw	r26, r20
     420:	c9 01       	movw	r24, r18
     422:	b6 95       	lsr	r27
     424:	a7 95       	ror	r26
     426:	97 95       	ror	r25
     428:	87 95       	ror	r24
     42a:	bc 01       	movw	r22, r24
     42c:	cd 01       	movw	r24, r26
     42e:	68 0d       	add	r22, r8
     430:	79 1d       	adc	r23, r9
     432:	8a 1d       	adc	r24, r10
     434:	9b 1d       	adc	r25, r11
     436:	0e 94 e7 0e 	call	0x1dce	; 0x1dce <__udivmodsi4>
     43a:	21 50       	subi	r18, 0x01	; 1
     43c:	31 09       	sbc	r19, r1
     43e:	41 09       	sbc	r20, r1
     440:	51 09       	sbc	r21, r1
     442:	93 2f       	mov	r25, r19
     444:	9f 70       	andi	r25, 0x0F	; 15
     446:	81 2f       	mov	r24, r17
     448:	82 95       	swap	r24
     44a:	80 7f       	andi	r24, 0xF0	; 240
     44c:	89 2b       	or	r24, r25
     44e:	8f 83       	std	Y+7, r24	; 0x07
     450:	2e 83       	std	Y+6, r18	; 0x06
     452:	81 e0       	ldi	r24, 0x01	; 1
     454:	01 c0       	rjmp	.+2      	; 0x458 <__LOCK_REGION_LENGTH__+0x58>
     456:	80 e0       	ldi	r24, 0x00	; 0
     458:	df 91       	pop	r29
     45a:	cf 91       	pop	r28
     45c:	1f 91       	pop	r17
     45e:	0f 91       	pop	r16
     460:	ff 90       	pop	r15
     462:	ef 90       	pop	r14
     464:	df 90       	pop	r13
     466:	cf 90       	pop	r12
     468:	bf 90       	pop	r11
     46a:	af 90       	pop	r10
     46c:	9f 90       	pop	r9
     46e:	8f 90       	pop	r8
     470:	08 95       	ret

00000472 <usart_init_rs232>:
     472:	0f 93       	push	r16
     474:	1f 93       	push	r17
     476:	cf 93       	push	r28
     478:	df 93       	push	r29
     47a:	ec 01       	movw	r28, r24
     47c:	8b 01       	movw	r16, r22
     47e:	a6 de       	rcall	.-692    	; 0x1cc <sysclk_enable_peripheral_clock>
     480:	8d 81       	ldd	r24, Y+5	; 0x05
     482:	8f 73       	andi	r24, 0x3F	; 63
     484:	8d 83       	std	Y+5, r24	; 0x05
     486:	f8 01       	movw	r30, r16
     488:	95 81       	ldd	r25, Z+5	; 0x05
     48a:	84 81       	ldd	r24, Z+4	; 0x04
     48c:	98 2b       	or	r25, r24
     48e:	86 81       	ldd	r24, Z+6	; 0x06
     490:	81 11       	cpse	r24, r1
     492:	88 e0       	ldi	r24, 0x08	; 8
     494:	89 2b       	or	r24, r25
     496:	8d 83       	std	Y+5, r24	; 0x05
     498:	f8 01       	movw	r30, r16
     49a:	40 81       	ld	r20, Z
     49c:	51 81       	ldd	r21, Z+1	; 0x01
     49e:	62 81       	ldd	r22, Z+2	; 0x02
     4a0:	73 81       	ldd	r23, Z+3	; 0x03
     4a2:	00 e1       	ldi	r16, 0x10	; 16
     4a4:	15 e7       	ldi	r17, 0x75	; 117
     4a6:	20 e7       	ldi	r18, 0x70	; 112
     4a8:	30 e0       	ldi	r19, 0x00	; 0
     4aa:	ce 01       	movw	r24, r28
     4ac:	ff de       	rcall	.-514    	; 0x2ac <usart_set_baudrate>
     4ae:	9c 81       	ldd	r25, Y+4	; 0x04
     4b0:	98 60       	ori	r25, 0x08	; 8
     4b2:	9c 83       	std	Y+4, r25	; 0x04
     4b4:	9c 81       	ldd	r25, Y+4	; 0x04
     4b6:	90 61       	ori	r25, 0x10	; 16
     4b8:	9c 83       	std	Y+4, r25	; 0x04
     4ba:	df 91       	pop	r29
     4bc:	cf 91       	pop	r28
     4be:	1f 91       	pop	r17
     4c0:	0f 91       	pop	r16
     4c2:	08 95       	ret

000004c4 <hex_decode>:
     4c4:	cf 93       	push	r28
     4c6:	df 93       	push	r29
     4c8:	c4 2f       	mov	r28, r20
     4ca:	d5 2f       	mov	r29, r21
     4cc:	dc 01       	movw	r26, r24
     4ce:	9d 01       	movw	r18, r26
     4d0:	28 1b       	sub	r18, r24
     4d2:	39 0b       	sbc	r19, r25
     4d4:	26 17       	cp	r18, r22
     4d6:	37 07       	cpc	r19, r23
     4d8:	28 f5       	brcc	.+74     	; 0x524 <hex_decode+0x60>
     4da:	2c 91       	ld	r18, X
     4dc:	2a 33       	cpi	r18, 0x3A	; 58
     4de:	3c f0       	brlt	.+14     	; 0x4ee <hex_decode+0x2a>
     4e0:	20 62       	ori	r18, 0x20	; 32
     4e2:	02 2e       	mov	r0, r18
     4e4:	00 0c       	add	r0, r0
     4e6:	33 0b       	sbc	r19, r19
     4e8:	27 55       	subi	r18, 0x57	; 87
     4ea:	31 09       	sbc	r19, r1
     4ec:	05 c0       	rjmp	.+10     	; 0x4f8 <hex_decode+0x34>
     4ee:	02 2e       	mov	r0, r18
     4f0:	00 0c       	add	r0, r0
     4f2:	33 0b       	sbc	r19, r19
     4f4:	20 53       	subi	r18, 0x30	; 48
     4f6:	31 09       	sbc	r19, r1
     4f8:	11 96       	adiw	r26, 0x01	; 1
     4fa:	ec 91       	ld	r30, X
     4fc:	11 97       	sbiw	r26, 0x01	; 1
     4fe:	ea 33       	cpi	r30, 0x3A	; 58
     500:	3c f0       	brlt	.+14     	; 0x510 <hex_decode+0x4c>
     502:	e0 62       	ori	r30, 0x20	; 32
     504:	0e 2e       	mov	r0, r30
     506:	00 0c       	add	r0, r0
     508:	ff 0b       	sbc	r31, r31
     50a:	e7 55       	subi	r30, 0x57	; 87
     50c:	f1 09       	sbc	r31, r1
     50e:	04 c0       	rjmp	.+8      	; 0x518 <hex_decode+0x54>
     510:	0e 2e       	mov	r0, r30
     512:	00 0c       	add	r0, r0
     514:	ff 0b       	sbc	r31, r31
     516:	f0 97       	sbiw	r30, 0x30	; 48
     518:	22 95       	swap	r18
     51a:	20 7f       	andi	r18, 0xF0	; 240
     51c:	e2 2b       	or	r30, r18
     51e:	e9 93       	st	Y+, r30
     520:	12 96       	adiw	r26, 0x02	; 2
     522:	d5 cf       	rjmp	.-86     	; 0x4ce <hex_decode+0xa>
     524:	ca 01       	movw	r24, r20
     526:	df 91       	pop	r29
     528:	cf 91       	pop	r28
     52a:	08 95       	ret

0000052c <hex_print>:
     52c:	1f 93       	push	r17
     52e:	cf 93       	push	r28
     530:	df 93       	push	r29
     532:	da 01       	movw	r26, r20
     534:	9c 01       	movw	r18, r24
     536:	26 0f       	add	r18, r22
     538:	37 1f       	adc	r19, r23
     53a:	82 17       	cp	r24, r18
     53c:	93 07       	cpc	r25, r19
     53e:	b9 f0       	breq	.+46     	; 0x56e <hex_print+0x42>
     540:	ec 01       	movw	r28, r24
     542:	fc 01       	movw	r30, r24
     544:	11 91       	ld	r17, Z+
     546:	cf 01       	movw	r24, r30
     548:	e1 2f       	mov	r30, r17
     54a:	e2 95       	swap	r30
     54c:	ef 70       	andi	r30, 0x0F	; 15
     54e:	f0 e0       	ldi	r31, 0x00	; 0
     550:	e0 50       	subi	r30, 0x00	; 0
     552:	f0 4e       	sbci	r31, 0xE0	; 224
     554:	e0 81       	ld	r30, Z
     556:	ec 93       	st	X, r30
     558:	e8 81       	ld	r30, Y
     55a:	ef 70       	andi	r30, 0x0F	; 15
     55c:	f0 e0       	ldi	r31, 0x00	; 0
     55e:	e0 50       	subi	r30, 0x00	; 0
     560:	f0 4e       	sbci	r31, 0xE0	; 224
     562:	e0 81       	ld	r30, Z
     564:	11 96       	adiw	r26, 0x01	; 1
     566:	ec 93       	st	X, r30
     568:	11 97       	sbiw	r26, 0x01	; 1
     56a:	12 96       	adiw	r26, 0x02	; 2
     56c:	e6 cf       	rjmp	.-52     	; 0x53a <hex_print+0xe>
     56e:	66 0f       	add	r22, r22
     570:	77 1f       	adc	r23, r23
     572:	fa 01       	movw	r30, r20
     574:	e6 0f       	add	r30, r22
     576:	f7 1f       	adc	r31, r23
     578:	10 82       	st	Z, r1
     57a:	df 91       	pop	r29
     57c:	cf 91       	pop	r28
     57e:	1f 91       	pop	r17
     580:	08 95       	ret

00000582 <CWPlatInit>:
     582:	cf 93       	push	r28
     584:	df 93       	push	r29
     586:	cd b7       	in	r28, 0x3d	; 61
     588:	de b7       	in	r29, 0x3e	; 62
     58a:	27 97       	sbiw	r28, 0x07	; 7
     58c:	cd bf       	out	0x3d, r28	; 61
     58e:	de bf       	out	0x3e, r29	; 62
     590:	90 d5       	rcall	.+2848   	; 0x10b2 <sysclk_init>
     592:	e0 e4       	ldi	r30, 0x40	; 64
     594:	f6 e0       	ldi	r31, 0x06	; 6
     596:	88 e0       	ldi	r24, 0x08	; 8
     598:	81 83       	std	Z+1, r24	; 0x01
     59a:	84 e0       	ldi	r24, 0x04	; 4
     59c:	82 83       	std	Z+2, r24	; 0x02
     59e:	e0 e0       	ldi	r30, 0x00	; 0
     5a0:	f6 e0       	ldi	r31, 0x06	; 6
     5a2:	81 e0       	ldi	r24, 0x01	; 1
     5a4:	81 83       	std	Z+1, r24	; 0x01
     5a6:	80 e2       	ldi	r24, 0x20	; 32
     5a8:	81 83       	std	Z+1, r24	; 0x01
     5aa:	86 83       	std	Z+6, r24	; 0x06
     5ac:	80 e4       	ldi	r24, 0x40	; 64
     5ae:	81 83       	std	Z+1, r24	; 0x01
     5b0:	85 83       	std	Z+5, r24	; 0x05
     5b2:	e0 e1       	ldi	r30, 0x10	; 16
     5b4:	f0 e2       	ldi	r31, 0x20	; 32
     5b6:	84 81       	ldd	r24, Z+4	; 0x04
     5b8:	8d 83       	std	Y+5, r24	; 0x05
     5ba:	85 81       	ldd	r24, Z+5	; 0x05
     5bc:	8e 83       	std	Y+6, r24	; 0x06
     5be:	86 81       	ldd	r24, Z+6	; 0x06
     5c0:	8f 83       	std	Y+7, r24	; 0x07
     5c2:	80 81       	ld	r24, Z
     5c4:	91 81       	ldd	r25, Z+1	; 0x01
     5c6:	a2 81       	ldd	r26, Z+2	; 0x02
     5c8:	b3 81       	ldd	r27, Z+3	; 0x03
     5ca:	89 83       	std	Y+1, r24	; 0x01
     5cc:	9a 83       	std	Y+2, r25	; 0x02
     5ce:	ab 83       	std	Y+3, r26	; 0x03
     5d0:	bc 83       	std	Y+4, r27	; 0x04
     5d2:	60 e1       	ldi	r22, 0x10	; 16
     5d4:	83 e0       	ldi	r24, 0x03	; 3
     5d6:	95 d5       	rcall	.+2858   	; 0x1102 <sysclk_enable_module>
     5d8:	be 01       	movw	r22, r28
     5da:	6f 5f       	subi	r22, 0xFF	; 255
     5dc:	7f 4f       	sbci	r23, 0xFF	; 255
     5de:	80 ea       	ldi	r24, 0xA0	; 160
     5e0:	98 e0       	ldi	r25, 0x08	; 8
     5e2:	47 df       	rcall	.-370    	; 0x472 <usart_init_rs232>
     5e4:	80 e0       	ldi	r24, 0x00	; 0
     5e6:	98 e0       	ldi	r25, 0x08	; 8
     5e8:	0e 94 7d 0c 	call	0x18fa	; 0x18fa <tc_enable>
     5ec:	e0 e0       	ldi	r30, 0x00	; 0
     5ee:	f8 e0       	ldi	r31, 0x08	; 8
     5f0:	81 81       	ldd	r24, Z+1	; 0x01
     5f2:	88 7f       	andi	r24, 0xF8	; 248
     5f4:	81 83       	std	Z+1, r24	; 0x01
     5f6:	80 85       	ldd	r24, Z+8	; 0x08
     5f8:	8e 6f       	ori	r24, 0xFE	; 254
     5fa:	80 87       	std	Z+8, r24	; 0x08
     5fc:	80 81       	ld	r24, Z
     5fe:	80 7f       	andi	r24, 0xF0	; 240
     600:	83 60       	ori	r24, 0x03	; 3
     602:	80 83       	st	Z, r24
     604:	27 96       	adiw	r28, 0x07	; 7
     606:	cd bf       	out	0x3d, r28	; 61
     608:	de bf       	out	0x3e, r29	; 62
     60a:	df 91       	pop	r29
     60c:	cf 91       	pop	r28
     60e:	08 95       	ret

00000610 <sendUint16>:
     610:	ef 92       	push	r14
     612:	ff 92       	push	r15
     614:	0f 93       	push	r16
     616:	1f 93       	push	r17
     618:	cf 93       	push	r28
     61a:	df 93       	push	r29
     61c:	cd b7       	in	r28, 0x3d	; 61
     61e:	de b7       	in	r29, 0x3e	; 62
     620:	25 97       	sbiw	r28, 0x05	; 5
     622:	cd bf       	out	0x3d, r28	; 61
     624:	de bf       	out	0x3e, r29	; 62
     626:	fc 01       	movw	r30, r24
     628:	60 e1       	ldi	r22, 0x10	; 16
     62a:	77 e2       	ldi	r23, 0x27	; 39
     62c:	0e 94 d3 0e 	call	0x1da6	; 0x1da6 <__udivmodhi4>
     630:	69 83       	std	Y+1, r22	; 0x01
     632:	cf 01       	movw	r24, r30
     634:	68 ee       	ldi	r22, 0xE8	; 232
     636:	73 e0       	ldi	r23, 0x03	; 3
     638:	0e 94 d3 0e 	call	0x1da6	; 0x1da6 <__udivmodhi4>
     63c:	cb 01       	movw	r24, r22
     63e:	2a e0       	ldi	r18, 0x0A	; 10
     640:	30 e0       	ldi	r19, 0x00	; 0
     642:	b9 01       	movw	r22, r18
     644:	0e 94 d3 0e 	call	0x1da6	; 0x1da6 <__udivmodhi4>
     648:	8a 83       	std	Y+2, r24	; 0x02
     64a:	cf 01       	movw	r24, r30
     64c:	64 e6       	ldi	r22, 0x64	; 100
     64e:	70 e0       	ldi	r23, 0x00	; 0
     650:	0e 94 d3 0e 	call	0x1da6	; 0x1da6 <__udivmodhi4>
     654:	cb 01       	movw	r24, r22
     656:	b9 01       	movw	r22, r18
     658:	0e 94 d3 0e 	call	0x1da6	; 0x1da6 <__udivmodhi4>
     65c:	8b 83       	std	Y+3, r24	; 0x03
     65e:	cf 01       	movw	r24, r30
     660:	b9 01       	movw	r22, r18
     662:	0e 94 d3 0e 	call	0x1da6	; 0x1da6 <__udivmodhi4>
     666:	48 2f       	mov	r20, r24
     668:	cb 01       	movw	r24, r22
     66a:	b9 01       	movw	r22, r18
     66c:	0e 94 d3 0e 	call	0x1da6	; 0x1da6 <__udivmodhi4>
     670:	8c 83       	std	Y+4, r24	; 0x04
     672:	4d 83       	std	Y+5, r20	; 0x05
     674:	8e 01       	movw	r16, r28
     676:	0f 5f       	subi	r16, 0xFF	; 255
     678:	1f 4f       	sbci	r17, 0xFF	; 255
     67a:	7e 01       	movw	r14, r28
     67c:	86 e0       	ldi	r24, 0x06	; 6
     67e:	e8 0e       	add	r14, r24
     680:	f1 1c       	adc	r15, r1
     682:	f8 01       	movw	r30, r16
     684:	61 91       	ld	r22, Z+
     686:	8f 01       	movw	r16, r30
     688:	60 5d       	subi	r22, 0xD0	; 208
     68a:	80 ea       	ldi	r24, 0xA0	; 160
     68c:	98 e0       	ldi	r25, 0x08	; 8
     68e:	00 de       	rcall	.-1024   	; 0x290 <usart_putchar>
     690:	0e 15       	cp	r16, r14
     692:	1f 05       	cpc	r17, r15
     694:	b1 f7       	brne	.-20     	; 0x682 <sendUint16+0x72>
     696:	6a e0       	ldi	r22, 0x0A	; 10
     698:	80 ea       	ldi	r24, 0xA0	; 160
     69a:	98 e0       	ldi	r25, 0x08	; 8
     69c:	25 96       	adiw	r28, 0x05	; 5
     69e:	cd bf       	out	0x3d, r28	; 61
     6a0:	de bf       	out	0x3e, r29	; 62
     6a2:	df 91       	pop	r29
     6a4:	cf 91       	pop	r28
     6a6:	1f 91       	pop	r17
     6a8:	0f 91       	pop	r16
     6aa:	ff 90       	pop	r15
     6ac:	ef 90       	pop	r14
     6ae:	f0 cd       	rjmp	.-1056   	; 0x290 <usart_putchar>

000006b0 <sendUint8>:
     6b0:	1f 93       	push	r17
     6b2:	cf 93       	push	r28
     6b4:	df 93       	push	r29
     6b6:	18 2f       	mov	r17, r24
     6b8:	c8 e0       	ldi	r28, 0x08	; 8
     6ba:	d0 e8       	ldi	r29, 0x80	; 128
     6bc:	81 2f       	mov	r24, r17
     6be:	8d 23       	and	r24, r29
     6c0:	11 f0       	breq	.+4      	; 0x6c6 <sendUint8+0x16>
     6c2:	61 e3       	ldi	r22, 0x31	; 49
     6c4:	01 c0       	rjmp	.+2      	; 0x6c8 <sendUint8+0x18>
     6c6:	60 e3       	ldi	r22, 0x30	; 48
     6c8:	80 ea       	ldi	r24, 0xA0	; 160
     6ca:	98 e0       	ldi	r25, 0x08	; 8
     6cc:	e1 dd       	rcall	.-1086   	; 0x290 <usart_putchar>
     6ce:	d6 95       	lsr	r29
     6d0:	c1 50       	subi	r28, 0x01	; 1
     6d2:	a1 f7       	brne	.-24     	; 0x6bc <sendUint8+0xc>
     6d4:	6a e0       	ldi	r22, 0x0A	; 10
     6d6:	80 ea       	ldi	r24, 0xA0	; 160
     6d8:	98 e0       	ldi	r25, 0x08	; 8
     6da:	df 91       	pop	r29
     6dc:	cf 91       	pop	r28
     6de:	1f 91       	pop	r17
     6e0:	d7 cd       	rjmp	.-1106   	; 0x290 <usart_putchar>

000006e2 <main>:
     6e2:	4f df       	rcall	.-354    	; 0x582 <CWPlatInit>
     6e4:	d0 e0       	ldi	r29, 0x00	; 0
     6e6:	c0 e0       	ldi	r28, 0x00	; 0
     6e8:	80 ea       	ldi	r24, 0xA0	; 160
     6ea:	98 e0       	ldi	r25, 0x08	; 8
     6ec:	d9 dd       	rcall	.-1102   	; 0x2a0 <usart_getchar>
     6ee:	88 37       	cpi	r24, 0x78	; 120
     6f0:	c9 f3       	breq	.-14     	; 0x6e4 <main+0x2>
     6f2:	8b 36       	cpi	r24, 0x6B	; 107
     6f4:	11 f4       	brne	.+4      	; 0x6fa <main+0x18>
     6f6:	d1 e0       	ldi	r29, 0x01	; 1
     6f8:	f6 cf       	rjmp	.-20     	; 0x6e6 <main+0x4>
     6fa:	80 37       	cpi	r24, 0x70	; 112
     6fc:	11 f4       	brne	.+4      	; 0x702 <main+0x20>
     6fe:	d2 e0       	ldi	r29, 0x02	; 2
     700:	f2 cf       	rjmp	.-28     	; 0x6e6 <main+0x4>
     702:	d1 30       	cpi	r29, 0x01	; 1
     704:	91 f4       	brne	.+36     	; 0x72a <main+0x48>
     706:	6c 2f       	mov	r22, r28
     708:	70 e0       	ldi	r23, 0x00	; 0
     70a:	fb 01       	movw	r30, r22
     70c:	8a 30       	cpi	r24, 0x0A	; 10
     70e:	19 f0       	breq	.+6      	; 0x716 <main+0x34>
     710:	8d 30       	cpi	r24, 0x0D	; 13
     712:	09 f0       	breq	.+2      	; 0x716 <main+0x34>
     714:	4f c0       	rjmp	.+158    	; 0x7b4 <main+0xd2>
     716:	e8 5b       	subi	r30, 0xB8	; 184
     718:	fd 4d       	sbci	r31, 0xDD	; 221
     71a:	10 82       	st	Z, r1
     71c:	48 ed       	ldi	r20, 0xD8	; 216
     71e:	52 e2       	ldi	r21, 0x22	; 34
     720:	88 e4       	ldi	r24, 0x48	; 72
     722:	92 e2       	ldi	r25, 0x22	; 34
     724:	cf de       	rcall	.-610    	; 0x4c4 <hex_decode>
     726:	d0 e0       	ldi	r29, 0x00	; 0
     728:	df cf       	rjmp	.-66     	; 0x6e8 <main+0x6>
     72a:	d2 30       	cpi	r29, 0x02	; 2
     72c:	e9 f6       	brne	.-70     	; 0x6e8 <main+0x6>
     72e:	8a 30       	cpi	r24, 0x0A	; 10
     730:	19 f0       	breq	.+6      	; 0x738 <main+0x56>
     732:	8d 30       	cpi	r24, 0x0D	; 13
     734:	09 f0       	breq	.+2      	; 0x738 <main+0x56>
     736:	39 c0       	rjmp	.+114    	; 0x7aa <main+0xc8>
     738:	6c 2f       	mov	r22, r28
     73a:	70 e0       	ldi	r23, 0x00	; 0
     73c:	fb 01       	movw	r30, r22
     73e:	e8 5b       	subi	r30, 0xB8	; 184
     740:	fd 4d       	sbci	r31, 0xDD	; 221
     742:	10 82       	st	Z, r1
     744:	48 e8       	ldi	r20, 0x88	; 136
     746:	52 e2       	ldi	r21, 0x22	; 34
     748:	88 e4       	ldi	r24, 0x48	; 72
     74a:	92 e2       	ldi	r25, 0x22	; 34
     74c:	bb de       	rcall	.-650    	; 0x4c4 <hex_decode>
     74e:	10 92 20 08 	sts	0x0820, r1	; 0x800820 <__TEXT_REGION_LENGTH__+0x700820>
     752:	10 92 21 08 	sts	0x0821, r1	; 0x800821 <__TEXT_REGION_LENGTH__+0x700821>
     756:	f6 d0       	rcall	.+492    	; 0x944 <encryptionInit>
     758:	68 e8       	ldi	r22, 0x88	; 136
     75a:	72 e2       	ldi	r23, 0x22	; 34
     75c:	cb 01       	movw	r24, r22
     75e:	43 d4       	rcall	.+2182   	; 0xfe6 <encryption>
     760:	e0 90 20 08 	lds	r14, 0x0820	; 0x800820 <__TEXT_REGION_LENGTH__+0x700820>
     764:	f0 90 21 08 	lds	r15, 0x0821	; 0x800821 <__TEXT_REGION_LENGTH__+0x700821>
     768:	48 e4       	ldi	r20, 0x48	; 72
     76a:	52 e2       	ldi	r21, 0x22	; 34
     76c:	60 e1       	ldi	r22, 0x10	; 16
     76e:	70 e0       	ldi	r23, 0x00	; 0
     770:	88 e8       	ldi	r24, 0x88	; 136
     772:	92 e2       	ldi	r25, 0x22	; 34
     774:	db de       	rcall	.-586    	; 0x52c <hex_print>
     776:	62 e7       	ldi	r22, 0x72	; 114
     778:	80 ea       	ldi	r24, 0xA0	; 160
     77a:	98 e0       	ldi	r25, 0x08	; 8
     77c:	89 dd       	rcall	.-1262   	; 0x290 <usart_putchar>
     77e:	08 e4       	ldi	r16, 0x48	; 72
     780:	12 e2       	ldi	r17, 0x22	; 34
     782:	f8 01       	movw	r30, r16
     784:	61 91       	ld	r22, Z+
     786:	8f 01       	movw	r16, r30
     788:	80 ea       	ldi	r24, 0xA0	; 160
     78a:	98 e0       	ldi	r25, 0x08	; 8
     78c:	81 dd       	rcall	.-1278   	; 0x290 <usart_putchar>
     78e:	f2 e2       	ldi	r31, 0x22	; 34
     790:	08 36       	cpi	r16, 0x68	; 104
     792:	1f 07       	cpc	r17, r31
     794:	b1 f7       	brne	.-20     	; 0x782 <main+0xa0>
     796:	6a e0       	ldi	r22, 0x0A	; 10
     798:	80 ea       	ldi	r24, 0xA0	; 160
     79a:	98 e0       	ldi	r25, 0x08	; 8
     79c:	79 dd       	rcall	.-1294   	; 0x290 <usart_putchar>
     79e:	c7 01       	movw	r24, r14
     7a0:	37 df       	rcall	.-402    	; 0x610 <sendUint16>
     7a2:	80 91 40 00 	lds	r24, 0x0040	; 0x800040 <__TEXT_REGION_LENGTH__+0x700040>
     7a6:	84 df       	rcall	.-248    	; 0x6b0 <sendUint8>
     7a8:	be cf       	rjmp	.-132    	; 0x726 <main+0x44>
     7aa:	c0 34       	cpi	r28, 0x40	; 64
     7ac:	08 f0       	brcs	.+2      	; 0x7b0 <main+0xce>
     7ae:	bb cf       	rjmp	.-138    	; 0x726 <main+0x44>
     7b0:	ec 2f       	mov	r30, r28
     7b2:	f0 e0       	ldi	r31, 0x00	; 0
     7b4:	e8 5b       	subi	r30, 0xB8	; 184
     7b6:	fd 4d       	sbci	r31, 0xDD	; 221
     7b8:	80 83       	st	Z, r24
     7ba:	cf 5f       	subi	r28, 0xFF	; 255
     7bc:	95 cf       	rjmp	.-214    	; 0x6e8 <main+0x6>

000007be <roundKeyGen>:
     7be:	7f 92       	push	r7
     7c0:	8f 92       	push	r8
     7c2:	9f 92       	push	r9
     7c4:	af 92       	push	r10
     7c6:	bf 92       	push	r11
     7c8:	cf 92       	push	r12
     7ca:	df 92       	push	r13
     7cc:	ef 92       	push	r14
     7ce:	ff 92       	push	r15
     7d0:	0f 93       	push	r16
     7d2:	1f 93       	push	r17
     7d4:	cf 93       	push	r28
     7d6:	df 93       	push	r29
     7d8:	6b 01       	movw	r12, r22
     7da:	7c 01       	movw	r14, r24
     7dc:	74 2e       	mov	r7, r20
     7de:	05 2f       	mov	r16, r21
     7e0:	c8 ed       	ldi	r28, 0xD8	; 216
     7e2:	d2 e2       	ldi	r29, 0x22	; 34
     7e4:	69 91       	ld	r22, Y+
     7e6:	70 e0       	ldi	r23, 0x00	; 0
     7e8:	80 e0       	ldi	r24, 0x00	; 0
     7ea:	90 e0       	ldi	r25, 0x00	; 0
     7ec:	0e 94 ba 0d 	call	0x1b74	; 0x1b74 <__floatunsisf>
     7f0:	20 e0       	ldi	r18, 0x00	; 0
     7f2:	30 e0       	ldi	r19, 0x00	; 0
     7f4:	4a e7       	ldi	r20, 0x7A	; 122
     7f6:	54 e4       	ldi	r21, 0x44	; 68
     7f8:	0e 94 26 0d 	call	0x1a4c	; 0x1a4c <__divsf3>
     7fc:	2c e5       	ldi	r18, 0x5C	; 92
     7fe:	3f e8       	ldi	r19, 0x8F	; 143
     800:	42 e0       	ldi	r20, 0x02	; 2
     802:	5f e3       	ldi	r21, 0x3F	; 63
     804:	0e 94 be 0c 	call	0x197c	; 0x197c <__addsf3>
     808:	4b 01       	movw	r8, r22
     80a:	5c 01       	movw	r10, r24
     80c:	14 e1       	ldi	r17, 0x14	; 20
     80e:	a7 01       	movw	r20, r14
     810:	96 01       	movw	r18, r12
     812:	c5 01       	movw	r24, r10
     814:	b4 01       	movw	r22, r8
     816:	0e 94 6c 0e 	call	0x1cd8	; 0x1cd8 <__gesf2>
     81a:	18 16       	cp	r1, r24
     81c:	1c f4       	brge	.+6      	; 0x824 <roundKeyGen+0x66>
     81e:	a5 01       	movw	r20, r10
     820:	94 01       	movw	r18, r8
     822:	14 c0       	rjmp	.+40     	; 0x84c <roundKeyGen+0x8e>
     824:	a7 01       	movw	r20, r14
     826:	96 01       	movw	r18, r12
     828:	60 e0       	ldi	r22, 0x00	; 0
     82a:	70 e0       	ldi	r23, 0x00	; 0
     82c:	80 e8       	ldi	r24, 0x80	; 128
     82e:	9f e3       	ldi	r25, 0x3F	; 63
     830:	0e 94 bd 0c 	call	0x197a	; 0x197a <__subsf3>
     834:	6b 01       	movw	r12, r22
     836:	7c 01       	movw	r14, r24
     838:	a5 01       	movw	r20, r10
     83a:	94 01       	movw	r18, r8
     83c:	60 e0       	ldi	r22, 0x00	; 0
     83e:	70 e0       	ldi	r23, 0x00	; 0
     840:	80 e8       	ldi	r24, 0x80	; 128
     842:	9f e3       	ldi	r25, 0x3F	; 63
     844:	0e 94 bd 0c 	call	0x197a	; 0x197a <__subsf3>
     848:	9b 01       	movw	r18, r22
     84a:	ac 01       	movw	r20, r24
     84c:	c7 01       	movw	r24, r14
     84e:	b6 01       	movw	r22, r12
     850:	0e 94 26 0d 	call	0x1a4c	; 0x1a4c <__divsf3>
     854:	6b 01       	movw	r12, r22
     856:	7c 01       	movw	r14, r24
     858:	11 50       	subi	r17, 0x01	; 1
     85a:	c9 f6       	brne	.-78     	; 0x80e <roundKeyGen+0x50>
     85c:	82 e2       	ldi	r24, 0x22	; 34
     85e:	c8 3e       	cpi	r28, 0xE8	; 232
     860:	d8 07       	cpc	r29, r24
     862:	09 f0       	breq	.+2      	; 0x866 <roundKeyGen+0xa8>
     864:	bf cf       	rjmp	.-130    	; 0x7e4 <roundKeyGen+0x26>
     866:	c7 2d       	mov	r28, r7
     868:	d0 2f       	mov	r29, r16
     86a:	8e 01       	movw	r16, r28
     86c:	00 5d       	subi	r16, 0xD0	; 208
     86e:	1f 4f       	sbci	r17, 0xFF	; 255
     870:	a7 01       	movw	r20, r14
     872:	96 01       	movw	r18, r12
     874:	c5 01       	movw	r24, r10
     876:	b4 01       	movw	r22, r8
     878:	0e 94 6c 0e 	call	0x1cd8	; 0x1cd8 <__gesf2>
     87c:	18 16       	cp	r1, r24
     87e:	1c f4       	brge	.+6      	; 0x886 <roundKeyGen+0xc8>
     880:	a5 01       	movw	r20, r10
     882:	94 01       	movw	r18, r8
     884:	14 c0       	rjmp	.+40     	; 0x8ae <roundKeyGen+0xf0>
     886:	a7 01       	movw	r20, r14
     888:	96 01       	movw	r18, r12
     88a:	60 e0       	ldi	r22, 0x00	; 0
     88c:	70 e0       	ldi	r23, 0x00	; 0
     88e:	80 e8       	ldi	r24, 0x80	; 128
     890:	9f e3       	ldi	r25, 0x3F	; 63
     892:	0e 94 bd 0c 	call	0x197a	; 0x197a <__subsf3>
     896:	6b 01       	movw	r12, r22
     898:	7c 01       	movw	r14, r24
     89a:	a5 01       	movw	r20, r10
     89c:	94 01       	movw	r18, r8
     89e:	60 e0       	ldi	r22, 0x00	; 0
     8a0:	70 e0       	ldi	r23, 0x00	; 0
     8a2:	80 e8       	ldi	r24, 0x80	; 128
     8a4:	9f e3       	ldi	r25, 0x3F	; 63
     8a6:	0e 94 bd 0c 	call	0x197a	; 0x197a <__subsf3>
     8aa:	9b 01       	movw	r18, r22
     8ac:	ac 01       	movw	r20, r24
     8ae:	c7 01       	movw	r24, r14
     8b0:	b6 01       	movw	r22, r12
     8b2:	0e 94 26 0d 	call	0x1a4c	; 0x1a4c <__divsf3>
     8b6:	6b 01       	movw	r12, r22
     8b8:	7c 01       	movw	r14, r24
     8ba:	20 e0       	ldi	r18, 0x00	; 0
     8bc:	30 e0       	ldi	r19, 0x00	; 0
     8be:	40 e8       	ldi	r20, 0x80	; 128
     8c0:	53 e4       	ldi	r21, 0x43	; 67
     8c2:	0e 94 70 0e 	call	0x1ce0	; 0x1ce0 <__mulsf3>
     8c6:	0e 94 8e 0d 	call	0x1b1c	; 0x1b1c <__fixunssfsi>
     8ca:	69 93       	st	Y+, r22
     8cc:	c0 17       	cp	r28, r16
     8ce:	d1 07       	cpc	r29, r17
     8d0:	79 f6       	brne	.-98     	; 0x870 <roundKeyGen+0xb2>
     8d2:	a7 01       	movw	r20, r14
     8d4:	96 01       	movw	r18, r12
     8d6:	c5 01       	movw	r24, r10
     8d8:	b4 01       	movw	r22, r8
     8da:	0e 94 6c 0e 	call	0x1cd8	; 0x1cd8 <__gesf2>
     8de:	18 16       	cp	r1, r24
     8e0:	1c f4       	brge	.+6      	; 0x8e8 <roundKeyGen+0x12a>
     8e2:	a5 01       	movw	r20, r10
     8e4:	94 01       	movw	r18, r8
     8e6:	14 c0       	rjmp	.+40     	; 0x910 <roundKeyGen+0x152>
     8e8:	a7 01       	movw	r20, r14
     8ea:	96 01       	movw	r18, r12
     8ec:	60 e0       	ldi	r22, 0x00	; 0
     8ee:	70 e0       	ldi	r23, 0x00	; 0
     8f0:	80 e8       	ldi	r24, 0x80	; 128
     8f2:	9f e3       	ldi	r25, 0x3F	; 63
     8f4:	0e 94 bd 0c 	call	0x197a	; 0x197a <__subsf3>
     8f8:	6b 01       	movw	r12, r22
     8fa:	7c 01       	movw	r14, r24
     8fc:	a5 01       	movw	r20, r10
     8fe:	94 01       	movw	r18, r8
     900:	60 e0       	ldi	r22, 0x00	; 0
     902:	70 e0       	ldi	r23, 0x00	; 0
     904:	80 e8       	ldi	r24, 0x80	; 128
     906:	9f e3       	ldi	r25, 0x3F	; 63
     908:	0e 94 bd 0c 	call	0x197a	; 0x197a <__subsf3>
     90c:	9b 01       	movw	r18, r22
     90e:	ac 01       	movw	r20, r24
     910:	c7 01       	movw	r24, r14
     912:	b6 01       	movw	r22, r12
     914:	0e 94 26 0d 	call	0x1a4c	; 0x1a4c <__divsf3>
     918:	60 93 18 22 	sts	0x2218, r22	; 0x802218 <__data_end>
     91c:	70 93 19 22 	sts	0x2219, r23	; 0x802219 <__data_end+0x1>
     920:	80 93 1a 22 	sts	0x221A, r24	; 0x80221a <__data_end+0x2>
     924:	90 93 1b 22 	sts	0x221B, r25	; 0x80221b <__data_end+0x3>
     928:	df 91       	pop	r29
     92a:	cf 91       	pop	r28
     92c:	1f 91       	pop	r17
     92e:	0f 91       	pop	r16
     930:	ff 90       	pop	r15
     932:	ef 90       	pop	r14
     934:	df 90       	pop	r13
     936:	cf 90       	pop	r12
     938:	bf 90       	pop	r11
     93a:	af 90       	pop	r10
     93c:	9f 90       	pop	r9
     93e:	8f 90       	pop	r8
     940:	7f 90       	pop	r7
     942:	08 95       	ret

00000944 <encryptionInit>:
     944:	48 ee       	ldi	r20, 0xE8	; 232
     946:	52 e2       	ldi	r21, 0x22	; 34
     948:	67 e6       	ldi	r22, 0x67	; 103
     94a:	74 e4       	ldi	r23, 0x44	; 68
     94c:	89 e1       	ldi	r24, 0x19	; 25
     94e:	9f e3       	ldi	r25, 0x3F	; 63
     950:	36 cf       	rjmp	.-404    	; 0x7be <roundKeyGen>

00000952 <mask_gen>:
     952:	8f 92       	push	r8
     954:	9f 92       	push	r9
     956:	af 92       	push	r10
     958:	bf 92       	push	r11
     95a:	cf 92       	push	r12
     95c:	df 92       	push	r13
     95e:	ef 92       	push	r14
     960:	ff 92       	push	r15
     962:	0f 93       	push	r16
     964:	1f 93       	push	r17
     966:	cf 93       	push	r28
     968:	df 93       	push	r29
     96a:	4b 01       	movw	r8, r22
     96c:	5c 01       	movw	r10, r24
     96e:	c8 e1       	ldi	r28, 0x18	; 24
     970:	d3 e2       	ldi	r29, 0x23	; 35
     972:	69 91       	ld	r22, Y+
     974:	70 e0       	ldi	r23, 0x00	; 0
     976:	80 e0       	ldi	r24, 0x00	; 0
     978:	90 e0       	ldi	r25, 0x00	; 0
     97a:	0e 94 bc 0d 	call	0x1b78	; 0x1b78 <__floatsisf>
     97e:	2f e6       	ldi	r18, 0x6F	; 111
     980:	32 e1       	ldi	r19, 0x12	; 18
     982:	43 e8       	ldi	r20, 0x83	; 131
     984:	5a e3       	ldi	r21, 0x3A	; 58
     986:	0e 94 70 0e 	call	0x1ce0	; 0x1ce0 <__mulsf3>
     98a:	2c e5       	ldi	r18, 0x5C	; 92
     98c:	3f e8       	ldi	r19, 0x8F	; 143
     98e:	42 e0       	ldi	r20, 0x02	; 2
     990:	5f e3       	ldi	r21, 0x3F	; 63
     992:	f4 d7       	rcall	.+4072   	; 0x197c <__addsf3>
     994:	6b 01       	movw	r12, r22
     996:	7c 01       	movw	r14, r24
     998:	15 e0       	ldi	r17, 0x05	; 5
     99a:	a5 01       	movw	r20, r10
     99c:	94 01       	movw	r18, r8
     99e:	c7 01       	movw	r24, r14
     9a0:	b6 01       	movw	r22, r12
     9a2:	0e 94 6c 0e 	call	0x1cd8	; 0x1cd8 <__gesf2>
     9a6:	18 16       	cp	r1, r24
     9a8:	1c f4       	brge	.+6      	; 0x9b0 <mask_gen+0x5e>
     9aa:	a7 01       	movw	r20, r14
     9ac:	96 01       	movw	r18, r12
     9ae:	12 c0       	rjmp	.+36     	; 0x9d4 <mask_gen+0x82>
     9b0:	a5 01       	movw	r20, r10
     9b2:	94 01       	movw	r18, r8
     9b4:	60 e0       	ldi	r22, 0x00	; 0
     9b6:	70 e0       	ldi	r23, 0x00	; 0
     9b8:	80 e8       	ldi	r24, 0x80	; 128
     9ba:	9f e3       	ldi	r25, 0x3F	; 63
     9bc:	de d7       	rcall	.+4028   	; 0x197a <__subsf3>
     9be:	4b 01       	movw	r8, r22
     9c0:	5c 01       	movw	r10, r24
     9c2:	a7 01       	movw	r20, r14
     9c4:	96 01       	movw	r18, r12
     9c6:	60 e0       	ldi	r22, 0x00	; 0
     9c8:	70 e0       	ldi	r23, 0x00	; 0
     9ca:	80 e8       	ldi	r24, 0x80	; 128
     9cc:	9f e3       	ldi	r25, 0x3F	; 63
     9ce:	d5 d7       	rcall	.+4010   	; 0x197a <__subsf3>
     9d0:	9b 01       	movw	r18, r22
     9d2:	ac 01       	movw	r20, r24
     9d4:	c5 01       	movw	r24, r10
     9d6:	b4 01       	movw	r22, r8
     9d8:	0e 94 26 0d 	call	0x1a4c	; 0x1a4c <__divsf3>
     9dc:	4b 01       	movw	r8, r22
     9de:	5c 01       	movw	r10, r24
     9e0:	11 50       	subi	r17, 0x01	; 1
     9e2:	d9 f6       	brne	.-74     	; 0x99a <mask_gen+0x48>
     9e4:	83 e2       	ldi	r24, 0x23	; 35
     9e6:	c8 32       	cpi	r28, 0x28	; 40
     9e8:	d8 07       	cpc	r29, r24
     9ea:	09 f0       	breq	.+2      	; 0x9ee <mask_gen+0x9c>
     9ec:	c2 cf       	rjmp	.-124    	; 0x972 <mask_gen+0x20>
     9ee:	a5 01       	movw	r20, r10
     9f0:	94 01       	movw	r18, r8
     9f2:	c7 01       	movw	r24, r14
     9f4:	b6 01       	movw	r22, r12
     9f6:	0e 94 6c 0e 	call	0x1cd8	; 0x1cd8 <__gesf2>
     9fa:	18 16       	cp	r1, r24
     9fc:	1c f4       	brge	.+6      	; 0xa04 <mask_gen+0xb2>
     9fe:	a7 01       	movw	r20, r14
     a00:	96 01       	movw	r18, r12
     a02:	12 c0       	rjmp	.+36     	; 0xa28 <mask_gen+0xd6>
     a04:	a5 01       	movw	r20, r10
     a06:	94 01       	movw	r18, r8
     a08:	60 e0       	ldi	r22, 0x00	; 0
     a0a:	70 e0       	ldi	r23, 0x00	; 0
     a0c:	80 e8       	ldi	r24, 0x80	; 128
     a0e:	9f e3       	ldi	r25, 0x3F	; 63
     a10:	b4 d7       	rcall	.+3944   	; 0x197a <__subsf3>
     a12:	4b 01       	movw	r8, r22
     a14:	5c 01       	movw	r10, r24
     a16:	a7 01       	movw	r20, r14
     a18:	96 01       	movw	r18, r12
     a1a:	60 e0       	ldi	r22, 0x00	; 0
     a1c:	70 e0       	ldi	r23, 0x00	; 0
     a1e:	80 e8       	ldi	r24, 0x80	; 128
     a20:	9f e3       	ldi	r25, 0x3F	; 63
     a22:	ab d7       	rcall	.+3926   	; 0x197a <__subsf3>
     a24:	9b 01       	movw	r18, r22
     a26:	ac 01       	movw	r20, r24
     a28:	c5 01       	movw	r24, r10
     a2a:	b4 01       	movw	r22, r8
     a2c:	0e 94 26 0d 	call	0x1a4c	; 0x1a4c <__divsf3>
     a30:	4b 01       	movw	r8, r22
     a32:	5c 01       	movw	r10, r24
     a34:	20 e0       	ldi	r18, 0x00	; 0
     a36:	30 e0       	ldi	r19, 0x00	; 0
     a38:	4f e7       	ldi	r20, 0x7F	; 127
     a3a:	53 e4       	ldi	r21, 0x43	; 67
     a3c:	0e 94 70 0e 	call	0x1ce0	; 0x1ce0 <__mulsf3>
     a40:	0e 94 8e 0d 	call	0x1b1c	; 0x1b1c <__fixunssfsi>
     a44:	60 93 28 23 	sts	0x2328, r22	; 0x802328 <s_mask_1>
     a48:	a5 01       	movw	r20, r10
     a4a:	94 01       	movw	r18, r8
     a4c:	c7 01       	movw	r24, r14
     a4e:	b6 01       	movw	r22, r12
     a50:	0e 94 6c 0e 	call	0x1cd8	; 0x1cd8 <__gesf2>
     a54:	18 16       	cp	r1, r24
     a56:	1c f4       	brge	.+6      	; 0xa5e <mask_gen+0x10c>
     a58:	a7 01       	movw	r20, r14
     a5a:	96 01       	movw	r18, r12
     a5c:	12 c0       	rjmp	.+36     	; 0xa82 <mask_gen+0x130>
     a5e:	a5 01       	movw	r20, r10
     a60:	94 01       	movw	r18, r8
     a62:	60 e0       	ldi	r22, 0x00	; 0
     a64:	70 e0       	ldi	r23, 0x00	; 0
     a66:	80 e8       	ldi	r24, 0x80	; 128
     a68:	9f e3       	ldi	r25, 0x3F	; 63
     a6a:	87 d7       	rcall	.+3854   	; 0x197a <__subsf3>
     a6c:	4b 01       	movw	r8, r22
     a6e:	5c 01       	movw	r10, r24
     a70:	a7 01       	movw	r20, r14
     a72:	96 01       	movw	r18, r12
     a74:	60 e0       	ldi	r22, 0x00	; 0
     a76:	70 e0       	ldi	r23, 0x00	; 0
     a78:	80 e8       	ldi	r24, 0x80	; 128
     a7a:	9f e3       	ldi	r25, 0x3F	; 63
     a7c:	7e d7       	rcall	.+3836   	; 0x197a <__subsf3>
     a7e:	9b 01       	movw	r18, r22
     a80:	ac 01       	movw	r20, r24
     a82:	c5 01       	movw	r24, r10
     a84:	b4 01       	movw	r22, r8
     a86:	e2 d7       	rcall	.+4036   	; 0x1a4c <__divsf3>
     a88:	4b 01       	movw	r8, r22
     a8a:	5c 01       	movw	r10, r24
     a8c:	20 e0       	ldi	r18, 0x00	; 0
     a8e:	30 e0       	ldi	r19, 0x00	; 0
     a90:	4f e7       	ldi	r20, 0x7F	; 127
     a92:	53 e4       	ldi	r21, 0x43	; 67
     a94:	0e 94 70 0e 	call	0x1ce0	; 0x1ce0 <__mulsf3>
     a98:	0e 94 8e 0d 	call	0x1b1c	; 0x1b1c <__fixunssfsi>
     a9c:	60 93 3a 24 	sts	0x243A, r22	; 0x80243a <s_mask_2>
     aa0:	c9 e2       	ldi	r28, 0x29	; 41
     aa2:	d3 e2       	ldi	r29, 0x23	; 35
     aa4:	09 e3       	ldi	r16, 0x39	; 57
     aa6:	13 e2       	ldi	r17, 0x23	; 35
     aa8:	a5 01       	movw	r20, r10
     aaa:	94 01       	movw	r18, r8
     aac:	c7 01       	movw	r24, r14
     aae:	b6 01       	movw	r22, r12
     ab0:	0e 94 6c 0e 	call	0x1cd8	; 0x1cd8 <__gesf2>
     ab4:	18 16       	cp	r1, r24
     ab6:	1c f4       	brge	.+6      	; 0xabe <mask_gen+0x16c>
     ab8:	a7 01       	movw	r20, r14
     aba:	96 01       	movw	r18, r12
     abc:	12 c0       	rjmp	.+36     	; 0xae2 <mask_gen+0x190>
     abe:	a5 01       	movw	r20, r10
     ac0:	94 01       	movw	r18, r8
     ac2:	60 e0       	ldi	r22, 0x00	; 0
     ac4:	70 e0       	ldi	r23, 0x00	; 0
     ac6:	80 e8       	ldi	r24, 0x80	; 128
     ac8:	9f e3       	ldi	r25, 0x3F	; 63
     aca:	57 d7       	rcall	.+3758   	; 0x197a <__subsf3>
     acc:	4b 01       	movw	r8, r22
     ace:	5c 01       	movw	r10, r24
     ad0:	a7 01       	movw	r20, r14
     ad2:	96 01       	movw	r18, r12
     ad4:	60 e0       	ldi	r22, 0x00	; 0
     ad6:	70 e0       	ldi	r23, 0x00	; 0
     ad8:	80 e8       	ldi	r24, 0x80	; 128
     ada:	9f e3       	ldi	r25, 0x3F	; 63
     adc:	4e d7       	rcall	.+3740   	; 0x197a <__subsf3>
     ade:	9b 01       	movw	r18, r22
     ae0:	ac 01       	movw	r20, r24
     ae2:	c5 01       	movw	r24, r10
     ae4:	b4 01       	movw	r22, r8
     ae6:	b2 d7       	rcall	.+3940   	; 0x1a4c <__divsf3>
     ae8:	4b 01       	movw	r8, r22
     aea:	5c 01       	movw	r10, r24
     aec:	20 e0       	ldi	r18, 0x00	; 0
     aee:	30 e0       	ldi	r19, 0x00	; 0
     af0:	4f e7       	ldi	r20, 0x7F	; 127
     af2:	53 e4       	ldi	r21, 0x43	; 67
     af4:	0e 94 70 0e 	call	0x1ce0	; 0x1ce0 <__mulsf3>
     af8:	0e 94 8e 0d 	call	0x1b1c	; 0x1b1c <__fixunssfsi>
     afc:	69 93       	st	Y+, r22
     afe:	0c 17       	cp	r16, r28
     b00:	1d 07       	cpc	r17, r29
     b02:	91 f6       	brne	.-92     	; 0xaa8 <mask_gen+0x156>
     b04:	a5 01       	movw	r20, r10
     b06:	94 01       	movw	r18, r8
     b08:	c7 01       	movw	r24, r14
     b0a:	b6 01       	movw	r22, r12
     b0c:	0e 94 6c 0e 	call	0x1cd8	; 0x1cd8 <__gesf2>
     b10:	18 16       	cp	r1, r24
     b12:	1c f4       	brge	.+6      	; 0xb1a <mask_gen+0x1c8>
     b14:	a7 01       	movw	r20, r14
     b16:	96 01       	movw	r18, r12
     b18:	12 c0       	rjmp	.+36     	; 0xb3e <mask_gen+0x1ec>
     b1a:	a5 01       	movw	r20, r10
     b1c:	94 01       	movw	r18, r8
     b1e:	60 e0       	ldi	r22, 0x00	; 0
     b20:	70 e0       	ldi	r23, 0x00	; 0
     b22:	80 e8       	ldi	r24, 0x80	; 128
     b24:	9f e3       	ldi	r25, 0x3F	; 63
     b26:	29 d7       	rcall	.+3666   	; 0x197a <__subsf3>
     b28:	4b 01       	movw	r8, r22
     b2a:	5c 01       	movw	r10, r24
     b2c:	a7 01       	movw	r20, r14
     b2e:	96 01       	movw	r18, r12
     b30:	60 e0       	ldi	r22, 0x00	; 0
     b32:	70 e0       	ldi	r23, 0x00	; 0
     b34:	80 e8       	ldi	r24, 0x80	; 128
     b36:	9f e3       	ldi	r25, 0x3F	; 63
     b38:	20 d7       	rcall	.+3648   	; 0x197a <__subsf3>
     b3a:	9b 01       	movw	r18, r22
     b3c:	ac 01       	movw	r20, r24
     b3e:	c5 01       	movw	r24, r10
     b40:	b4 01       	movw	r22, r8
     b42:	84 d7       	rcall	.+3848   	; 0x1a4c <__divsf3>
     b44:	4b 01       	movw	r8, r22
     b46:	5c 01       	movw	r10, r24
     b48:	20 e0       	ldi	r18, 0x00	; 0
     b4a:	30 e0       	ldi	r19, 0x00	; 0
     b4c:	4f e7       	ldi	r20, 0x7F	; 127
     b4e:	53 e4       	ldi	r21, 0x43	; 67
     b50:	0e 94 70 0e 	call	0x1ce0	; 0x1ce0 <__mulsf3>
     b54:	e3 d7       	rcall	.+4038   	; 0x1b1c <__fixunssfsi>
     b56:	60 93 3b 24 	sts	0x243B, r22	; 0x80243b <mul_mask_1>
     b5a:	a7 01       	movw	r20, r14
     b5c:	96 01       	movw	r18, r12
     b5e:	c5 01       	movw	r24, r10
     b60:	b4 01       	movw	r22, r8
     b62:	70 d7       	rcall	.+3808   	; 0x1a44 <__cmpsf2>
     b64:	87 ff       	sbrs	r24, 7
     b66:	03 c0       	rjmp	.+6      	; 0xb6e <mask_gen+0x21c>
     b68:	a7 01       	movw	r20, r14
     b6a:	96 01       	movw	r18, r12
     b6c:	12 c0       	rjmp	.+36     	; 0xb92 <mask_gen+0x240>
     b6e:	a5 01       	movw	r20, r10
     b70:	94 01       	movw	r18, r8
     b72:	60 e0       	ldi	r22, 0x00	; 0
     b74:	70 e0       	ldi	r23, 0x00	; 0
     b76:	80 e8       	ldi	r24, 0x80	; 128
     b78:	9f e3       	ldi	r25, 0x3F	; 63
     b7a:	ff d6       	rcall	.+3582   	; 0x197a <__subsf3>
     b7c:	4b 01       	movw	r8, r22
     b7e:	5c 01       	movw	r10, r24
     b80:	a7 01       	movw	r20, r14
     b82:	96 01       	movw	r18, r12
     b84:	60 e0       	ldi	r22, 0x00	; 0
     b86:	70 e0       	ldi	r23, 0x00	; 0
     b88:	80 e8       	ldi	r24, 0x80	; 128
     b8a:	9f e3       	ldi	r25, 0x3F	; 63
     b8c:	f6 d6       	rcall	.+3564   	; 0x197a <__subsf3>
     b8e:	9b 01       	movw	r18, r22
     b90:	ac 01       	movw	r20, r24
     b92:	c5 01       	movw	r24, r10
     b94:	b4 01       	movw	r22, r8
     b96:	5a d7       	rcall	.+3764   	; 0x1a4c <__divsf3>
     b98:	4b 01       	movw	r8, r22
     b9a:	5c 01       	movw	r10, r24
     b9c:	20 e0       	ldi	r18, 0x00	; 0
     b9e:	30 e0       	ldi	r19, 0x00	; 0
     ba0:	4f e7       	ldi	r20, 0x7F	; 127
     ba2:	53 e4       	ldi	r21, 0x43	; 67
     ba4:	0e 94 70 0e 	call	0x1ce0	; 0x1ce0 <__mulsf3>
     ba8:	b9 d7       	rcall	.+3954   	; 0x1b1c <__fixunssfsi>
     baa:	66 23       	and	r22, r22
     bac:	b1 f2       	breq	.-84     	; 0xb5a <mask_gen+0x208>
     bae:	60 93 39 24 	sts	0x2439, r22	; 0x802439 <mul_mask_2>
     bb2:	df 91       	pop	r29
     bb4:	cf 91       	pop	r28
     bb6:	1f 91       	pop	r17
     bb8:	0f 91       	pop	r16
     bba:	ff 90       	pop	r15
     bbc:	ef 90       	pop	r14
     bbe:	df 90       	pop	r13
     bc0:	cf 90       	pop	r12
     bc2:	bf 90       	pop	r11
     bc4:	af 90       	pop	r10
     bc6:	9f 90       	pop	r9
     bc8:	8f 90       	pop	r8
     bca:	08 95       	ret

00000bcc <cons_sbox>:
     bcc:	a7 e1       	ldi	r26, 0x17	; 23
     bce:	b1 e2       	ldi	r27, 0x21	; 33
     bd0:	20 e0       	ldi	r18, 0x00	; 0
     bd2:	30 e0       	ldi	r19, 0x00	; 0
     bd4:	48 2f       	mov	r20, r24
     bd6:	50 e0       	ldi	r21, 0x00	; 0
     bd8:	9d 91       	ld	r25, X+
     bda:	fa 01       	movw	r30, r20
     bdc:	e2 27       	eor	r30, r18
     bde:	f3 27       	eor	r31, r19
     be0:	e7 5c       	subi	r30, 0xC7	; 199
     be2:	fc 4d       	sbci	r31, 0xDC	; 220
     be4:	96 27       	eor	r25, r22
     be6:	90 83       	st	Z, r25
     be8:	2f 5f       	subi	r18, 0xFF	; 255
     bea:	3f 4f       	sbci	r19, 0xFF	; 255
     bec:	21 15       	cp	r18, r1
     bee:	81 e0       	ldi	r24, 0x01	; 1
     bf0:	38 07       	cpc	r19, r24
     bf2:	91 f7       	brne	.-28     	; 0xbd8 <cons_sbox+0xc>
     bf4:	08 95       	ret

00000bf6 <mask_all>:
     bf6:	fc 01       	movw	r30, r24
     bf8:	9c 01       	movw	r18, r24
     bfa:	20 5f       	subi	r18, 0xF0	; 240
     bfc:	3f 4f       	sbci	r19, 0xFF	; 255
     bfe:	80 81       	ld	r24, Z
     c00:	86 27       	eor	r24, r22
     c02:	81 93       	st	Z+, r24
     c04:	e2 17       	cp	r30, r18
     c06:	f3 07       	cpc	r31, r19
     c08:	d1 f7       	brne	.-12     	; 0xbfe <mask_all+0x8>
     c0a:	08 95       	ret

00000c0c <addroundkey>:
     c0c:	fc 01       	movw	r30, r24
     c0e:	9c 01       	movw	r18, r24
     c10:	20 5f       	subi	r18, 0xF0	; 240
     c12:	3f 4f       	sbci	r19, 0xFF	; 255
     c14:	db 01       	movw	r26, r22
     c16:	8d 91       	ld	r24, X+
     c18:	bd 01       	movw	r22, r26
     c1a:	90 81       	ld	r25, Z
     c1c:	89 27       	eor	r24, r25
     c1e:	81 93       	st	Z+, r24
     c20:	e2 17       	cp	r30, r18
     c22:	f3 07       	cpc	r31, r19
     c24:	b9 f7       	brne	.-18     	; 0xc14 <addroundkey+0x8>
     c26:	08 95       	ret

00000c28 <getboxvalue>:
     c28:	fc 01       	movw	r30, r24
     c2a:	40 96       	adiw	r24, 0x10	; 16
     c2c:	20 81       	ld	r18, Z
     c2e:	db 01       	movw	r26, r22
     c30:	a2 0f       	add	r26, r18
     c32:	b1 1d       	adc	r27, r1
     c34:	2c 91       	ld	r18, X
     c36:	21 93       	st	Z+, r18
     c38:	8e 17       	cp	r24, r30
     c3a:	9f 07       	cpc	r25, r31
     c3c:	b9 f7       	brne	.-18     	; 0xc2c <getboxvalue+0x4>
     c3e:	08 95       	ret

00000c40 <XTIME>:
     c40:	28 2f       	mov	r18, r24
     c42:	30 e0       	ldi	r19, 0x00	; 0
     c44:	22 0f       	add	r18, r18
     c46:	33 1f       	adc	r19, r19
     c48:	87 fd       	sbrc	r24, 7
     c4a:	02 c0       	rjmp	.+4      	; 0xc50 <XTIME+0x10>
     c4c:	80 e0       	ldi	r24, 0x00	; 0
     c4e:	01 c0       	rjmp	.+2      	; 0xc52 <XTIME+0x12>
     c50:	8b e1       	ldi	r24, 0x1B	; 27
     c52:	82 27       	eor	r24, r18
     c54:	08 95       	ret

00000c56 <multiply>:
     c56:	cf 92       	push	r12
     c58:	df 92       	push	r13
     c5a:	ef 92       	push	r14
     c5c:	ff 92       	push	r15
     c5e:	0f 93       	push	r16
     c60:	1f 93       	push	r17
     c62:	cf 93       	push	r28
     c64:	df 93       	push	r29
     c66:	cd b7       	in	r28, 0x3d	; 61
     c68:	de b7       	in	r29, 0x3e	; 62
     c6a:	28 97       	sbiw	r28, 0x08	; 8
     c6c:	cd bf       	out	0x3d, r28	; 61
     c6e:	de bf       	out	0x3e, r29	; 62
     c70:	e8 2e       	mov	r14, r24
     c72:	f6 2e       	mov	r15, r22
     c74:	fe 01       	movw	r30, r28
     c76:	31 96       	adiw	r30, 0x01	; 1
     c78:	88 e0       	ldi	r24, 0x08	; 8
     c7a:	df 01       	movw	r26, r30
     c7c:	1d 92       	st	X+, r1
     c7e:	8a 95       	dec	r24
     c80:	e9 f7       	brne	.-6      	; 0xc7c <multiply+0x26>
     c82:	e9 82       	std	Y+1, r14	; 0x01
     c84:	8f 01       	movw	r16, r30
     c86:	6e 01       	movw	r12, r28
     c88:	b8 e0       	ldi	r27, 0x08	; 8
     c8a:	cb 0e       	add	r12, r27
     c8c:	d1 1c       	adc	r13, r1
     c8e:	f8 01       	movw	r30, r16
     c90:	81 91       	ld	r24, Z+
     c92:	8f 01       	movw	r16, r30
     c94:	d5 df       	rcall	.-86     	; 0xc40 <XTIME>
     c96:	d8 01       	movw	r26, r16
     c98:	8c 93       	st	X, r24
     c9a:	c0 16       	cp	r12, r16
     c9c:	d1 06       	cpc	r13, r17
     c9e:	b9 f7       	brne	.-18     	; 0xc8e <multiply+0x38>
     ca0:	8f 2d       	mov	r24, r15
     ca2:	81 70       	andi	r24, 0x01	; 1
     ca4:	8e 9d       	mul	r24, r14
     ca6:	80 2d       	mov	r24, r0
     ca8:	11 24       	eor	r1, r1
     caa:	fe 01       	movw	r30, r28
     cac:	32 96       	adiw	r30, 0x02	; 2
     cae:	41 e0       	ldi	r20, 0x01	; 1
     cb0:	50 e0       	ldi	r21, 0x00	; 0
     cb2:	6f 2d       	mov	r22, r15
     cb4:	70 e0       	ldi	r23, 0x00	; 0
     cb6:	91 91       	ld	r25, Z+
     cb8:	9b 01       	movw	r18, r22
     cba:	04 2e       	mov	r0, r20
     cbc:	02 c0       	rjmp	.+4      	; 0xcc2 <multiply+0x6c>
     cbe:	35 95       	asr	r19
     cc0:	27 95       	ror	r18
     cc2:	0a 94       	dec	r0
     cc4:	e2 f7       	brpl	.-8      	; 0xcbe <multiply+0x68>
     cc6:	21 70       	andi	r18, 0x01	; 1
     cc8:	29 9f       	mul	r18, r25
     cca:	20 2d       	mov	r18, r0
     ccc:	11 24       	eor	r1, r1
     cce:	82 27       	eor	r24, r18
     cd0:	4f 5f       	subi	r20, 0xFF	; 255
     cd2:	5f 4f       	sbci	r21, 0xFF	; 255
     cd4:	48 30       	cpi	r20, 0x08	; 8
     cd6:	51 05       	cpc	r21, r1
     cd8:	71 f7       	brne	.-36     	; 0xcb6 <multiply+0x60>
     cda:	28 96       	adiw	r28, 0x08	; 8
     cdc:	cd bf       	out	0x3d, r28	; 61
     cde:	de bf       	out	0x3e, r29	; 62
     ce0:	df 91       	pop	r29
     ce2:	cf 91       	pop	r28
     ce4:	1f 91       	pop	r17
     ce6:	0f 91       	pop	r16
     ce8:	ff 90       	pop	r15
     cea:	ef 90       	pop	r14
     cec:	df 90       	pop	r13
     cee:	cf 90       	pop	r12
     cf0:	08 95       	ret

00000cf2 <diffusionmodule>:
     cf2:	7f 92       	push	r7
     cf4:	8f 92       	push	r8
     cf6:	9f 92       	push	r9
     cf8:	af 92       	push	r10
     cfa:	bf 92       	push	r11
     cfc:	cf 92       	push	r12
     cfe:	df 92       	push	r13
     d00:	ef 92       	push	r14
     d02:	ff 92       	push	r15
     d04:	0f 93       	push	r16
     d06:	1f 93       	push	r17
     d08:	cf 93       	push	r28
     d0a:	df 93       	push	r29
     d0c:	cd b7       	in	r28, 0x3d	; 61
     d0e:	de b7       	in	r29, 0x3e	; 62
     d10:	a0 97       	sbiw	r28, 0x20	; 32
     d12:	cd bf       	out	0x3d, r28	; 61
     d14:	de bf       	out	0x3e, r29	; 62
     d16:	80 91 29 23 	lds	r24, 0x2329	; 0x802329 <add_mask>
     d1a:	89 8b       	std	Y+17, r24	; 0x11
     d1c:	70 90 39 24 	lds	r7, 0x2439	; 0x802439 <mul_mask_2>
     d20:	78 8a       	std	Y+16, r7	; 0x10
     d22:	a9 e2       	ldi	r26, 0x29	; 41
     d24:	b3 e2       	ldi	r27, 0x23	; 35
     d26:	98 e1       	ldi	r25, 0x18	; 24
     d28:	e9 2e       	mov	r14, r25
     d2a:	93 e2       	ldi	r25, 0x23	; 35
     d2c:	f9 2e       	mov	r15, r25
     d2e:	f7 01       	movw	r30, r14
     d30:	8d 91       	ld	r24, X+
     d32:	90 81       	ld	r25, Z
     d34:	89 27       	eor	r24, r25
     d36:	81 93       	st	Z+, r24
     d38:	83 e2       	ldi	r24, 0x23	; 35
     d3a:	e8 32       	cpi	r30, 0x28	; 40
     d3c:	f8 07       	cpc	r31, r24
     d3e:	c1 f7       	brne	.-16     	; 0xd30 <diffusionmodule+0x3e>
     d40:	90 91 3a 24 	lds	r25, 0x243A	; 0x80243a <s_mask_2>
     d44:	e8 e1       	ldi	r30, 0x18	; 24
     d46:	f3 e2       	ldi	r31, 0x23	; 35
     d48:	80 81       	ld	r24, Z
     d4a:	89 27       	eor	r24, r25
     d4c:	81 93       	st	Z+, r24
     d4e:	a3 e2       	ldi	r26, 0x23	; 35
     d50:	e8 32       	cpi	r30, 0x28	; 40
     d52:	fa 07       	cpc	r31, r26
     d54:	c9 f7       	brne	.-14     	; 0xd48 <diffusionmodule+0x56>
     d56:	4a e2       	ldi	r20, 0x2A	; 42
     d58:	53 e2       	ldi	r21, 0x23	; 35
     d5a:	8e 01       	movw	r16, r28
     d5c:	0f 5e       	subi	r16, 0xEF	; 239
     d5e:	1f 4f       	sbci	r17, 0xFF	; 255
     d60:	c8 01       	movw	r24, r16
     d62:	a8 e1       	ldi	r26, 0x18	; 24
     d64:	b3 e2       	ldi	r27, 0x23	; 35
     d66:	21 e0       	ldi	r18, 0x01	; 1
     d68:	11 96       	adiw	r26, 0x01	; 1
     d6a:	6c 91       	ld	r22, X
     d6c:	11 97       	sbiw	r26, 0x01	; 1
     d6e:	3c 91       	ld	r19, X
     d70:	36 27       	eor	r19, r22
     d72:	11 96       	adiw	r26, 0x01	; 1
     d74:	3c 93       	st	X, r19
     d76:	11 97       	sbiw	r26, 0x01	; 1
     d78:	fa 01       	movw	r30, r20
     d7a:	31 91       	ld	r19, Z+
     d7c:	af 01       	movw	r20, r30
     d7e:	fc 01       	movw	r30, r24
     d80:	60 81       	ld	r22, Z
     d82:	36 27       	eor	r19, r22
     d84:	31 83       	std	Z+1, r19	; 0x01
     d86:	2f 5f       	subi	r18, 0xFF	; 255
     d88:	11 96       	adiw	r26, 0x01	; 1
     d8a:	01 96       	adiw	r24, 0x01	; 1
     d8c:	20 31       	cpi	r18, 0x10	; 16
     d8e:	61 f7       	brne	.-40     	; 0xd68 <diffusionmodule+0x76>
     d90:	80 91 3b 24 	lds	r24, 0x243B	; 0x80243b <mul_mask_1>
     d94:	9e 01       	movw	r18, r28
     d96:	2f 5d       	subi	r18, 0xDF	; 223
     d98:	3f 4f       	sbci	r19, 0xFF	; 255
     d9a:	a8 e1       	ldi	r26, 0x18	; 24
     d9c:	b3 e2       	ldi	r27, 0x23	; 35
     d9e:	f8 01       	movw	r30, r16
     da0:	90 81       	ld	r25, Z
     da2:	98 27       	eor	r25, r24
     da4:	91 93       	st	Z+, r25
     da6:	8f 01       	movw	r16, r30
     da8:	4c 91       	ld	r20, X
     daa:	94 27       	eor	r25, r20
     dac:	9d 93       	st	X+, r25
     dae:	2e 17       	cp	r18, r30
     db0:	3f 07       	cpc	r19, r31
     db2:	a9 f7       	brne	.-22     	; 0xd9e <diffusionmodule+0xac>
     db4:	67 2d       	mov	r22, r7
     db6:	4f df       	rcall	.-354    	; 0xc56 <multiply>
     db8:	d8 2e       	mov	r13, r24
     dba:	08 e1       	ldi	r16, 0x18	; 24
     dbc:	13 e2       	ldi	r17, 0x23	; 35
     dbe:	67 2d       	mov	r22, r7
     dc0:	d8 01       	movw	r26, r16
     dc2:	8c 91       	ld	r24, X
     dc4:	48 df       	rcall	.-368    	; 0xc56 <multiply>
     dc6:	8d 25       	eor	r24, r13
     dc8:	f8 01       	movw	r30, r16
     dca:	81 93       	st	Z+, r24
     dcc:	8f 01       	movw	r16, r30
     dce:	f3 e2       	ldi	r31, 0x23	; 35
     dd0:	08 32       	cpi	r16, 0x28	; 40
     dd2:	1f 07       	cpc	r17, r31
     dd4:	a1 f7       	brne	.-24     	; 0xdbe <diffusionmodule+0xcc>
     dd6:	ce 01       	movw	r24, r28
     dd8:	01 96       	adiw	r24, 0x01	; 1
     dda:	6c 01       	movw	r12, r24
     ddc:	4e 01       	movw	r8, r28
     dde:	9e e0       	ldi	r25, 0x0E	; 14
     de0:	89 1a       	sub	r8, r25
     de2:	91 08       	sbc	r9, r1
     de4:	86 01       	movw	r16, r12
     de6:	88 e1       	ldi	r24, 0x18	; 24
     de8:	a8 2e       	mov	r10, r24
     dea:	83 e2       	ldi	r24, 0x23	; 35
     dec:	b8 2e       	mov	r11, r24
     dee:	d5 01       	movw	r26, r10
     df0:	1f 96       	adiw	r26, 0x0f	; 15
     df2:	8c 91       	ld	r24, X
     df4:	81 11       	cpse	r24, r1
     df6:	03 c0       	rjmp	.+6      	; 0xdfe <diffusionmodule+0x10c>
     df8:	f8 01       	movw	r30, r16
     dfa:	76 86       	std	Z+14, r7	; 0x0e
     dfc:	0d c0       	rjmp	.+26     	; 0xe18 <diffusionmodule+0x126>
     dfe:	d5 01       	movw	r26, r10
     e00:	1e 96       	adiw	r26, 0x0e	; 14
     e02:	6c 91       	ld	r22, X
     e04:	28 df       	rcall	.-432    	; 0xc56 <multiply>
     e06:	f5 01       	movw	r30, r10
     e08:	86 87       	std	Z+14, r24	; 0x0e
     e0a:	d8 01       	movw	r26, r16
     e0c:	1f 96       	adiw	r26, 0x0f	; 15
     e0e:	6c 91       	ld	r22, X
     e10:	87 2d       	mov	r24, r7
     e12:	21 df       	rcall	.-446    	; 0xc56 <multiply>
     e14:	f8 01       	movw	r30, r16
     e16:	86 87       	std	Z+14, r24	; 0x0e
     e18:	f1 e0       	ldi	r31, 0x01	; 1
     e1a:	af 1a       	sub	r10, r31
     e1c:	b1 08       	sbc	r11, r1
     e1e:	01 50       	subi	r16, 0x01	; 1
     e20:	11 09       	sbc	r17, r1
     e22:	08 15       	cp	r16, r8
     e24:	19 05       	cpc	r17, r9
     e26:	19 f7       	brne	.-58     	; 0xdee <diffusionmodule+0xfc>
     e28:	00 91 28 23 	lds	r16, 0x2328	; 0x802328 <s_mask_1>
     e2c:	d6 01       	movw	r26, r12
     e2e:	1d 91       	ld	r17, X+
     e30:	6d 01       	movw	r12, r26
     e32:	61 2f       	mov	r22, r17
     e34:	80 2f       	mov	r24, r16
     e36:	0f df       	rcall	.-482    	; 0xc56 <multiply>
     e38:	e1 2f       	mov	r30, r17
     e3a:	f0 e0       	ldi	r31, 0x00	; 0
     e3c:	e9 5e       	subi	r30, 0xE9	; 233
     e3e:	ff 4d       	sbci	r31, 0xDF	; 223
     e40:	d7 01       	movw	r26, r14
     e42:	9c 91       	ld	r25, X
     e44:	60 81       	ld	r22, Z
     e46:	89 27       	eor	r24, r25
     e48:	06 df       	rcall	.-500    	; 0xc56 <multiply>
     e4a:	f7 01       	movw	r30, r14
     e4c:	81 93       	st	Z+, r24
     e4e:	7f 01       	movw	r14, r30
     e50:	f8 e2       	ldi	r31, 0x28	; 40
     e52:	ef 16       	cp	r14, r31
     e54:	f3 e2       	ldi	r31, 0x23	; 35
     e56:	ff 06       	cpc	r15, r31
     e58:	49 f7       	brne	.-46     	; 0xe2c <diffusionmodule+0x13a>
     e5a:	a0 96       	adiw	r28, 0x20	; 32
     e5c:	cd bf       	out	0x3d, r28	; 61
     e5e:	de bf       	out	0x3e, r29	; 62
     e60:	df 91       	pop	r29
     e62:	cf 91       	pop	r28
     e64:	1f 91       	pop	r17
     e66:	0f 91       	pop	r16
     e68:	ff 90       	pop	r15
     e6a:	ef 90       	pop	r14
     e6c:	df 90       	pop	r13
     e6e:	cf 90       	pop	r12
     e70:	bf 90       	pop	r11
     e72:	af 90       	pop	r10
     e74:	9f 90       	pop	r9
     e76:	8f 90       	pop	r8
     e78:	7f 90       	pop	r7
     e7a:	08 95       	ret

00000e7c <catmap>:
     e7c:	2f 92       	push	r2
     e7e:	3f 92       	push	r3
     e80:	4f 92       	push	r4
     e82:	5f 92       	push	r5
     e84:	6f 92       	push	r6
     e86:	7f 92       	push	r7
     e88:	8f 92       	push	r8
     e8a:	9f 92       	push	r9
     e8c:	af 92       	push	r10
     e8e:	bf 92       	push	r11
     e90:	cf 92       	push	r12
     e92:	df 92       	push	r13
     e94:	ef 92       	push	r14
     e96:	ff 92       	push	r15
     e98:	0f 93       	push	r16
     e9a:	1f 93       	push	r17
     e9c:	cf 93       	push	r28
     e9e:	df 93       	push	r29
     ea0:	cd b7       	in	r28, 0x3d	; 61
     ea2:	de b7       	in	r29, 0x3e	; 62
     ea4:	61 97       	sbiw	r28, 0x11	; 17
     ea6:	cd bf       	out	0x3d, r28	; 61
     ea8:	de bf       	out	0x3e, r29	; 62
     eaa:	dc 01       	movw	r26, r24
     eac:	6e 01       	movw	r12, r28
     eae:	81 e1       	ldi	r24, 0x11	; 17
     eb0:	c8 0e       	add	r12, r24
     eb2:	d1 1c       	adc	r13, r1
     eb4:	66 23       	and	r22, r22
     eb6:	09 f4       	brne	.+2      	; 0xeba <catmap+0x3e>
     eb8:	80 c0       	rjmp	.+256    	; 0xfba <catmap+0x13e>
     eba:	f8 89       	ldd	r31, Y+16	; 0x10
     ebc:	f9 8b       	std	Y+17, r31	; 0x11
     ebe:	69 80       	ldd	r6, Y+1	; 0x01
     ec0:	7a 80       	ldd	r7, Y+2	; 0x02
     ec2:	8b 80       	ldd	r8, Y+3	; 0x03
     ec4:	9c 80       	ldd	r9, Y+4	; 0x04
     ec6:	ad 80       	ldd	r10, Y+5	; 0x05
     ec8:	be 80       	ldd	r11, Y+6	; 0x06
     eca:	ef 80       	ldd	r14, Y+7	; 0x07
     ecc:	f8 84       	ldd	r15, Y+8	; 0x08
     ece:	09 85       	ldd	r16, Y+9	; 0x09
     ed0:	1a 85       	ldd	r17, Y+10	; 0x0a
     ed2:	7b 85       	ldd	r23, Y+11	; 0x0b
     ed4:	5c 85       	ldd	r21, Y+12	; 0x0c
     ed6:	4d 85       	ldd	r20, Y+13	; 0x0d
     ed8:	3e 85       	ldd	r19, Y+14	; 0x0e
     eda:	2f 85       	ldd	r18, Y+15	; 0x0f
     edc:	90 e0       	ldi	r25, 0x00	; 0
     ede:	29 2e       	mov	r2, r25
     ee0:	31 2c       	mov	r3, r1
     ee2:	f1 01       	movw	r30, r2
     ee4:	31 97       	sbiw	r30, 0x01	; 1
     ee6:	ef 30       	cpi	r30, 0x0F	; 15
     ee8:	f1 05       	cpc	r31, r1
     eea:	28 f4       	brcc	.+10     	; 0xef6 <catmap+0x7a>
     eec:	88 27       	eor	r24, r24
     eee:	ea 54       	subi	r30, 0x4A	; 74
     ef0:	ff 4f       	sbci	r31, 0xFF	; 255
     ef2:	8f 4f       	sbci	r24, 0xFF	; 255
     ef4:	8e c7       	rjmp	.+3868   	; 0x1e12 <__tablejump2__>
     ef6:	6c 90       	ld	r6, X
     ef8:	3c c0       	rjmp	.+120    	; 0xf72 <catmap+0xf6>
     efa:	1e 96       	adiw	r26, 0x0e	; 14
     efc:	7c 90       	ld	r7, X
     efe:	1e 97       	sbiw	r26, 0x0e	; 14
     f00:	38 c0       	rjmp	.+112    	; 0xf72 <catmap+0xf6>
     f02:	18 96       	adiw	r26, 0x08	; 8
     f04:	8c 90       	ld	r8, X
     f06:	18 97       	sbiw	r26, 0x08	; 8
     f08:	34 c0       	rjmp	.+104    	; 0xf72 <catmap+0xf6>
     f0a:	16 96       	adiw	r26, 0x06	; 6
     f0c:	9c 90       	ld	r9, X
     f0e:	16 97       	sbiw	r26, 0x06	; 6
     f10:	30 c0       	rjmp	.+96     	; 0xf72 <catmap+0xf6>
     f12:	17 96       	adiw	r26, 0x07	; 7
     f14:	ac 90       	ld	r10, X
     f16:	17 97       	sbiw	r26, 0x07	; 7
     f18:	2c c0       	rjmp	.+88     	; 0xf72 <catmap+0xf6>
     f1a:	11 96       	adiw	r26, 0x01	; 1
     f1c:	bc 90       	ld	r11, X
     f1e:	11 97       	sbiw	r26, 0x01	; 1
     f20:	28 c0       	rjmp	.+80     	; 0xf72 <catmap+0xf6>
     f22:	1f 96       	adiw	r26, 0x0f	; 15
     f24:	ec 90       	ld	r14, X
     f26:	1f 97       	sbiw	r26, 0x0f	; 15
     f28:	24 c0       	rjmp	.+72     	; 0xf72 <catmap+0xf6>
     f2a:	19 96       	adiw	r26, 0x09	; 9
     f2c:	fc 90       	ld	r15, X
     f2e:	19 97       	sbiw	r26, 0x09	; 9
     f30:	20 c0       	rjmp	.+64     	; 0xf72 <catmap+0xf6>
     f32:	1a 96       	adiw	r26, 0x0a	; 10
     f34:	0c 91       	ld	r16, X
     f36:	1a 97       	sbiw	r26, 0x0a	; 10
     f38:	1c c0       	rjmp	.+56     	; 0xf72 <catmap+0xf6>
     f3a:	14 96       	adiw	r26, 0x04	; 4
     f3c:	1c 91       	ld	r17, X
     f3e:	14 97       	sbiw	r26, 0x04	; 4
     f40:	18 c0       	rjmp	.+48     	; 0xf72 <catmap+0xf6>
     f42:	12 96       	adiw	r26, 0x02	; 2
     f44:	7c 91       	ld	r23, X
     f46:	12 97       	sbiw	r26, 0x02	; 2
     f48:	14 c0       	rjmp	.+40     	; 0xf72 <catmap+0xf6>
     f4a:	1c 96       	adiw	r26, 0x0c	; 12
     f4c:	5c 91       	ld	r21, X
     f4e:	1c 97       	sbiw	r26, 0x0c	; 12
     f50:	10 c0       	rjmp	.+32     	; 0xf72 <catmap+0xf6>
     f52:	1d 96       	adiw	r26, 0x0d	; 13
     f54:	4c 91       	ld	r20, X
     f56:	1d 97       	sbiw	r26, 0x0d	; 13
     f58:	0c c0       	rjmp	.+24     	; 0xf72 <catmap+0xf6>
     f5a:	1b 96       	adiw	r26, 0x0b	; 11
     f5c:	3c 91       	ld	r19, X
     f5e:	1b 97       	sbiw	r26, 0x0b	; 11
     f60:	08 c0       	rjmp	.+16     	; 0xf72 <catmap+0xf6>
     f62:	15 96       	adiw	r26, 0x05	; 5
     f64:	2c 91       	ld	r18, X
     f66:	15 97       	sbiw	r26, 0x05	; 5
     f68:	04 c0       	rjmp	.+8      	; 0xf72 <catmap+0xf6>
     f6a:	13 96       	adiw	r26, 0x03	; 3
     f6c:	ec 91       	ld	r30, X
     f6e:	13 97       	sbiw	r26, 0x03	; 3
     f70:	e9 8b       	std	Y+17, r30	; 0x11
     f72:	9f 5f       	subi	r25, 0xFF	; 255
     f74:	90 31       	cpi	r25, 0x10	; 16
     f76:	09 f0       	breq	.+2      	; 0xf7a <catmap+0xfe>
     f78:	b2 cf       	rjmp	.-156    	; 0xede <catmap+0x62>
     f7a:	69 82       	std	Y+1, r6	; 0x01
     f7c:	7a 82       	std	Y+2, r7	; 0x02
     f7e:	8b 82       	std	Y+3, r8	; 0x03
     f80:	9c 82       	std	Y+4, r9	; 0x04
     f82:	ad 82       	std	Y+5, r10	; 0x05
     f84:	be 82       	std	Y+6, r11	; 0x06
     f86:	ef 82       	std	Y+7, r14	; 0x07
     f88:	f8 86       	std	Y+8, r15	; 0x08
     f8a:	1a 87       	std	Y+10, r17	; 0x0a
     f8c:	7b 87       	std	Y+11, r23	; 0x0b
     f8e:	5c 87       	std	Y+12, r21	; 0x0c
     f90:	4d 87       	std	Y+13, r20	; 0x0d
     f92:	3e 87       	std	Y+14, r19	; 0x0e
     f94:	2f 87       	std	Y+15, r18	; 0x0f
     f96:	f9 89       	ldd	r31, Y+17	; 0x11
     f98:	f8 8b       	std	Y+16, r31	; 0x10
     f9a:	09 87       	std	Y+9, r16	; 0x09
     f9c:	ae 01       	movw	r20, r28
     f9e:	4f 5f       	subi	r20, 0xFF	; 255
     fa0:	5f 4f       	sbci	r21, 0xFF	; 255
     fa2:	cd 01       	movw	r24, r26
     fa4:	fa 01       	movw	r30, r20
     fa6:	21 91       	ld	r18, Z+
     fa8:	af 01       	movw	r20, r30
     faa:	fc 01       	movw	r30, r24
     fac:	21 93       	st	Z+, r18
     fae:	cf 01       	movw	r24, r30
     fb0:	4c 15       	cp	r20, r12
     fb2:	5d 05       	cpc	r21, r13
     fb4:	b9 f7       	brne	.-18     	; 0xfa4 <catmap+0x128>
     fb6:	61 50       	subi	r22, 0x01	; 1
     fb8:	7d cf       	rjmp	.-262    	; 0xeb4 <catmap+0x38>
     fba:	61 96       	adiw	r28, 0x11	; 17
     fbc:	cd bf       	out	0x3d, r28	; 61
     fbe:	de bf       	out	0x3e, r29	; 62
     fc0:	df 91       	pop	r29
     fc2:	cf 91       	pop	r28
     fc4:	1f 91       	pop	r17
     fc6:	0f 91       	pop	r16
     fc8:	ff 90       	pop	r15
     fca:	ef 90       	pop	r14
     fcc:	df 90       	pop	r13
     fce:	cf 90       	pop	r12
     fd0:	bf 90       	pop	r11
     fd2:	af 90       	pop	r10
     fd4:	9f 90       	pop	r9
     fd6:	8f 90       	pop	r8
     fd8:	7f 90       	pop	r7
     fda:	6f 90       	pop	r6
     fdc:	5f 90       	pop	r5
     fde:	4f 90       	pop	r4
     fe0:	3f 90       	pop	r3
     fe2:	2f 90       	pop	r2
     fe4:	08 95       	ret

00000fe6 <encryption>:
     fe6:	ef 92       	push	r14
     fe8:	ff 92       	push	r15
     fea:	0f 93       	push	r16
     fec:	1f 93       	push	r17
     fee:	cf 93       	push	r28
     ff0:	df 93       	push	r29
     ff2:	7c 01       	movw	r14, r24
     ff4:	08 e1       	ldi	r16, 0x18	; 24
     ff6:	13 e2       	ldi	r17, 0x23	; 35
     ff8:	f8 01       	movw	r30, r16
     ffa:	db 01       	movw	r26, r22
     ffc:	8d 91       	ld	r24, X+
     ffe:	bd 01       	movw	r22, r26
    1000:	81 93       	st	Z+, r24
    1002:	b3 e2       	ldi	r27, 0x23	; 35
    1004:	e8 32       	cpi	r30, 0x28	; 40
    1006:	fb 07       	cpc	r31, r27
    1008:	c1 f7       	brne	.-16     	; 0xffa <encryption+0x14>
    100a:	60 91 18 22 	lds	r22, 0x2218	; 0x802218 <__data_end>
    100e:	70 91 19 22 	lds	r23, 0x2219	; 0x802219 <__data_end+0x1>
    1012:	80 91 1a 22 	lds	r24, 0x221A	; 0x80221a <__data_end+0x2>
    1016:	90 91 1b 22 	lds	r25, 0x221B	; 0x80221b <__data_end+0x3>
    101a:	9b dc       	rcall	.-1738   	; 0x952 <mask_gen>
    101c:	60 91 3a 24 	lds	r22, 0x243A	; 0x80243a <s_mask_2>
    1020:	80 91 28 23 	lds	r24, 0x2328	; 0x802328 <s_mask_1>
    1024:	d3 dd       	rcall	.-1114   	; 0xbcc <cons_sbox>
    1026:	81 e0       	ldi	r24, 0x01	; 1
    1028:	80 93 05 06 	sts	0x0605, r24	; 0x800605 <__TEXT_REGION_LENGTH__+0x700605>
    102c:	60 91 28 23 	lds	r22, 0x2328	; 0x802328 <s_mask_1>
    1030:	88 e1       	ldi	r24, 0x18	; 24
    1032:	93 e2       	ldi	r25, 0x23	; 35
    1034:	e0 dd       	rcall	.-1088   	; 0xbf6 <mask_all>
    1036:	c8 ee       	ldi	r28, 0xE8	; 232
    1038:	d2 e2       	ldi	r29, 0x22	; 34
    103a:	be 01       	movw	r22, r28
    103c:	88 e1       	ldi	r24, 0x18	; 24
    103e:	93 e2       	ldi	r25, 0x23	; 35
    1040:	e5 dd       	rcall	.-1078   	; 0xc0c <addroundkey>
    1042:	69 e3       	ldi	r22, 0x39	; 57
    1044:	73 e2       	ldi	r23, 0x23	; 35
    1046:	88 e1       	ldi	r24, 0x18	; 24
    1048:	93 e2       	ldi	r25, 0x23	; 35
    104a:	ee dd       	rcall	.-1060   	; 0xc28 <getboxvalue>
    104c:	88 e1       	ldi	r24, 0x18	; 24
    104e:	93 e2       	ldi	r25, 0x23	; 35
    1050:	50 de       	rcall	.-864    	; 0xcf2 <diffusionmodule>
    1052:	21 e0       	ldi	r18, 0x01	; 1
    1054:	41 e0       	ldi	r20, 0x01	; 1
    1056:	61 e0       	ldi	r22, 0x01	; 1
    1058:	88 e1       	ldi	r24, 0x18	; 24
    105a:	93 e2       	ldi	r25, 0x23	; 35
    105c:	0f df       	rcall	.-482    	; 0xe7c <catmap>
    105e:	60 96       	adiw	r28, 0x10	; 16
    1060:	83 e2       	ldi	r24, 0x23	; 35
    1062:	c8 31       	cpi	r28, 0x18	; 24
    1064:	d8 07       	cpc	r29, r24
    1066:	49 f7       	brne	.-46     	; 0x103a <encryption+0x54>
    1068:	60 91 28 23 	lds	r22, 0x2328	; 0x802328 <s_mask_1>
    106c:	88 e1       	ldi	r24, 0x18	; 24
    106e:	93 e2       	ldi	r25, 0x23	; 35
    1070:	c2 dd       	rcall	.-1148   	; 0xbf6 <mask_all>
    1072:	81 e0       	ldi	r24, 0x01	; 1
    1074:	80 93 06 06 	sts	0x0606, r24	; 0x800606 <__TEXT_REGION_LENGTH__+0x700606>
    1078:	f7 01       	movw	r30, r14
    107a:	d8 01       	movw	r26, r16
    107c:	8d 91       	ld	r24, X+
    107e:	8d 01       	movw	r16, r26
    1080:	81 93       	st	Z+, r24
    1082:	b3 e2       	ldi	r27, 0x23	; 35
    1084:	08 32       	cpi	r16, 0x28	; 40
    1086:	1b 07       	cpc	r17, r27
    1088:	c1 f7       	brne	.-16     	; 0x107a <encryption+0x94>
    108a:	df 91       	pop	r29
    108c:	cf 91       	pop	r28
    108e:	1f 91       	pop	r17
    1090:	0f 91       	pop	r16
    1092:	ff 90       	pop	r15
    1094:	ef 90       	pop	r14
    1096:	08 95       	ret

00001098 <cpu_irq_save>:
    1098:	cf 93       	push	r28
    109a:	df 93       	push	r29
    109c:	1f 92       	push	r1
    109e:	cd b7       	in	r28, 0x3d	; 61
    10a0:	de b7       	in	r29, 0x3e	; 62
    10a2:	8f b7       	in	r24, 0x3f	; 63
    10a4:	89 83       	std	Y+1, r24	; 0x01
    10a6:	f8 94       	cli
    10a8:	89 81       	ldd	r24, Y+1	; 0x01
    10aa:	0f 90       	pop	r0
    10ac:	df 91       	pop	r29
    10ae:	cf 91       	pop	r28
    10b0:	08 95       	ret

000010b2 <sysclk_init>:
    10b2:	8f ef       	ldi	r24, 0xFF	; 255
    10b4:	80 93 70 00 	sts	0x0070, r24	; 0x800070 <__TEXT_REGION_LENGTH__+0x700070>
    10b8:	80 93 71 00 	sts	0x0071, r24	; 0x800071 <__TEXT_REGION_LENGTH__+0x700071>
    10bc:	80 93 72 00 	sts	0x0072, r24	; 0x800072 <__TEXT_REGION_LENGTH__+0x700072>
    10c0:	80 93 73 00 	sts	0x0073, r24	; 0x800073 <__TEXT_REGION_LENGTH__+0x700073>
    10c4:	80 93 74 00 	sts	0x0074, r24	; 0x800074 <__TEXT_REGION_LENGTH__+0x700074>
    10c8:	80 93 75 00 	sts	0x0075, r24	; 0x800075 <__TEXT_REGION_LENGTH__+0x700075>
    10cc:	80 93 76 00 	sts	0x0076, r24	; 0x800076 <__TEXT_REGION_LENGTH__+0x700076>
    10d0:	10 92 52 00 	sts	0x0052, r1	; 0x800052 <__TEXT_REGION_LENGTH__+0x700052>
    10d4:	e1 df       	rcall	.-62     	; 0x1098 <cpu_irq_save>
    10d6:	90 91 50 00 	lds	r25, 0x0050	; 0x800050 <__TEXT_REGION_LENGTH__+0x700050>
    10da:	98 60       	ori	r25, 0x08	; 8
    10dc:	90 93 50 00 	sts	0x0050, r25	; 0x800050 <__TEXT_REGION_LENGTH__+0x700050>
    10e0:	8f bf       	out	0x3f, r24	; 63
    10e2:	80 91 51 00 	lds	r24, 0x0051	; 0x800051 <__TEXT_REGION_LENGTH__+0x700051>
    10e6:	83 ff       	sbrs	r24, 3
    10e8:	fc cf       	rjmp	.-8      	; 0x10e2 <sysclk_init+0x30>
    10ea:	63 e0       	ldi	r22, 0x03	; 3
    10ec:	80 e4       	ldi	r24, 0x40	; 64
    10ee:	90 e0       	ldi	r25, 0x00	; 0
    10f0:	3e d4       	rcall	.+2172   	; 0x196e <ccp_write_io>
    10f2:	d2 df       	rcall	.-92     	; 0x1098 <cpu_irq_save>
    10f4:	90 91 50 00 	lds	r25, 0x0050	; 0x800050 <__TEXT_REGION_LENGTH__+0x700050>
    10f8:	9e 7f       	andi	r25, 0xFE	; 254
    10fa:	90 93 50 00 	sts	0x0050, r25	; 0x800050 <__TEXT_REGION_LENGTH__+0x700050>
    10fe:	8f bf       	out	0x3f, r24	; 63
    1100:	08 95       	ret

00001102 <sysclk_enable_module>:
    1102:	cf 93       	push	r28
    1104:	df 93       	push	r29
    1106:	c8 2f       	mov	r28, r24
    1108:	d6 2f       	mov	r29, r22
    110a:	c6 df       	rcall	.-116    	; 0x1098 <cpu_irq_save>
    110c:	ec 2f       	mov	r30, r28
    110e:	f0 e0       	ldi	r31, 0x00	; 0
    1110:	e0 59       	subi	r30, 0x90	; 144
    1112:	ff 4f       	sbci	r31, 0xFF	; 255
    1114:	d0 95       	com	r29
    1116:	90 81       	ld	r25, Z
    1118:	d9 23       	and	r29, r25
    111a:	d0 83       	st	Z, r29
    111c:	8f bf       	out	0x3f, r24	; 63
    111e:	df 91       	pop	r29
    1120:	cf 91       	pop	r28
    1122:	08 95       	ret

00001124 <cpu_irq_save>:
    1124:	cf 93       	push	r28
    1126:	df 93       	push	r29
    1128:	1f 92       	push	r1
    112a:	cd b7       	in	r28, 0x3d	; 61
    112c:	de b7       	in	r29, 0x3e	; 62
    112e:	8f b7       	in	r24, 0x3f	; 63
    1130:	89 83       	std	Y+1, r24	; 0x01
    1132:	f8 94       	cli
    1134:	89 81       	ldd	r24, Y+1	; 0x01
    1136:	0f 90       	pop	r0
    1138:	df 91       	pop	r29
    113a:	cf 91       	pop	r28
    113c:	08 95       	ret

0000113e <__vector_14>:
    113e:	1f 92       	push	r1
    1140:	0f 92       	push	r0
    1142:	0f b6       	in	r0, 0x3f	; 63
    1144:	0f 92       	push	r0
    1146:	11 24       	eor	r1, r1
    1148:	0b b6       	in	r0, 0x3b	; 59
    114a:	0f 92       	push	r0
    114c:	2f 93       	push	r18
    114e:	3f 93       	push	r19
    1150:	4f 93       	push	r20
    1152:	5f 93       	push	r21
    1154:	6f 93       	push	r22
    1156:	7f 93       	push	r23
    1158:	8f 93       	push	r24
    115a:	9f 93       	push	r25
    115c:	af 93       	push	r26
    115e:	bf 93       	push	r27
    1160:	ef 93       	push	r30
    1162:	ff 93       	push	r31
    1164:	e0 91 46 22 	lds	r30, 0x2246	; 0x802246 <tc_tcc0_ovf_callback>
    1168:	f0 91 47 22 	lds	r31, 0x2247	; 0x802247 <tc_tcc0_ovf_callback+0x1>
    116c:	30 97       	sbiw	r30, 0x00	; 0
    116e:	09 f0       	breq	.+2      	; 0x1172 <__vector_14+0x34>
    1170:	19 95       	eicall
    1172:	ff 91       	pop	r31
    1174:	ef 91       	pop	r30
    1176:	bf 91       	pop	r27
    1178:	af 91       	pop	r26
    117a:	9f 91       	pop	r25
    117c:	8f 91       	pop	r24
    117e:	7f 91       	pop	r23
    1180:	6f 91       	pop	r22
    1182:	5f 91       	pop	r21
    1184:	4f 91       	pop	r20
    1186:	3f 91       	pop	r19
    1188:	2f 91       	pop	r18
    118a:	0f 90       	pop	r0
    118c:	0b be       	out	0x3b, r0	; 59
    118e:	0f 90       	pop	r0
    1190:	0f be       	out	0x3f, r0	; 63
    1192:	0f 90       	pop	r0
    1194:	1f 90       	pop	r1
    1196:	18 95       	reti

00001198 <__vector_15>:
    1198:	1f 92       	push	r1
    119a:	0f 92       	push	r0
    119c:	0f b6       	in	r0, 0x3f	; 63
    119e:	0f 92       	push	r0
    11a0:	11 24       	eor	r1, r1
    11a2:	0b b6       	in	r0, 0x3b	; 59
    11a4:	0f 92       	push	r0
    11a6:	2f 93       	push	r18
    11a8:	3f 93       	push	r19
    11aa:	4f 93       	push	r20
    11ac:	5f 93       	push	r21
    11ae:	6f 93       	push	r22
    11b0:	7f 93       	push	r23
    11b2:	8f 93       	push	r24
    11b4:	9f 93       	push	r25
    11b6:	af 93       	push	r26
    11b8:	bf 93       	push	r27
    11ba:	ef 93       	push	r30
    11bc:	ff 93       	push	r31
    11be:	e0 91 44 22 	lds	r30, 0x2244	; 0x802244 <tc_tcc0_err_callback>
    11c2:	f0 91 45 22 	lds	r31, 0x2245	; 0x802245 <tc_tcc0_err_callback+0x1>
    11c6:	30 97       	sbiw	r30, 0x00	; 0
    11c8:	09 f0       	breq	.+2      	; 0x11cc <__vector_15+0x34>
    11ca:	19 95       	eicall
    11cc:	ff 91       	pop	r31
    11ce:	ef 91       	pop	r30
    11d0:	bf 91       	pop	r27
    11d2:	af 91       	pop	r26
    11d4:	9f 91       	pop	r25
    11d6:	8f 91       	pop	r24
    11d8:	7f 91       	pop	r23
    11da:	6f 91       	pop	r22
    11dc:	5f 91       	pop	r21
    11de:	4f 91       	pop	r20
    11e0:	3f 91       	pop	r19
    11e2:	2f 91       	pop	r18
    11e4:	0f 90       	pop	r0
    11e6:	0b be       	out	0x3b, r0	; 59
    11e8:	0f 90       	pop	r0
    11ea:	0f be       	out	0x3f, r0	; 63
    11ec:	0f 90       	pop	r0
    11ee:	1f 90       	pop	r1
    11f0:	18 95       	reti

000011f2 <__vector_16>:
    11f2:	1f 92       	push	r1
    11f4:	0f 92       	push	r0
    11f6:	0f b6       	in	r0, 0x3f	; 63
    11f8:	0f 92       	push	r0
    11fa:	11 24       	eor	r1, r1
    11fc:	0b b6       	in	r0, 0x3b	; 59
    11fe:	0f 92       	push	r0
    1200:	2f 93       	push	r18
    1202:	3f 93       	push	r19
    1204:	4f 93       	push	r20
    1206:	5f 93       	push	r21
    1208:	6f 93       	push	r22
    120a:	7f 93       	push	r23
    120c:	8f 93       	push	r24
    120e:	9f 93       	push	r25
    1210:	af 93       	push	r26
    1212:	bf 93       	push	r27
    1214:	ef 93       	push	r30
    1216:	ff 93       	push	r31
    1218:	e0 91 42 22 	lds	r30, 0x2242	; 0x802242 <tc_tcc0_cca_callback>
    121c:	f0 91 43 22 	lds	r31, 0x2243	; 0x802243 <tc_tcc0_cca_callback+0x1>
    1220:	30 97       	sbiw	r30, 0x00	; 0
    1222:	09 f0       	breq	.+2      	; 0x1226 <__vector_16+0x34>
    1224:	19 95       	eicall
    1226:	ff 91       	pop	r31
    1228:	ef 91       	pop	r30
    122a:	bf 91       	pop	r27
    122c:	af 91       	pop	r26
    122e:	9f 91       	pop	r25
    1230:	8f 91       	pop	r24
    1232:	7f 91       	pop	r23
    1234:	6f 91       	pop	r22
    1236:	5f 91       	pop	r21
    1238:	4f 91       	pop	r20
    123a:	3f 91       	pop	r19
    123c:	2f 91       	pop	r18
    123e:	0f 90       	pop	r0
    1240:	0b be       	out	0x3b, r0	; 59
    1242:	0f 90       	pop	r0
    1244:	0f be       	out	0x3f, r0	; 63
    1246:	0f 90       	pop	r0
    1248:	1f 90       	pop	r1
    124a:	18 95       	reti

0000124c <__vector_17>:
    124c:	1f 92       	push	r1
    124e:	0f 92       	push	r0
    1250:	0f b6       	in	r0, 0x3f	; 63
    1252:	0f 92       	push	r0
    1254:	11 24       	eor	r1, r1
    1256:	0b b6       	in	r0, 0x3b	; 59
    1258:	0f 92       	push	r0
    125a:	2f 93       	push	r18
    125c:	3f 93       	push	r19
    125e:	4f 93       	push	r20
    1260:	5f 93       	push	r21
    1262:	6f 93       	push	r22
    1264:	7f 93       	push	r23
    1266:	8f 93       	push	r24
    1268:	9f 93       	push	r25
    126a:	af 93       	push	r26
    126c:	bf 93       	push	r27
    126e:	ef 93       	push	r30
    1270:	ff 93       	push	r31
    1272:	e0 91 40 22 	lds	r30, 0x2240	; 0x802240 <tc_tcc0_ccb_callback>
    1276:	f0 91 41 22 	lds	r31, 0x2241	; 0x802241 <tc_tcc0_ccb_callback+0x1>
    127a:	30 97       	sbiw	r30, 0x00	; 0
    127c:	09 f0       	breq	.+2      	; 0x1280 <__vector_17+0x34>
    127e:	19 95       	eicall
    1280:	ff 91       	pop	r31
    1282:	ef 91       	pop	r30
    1284:	bf 91       	pop	r27
    1286:	af 91       	pop	r26
    1288:	9f 91       	pop	r25
    128a:	8f 91       	pop	r24
    128c:	7f 91       	pop	r23
    128e:	6f 91       	pop	r22
    1290:	5f 91       	pop	r21
    1292:	4f 91       	pop	r20
    1294:	3f 91       	pop	r19
    1296:	2f 91       	pop	r18
    1298:	0f 90       	pop	r0
    129a:	0b be       	out	0x3b, r0	; 59
    129c:	0f 90       	pop	r0
    129e:	0f be       	out	0x3f, r0	; 63
    12a0:	0f 90       	pop	r0
    12a2:	1f 90       	pop	r1
    12a4:	18 95       	reti

000012a6 <__vector_18>:
    12a6:	1f 92       	push	r1
    12a8:	0f 92       	push	r0
    12aa:	0f b6       	in	r0, 0x3f	; 63
    12ac:	0f 92       	push	r0
    12ae:	11 24       	eor	r1, r1
    12b0:	0b b6       	in	r0, 0x3b	; 59
    12b2:	0f 92       	push	r0
    12b4:	2f 93       	push	r18
    12b6:	3f 93       	push	r19
    12b8:	4f 93       	push	r20
    12ba:	5f 93       	push	r21
    12bc:	6f 93       	push	r22
    12be:	7f 93       	push	r23
    12c0:	8f 93       	push	r24
    12c2:	9f 93       	push	r25
    12c4:	af 93       	push	r26
    12c6:	bf 93       	push	r27
    12c8:	ef 93       	push	r30
    12ca:	ff 93       	push	r31
    12cc:	e0 91 3e 22 	lds	r30, 0x223E	; 0x80223e <tc_tcc0_ccc_callback>
    12d0:	f0 91 3f 22 	lds	r31, 0x223F	; 0x80223f <tc_tcc0_ccc_callback+0x1>
    12d4:	30 97       	sbiw	r30, 0x00	; 0
    12d6:	09 f0       	breq	.+2      	; 0x12da <__vector_18+0x34>
    12d8:	19 95       	eicall
    12da:	ff 91       	pop	r31
    12dc:	ef 91       	pop	r30
    12de:	bf 91       	pop	r27
    12e0:	af 91       	pop	r26
    12e2:	9f 91       	pop	r25
    12e4:	8f 91       	pop	r24
    12e6:	7f 91       	pop	r23
    12e8:	6f 91       	pop	r22
    12ea:	5f 91       	pop	r21
    12ec:	4f 91       	pop	r20
    12ee:	3f 91       	pop	r19
    12f0:	2f 91       	pop	r18
    12f2:	0f 90       	pop	r0
    12f4:	0b be       	out	0x3b, r0	; 59
    12f6:	0f 90       	pop	r0
    12f8:	0f be       	out	0x3f, r0	; 63
    12fa:	0f 90       	pop	r0
    12fc:	1f 90       	pop	r1
    12fe:	18 95       	reti

00001300 <__vector_19>:
    1300:	1f 92       	push	r1
    1302:	0f 92       	push	r0
    1304:	0f b6       	in	r0, 0x3f	; 63
    1306:	0f 92       	push	r0
    1308:	11 24       	eor	r1, r1
    130a:	0b b6       	in	r0, 0x3b	; 59
    130c:	0f 92       	push	r0
    130e:	2f 93       	push	r18
    1310:	3f 93       	push	r19
    1312:	4f 93       	push	r20
    1314:	5f 93       	push	r21
    1316:	6f 93       	push	r22
    1318:	7f 93       	push	r23
    131a:	8f 93       	push	r24
    131c:	9f 93       	push	r25
    131e:	af 93       	push	r26
    1320:	bf 93       	push	r27
    1322:	ef 93       	push	r30
    1324:	ff 93       	push	r31
    1326:	e0 91 3c 22 	lds	r30, 0x223C	; 0x80223c <tc_tcc0_ccd_callback>
    132a:	f0 91 3d 22 	lds	r31, 0x223D	; 0x80223d <tc_tcc0_ccd_callback+0x1>
    132e:	30 97       	sbiw	r30, 0x00	; 0
    1330:	09 f0       	breq	.+2      	; 0x1334 <__vector_19+0x34>
    1332:	19 95       	eicall
    1334:	ff 91       	pop	r31
    1336:	ef 91       	pop	r30
    1338:	bf 91       	pop	r27
    133a:	af 91       	pop	r26
    133c:	9f 91       	pop	r25
    133e:	8f 91       	pop	r24
    1340:	7f 91       	pop	r23
    1342:	6f 91       	pop	r22
    1344:	5f 91       	pop	r21
    1346:	4f 91       	pop	r20
    1348:	3f 91       	pop	r19
    134a:	2f 91       	pop	r18
    134c:	0f 90       	pop	r0
    134e:	0b be       	out	0x3b, r0	; 59
    1350:	0f 90       	pop	r0
    1352:	0f be       	out	0x3f, r0	; 63
    1354:	0f 90       	pop	r0
    1356:	1f 90       	pop	r1
    1358:	18 95       	reti

0000135a <__vector_20>:
    135a:	1f 92       	push	r1
    135c:	0f 92       	push	r0
    135e:	0f b6       	in	r0, 0x3f	; 63
    1360:	0f 92       	push	r0
    1362:	11 24       	eor	r1, r1
    1364:	0b b6       	in	r0, 0x3b	; 59
    1366:	0f 92       	push	r0
    1368:	2f 93       	push	r18
    136a:	3f 93       	push	r19
    136c:	4f 93       	push	r20
    136e:	5f 93       	push	r21
    1370:	6f 93       	push	r22
    1372:	7f 93       	push	r23
    1374:	8f 93       	push	r24
    1376:	9f 93       	push	r25
    1378:	af 93       	push	r26
    137a:	bf 93       	push	r27
    137c:	ef 93       	push	r30
    137e:	ff 93       	push	r31
    1380:	e0 91 3a 22 	lds	r30, 0x223A	; 0x80223a <tc_tcc1_ovf_callback>
    1384:	f0 91 3b 22 	lds	r31, 0x223B	; 0x80223b <tc_tcc1_ovf_callback+0x1>
    1388:	30 97       	sbiw	r30, 0x00	; 0
    138a:	09 f0       	breq	.+2      	; 0x138e <__vector_20+0x34>
    138c:	19 95       	eicall
    138e:	ff 91       	pop	r31
    1390:	ef 91       	pop	r30
    1392:	bf 91       	pop	r27
    1394:	af 91       	pop	r26
    1396:	9f 91       	pop	r25
    1398:	8f 91       	pop	r24
    139a:	7f 91       	pop	r23
    139c:	6f 91       	pop	r22
    139e:	5f 91       	pop	r21
    13a0:	4f 91       	pop	r20
    13a2:	3f 91       	pop	r19
    13a4:	2f 91       	pop	r18
    13a6:	0f 90       	pop	r0
    13a8:	0b be       	out	0x3b, r0	; 59
    13aa:	0f 90       	pop	r0
    13ac:	0f be       	out	0x3f, r0	; 63
    13ae:	0f 90       	pop	r0
    13b0:	1f 90       	pop	r1
    13b2:	18 95       	reti

000013b4 <__vector_21>:
    13b4:	1f 92       	push	r1
    13b6:	0f 92       	push	r0
    13b8:	0f b6       	in	r0, 0x3f	; 63
    13ba:	0f 92       	push	r0
    13bc:	11 24       	eor	r1, r1
    13be:	0b b6       	in	r0, 0x3b	; 59
    13c0:	0f 92       	push	r0
    13c2:	2f 93       	push	r18
    13c4:	3f 93       	push	r19
    13c6:	4f 93       	push	r20
    13c8:	5f 93       	push	r21
    13ca:	6f 93       	push	r22
    13cc:	7f 93       	push	r23
    13ce:	8f 93       	push	r24
    13d0:	9f 93       	push	r25
    13d2:	af 93       	push	r26
    13d4:	bf 93       	push	r27
    13d6:	ef 93       	push	r30
    13d8:	ff 93       	push	r31
    13da:	e0 91 38 22 	lds	r30, 0x2238	; 0x802238 <tc_tcc1_err_callback>
    13de:	f0 91 39 22 	lds	r31, 0x2239	; 0x802239 <tc_tcc1_err_callback+0x1>
    13e2:	30 97       	sbiw	r30, 0x00	; 0
    13e4:	09 f0       	breq	.+2      	; 0x13e8 <__vector_21+0x34>
    13e6:	19 95       	eicall
    13e8:	ff 91       	pop	r31
    13ea:	ef 91       	pop	r30
    13ec:	bf 91       	pop	r27
    13ee:	af 91       	pop	r26
    13f0:	9f 91       	pop	r25
    13f2:	8f 91       	pop	r24
    13f4:	7f 91       	pop	r23
    13f6:	6f 91       	pop	r22
    13f8:	5f 91       	pop	r21
    13fa:	4f 91       	pop	r20
    13fc:	3f 91       	pop	r19
    13fe:	2f 91       	pop	r18
    1400:	0f 90       	pop	r0
    1402:	0b be       	out	0x3b, r0	; 59
    1404:	0f 90       	pop	r0
    1406:	0f be       	out	0x3f, r0	; 63
    1408:	0f 90       	pop	r0
    140a:	1f 90       	pop	r1
    140c:	18 95       	reti

0000140e <__vector_22>:
    140e:	1f 92       	push	r1
    1410:	0f 92       	push	r0
    1412:	0f b6       	in	r0, 0x3f	; 63
    1414:	0f 92       	push	r0
    1416:	11 24       	eor	r1, r1
    1418:	0b b6       	in	r0, 0x3b	; 59
    141a:	0f 92       	push	r0
    141c:	2f 93       	push	r18
    141e:	3f 93       	push	r19
    1420:	4f 93       	push	r20
    1422:	5f 93       	push	r21
    1424:	6f 93       	push	r22
    1426:	7f 93       	push	r23
    1428:	8f 93       	push	r24
    142a:	9f 93       	push	r25
    142c:	af 93       	push	r26
    142e:	bf 93       	push	r27
    1430:	ef 93       	push	r30
    1432:	ff 93       	push	r31
    1434:	e0 91 36 22 	lds	r30, 0x2236	; 0x802236 <tc_tcc1_cca_callback>
    1438:	f0 91 37 22 	lds	r31, 0x2237	; 0x802237 <tc_tcc1_cca_callback+0x1>
    143c:	30 97       	sbiw	r30, 0x00	; 0
    143e:	09 f0       	breq	.+2      	; 0x1442 <__vector_22+0x34>
    1440:	19 95       	eicall
    1442:	ff 91       	pop	r31
    1444:	ef 91       	pop	r30
    1446:	bf 91       	pop	r27
    1448:	af 91       	pop	r26
    144a:	9f 91       	pop	r25
    144c:	8f 91       	pop	r24
    144e:	7f 91       	pop	r23
    1450:	6f 91       	pop	r22
    1452:	5f 91       	pop	r21
    1454:	4f 91       	pop	r20
    1456:	3f 91       	pop	r19
    1458:	2f 91       	pop	r18
    145a:	0f 90       	pop	r0
    145c:	0b be       	out	0x3b, r0	; 59
    145e:	0f 90       	pop	r0
    1460:	0f be       	out	0x3f, r0	; 63
    1462:	0f 90       	pop	r0
    1464:	1f 90       	pop	r1
    1466:	18 95       	reti

00001468 <__vector_23>:
    1468:	1f 92       	push	r1
    146a:	0f 92       	push	r0
    146c:	0f b6       	in	r0, 0x3f	; 63
    146e:	0f 92       	push	r0
    1470:	11 24       	eor	r1, r1
    1472:	0b b6       	in	r0, 0x3b	; 59
    1474:	0f 92       	push	r0
    1476:	2f 93       	push	r18
    1478:	3f 93       	push	r19
    147a:	4f 93       	push	r20
    147c:	5f 93       	push	r21
    147e:	6f 93       	push	r22
    1480:	7f 93       	push	r23
    1482:	8f 93       	push	r24
    1484:	9f 93       	push	r25
    1486:	af 93       	push	r26
    1488:	bf 93       	push	r27
    148a:	ef 93       	push	r30
    148c:	ff 93       	push	r31
    148e:	e0 91 34 22 	lds	r30, 0x2234	; 0x802234 <tc_tcc1_ccb_callback>
    1492:	f0 91 35 22 	lds	r31, 0x2235	; 0x802235 <tc_tcc1_ccb_callback+0x1>
    1496:	30 97       	sbiw	r30, 0x00	; 0
    1498:	09 f0       	breq	.+2      	; 0x149c <__vector_23+0x34>
    149a:	19 95       	eicall
    149c:	ff 91       	pop	r31
    149e:	ef 91       	pop	r30
    14a0:	bf 91       	pop	r27
    14a2:	af 91       	pop	r26
    14a4:	9f 91       	pop	r25
    14a6:	8f 91       	pop	r24
    14a8:	7f 91       	pop	r23
    14aa:	6f 91       	pop	r22
    14ac:	5f 91       	pop	r21
    14ae:	4f 91       	pop	r20
    14b0:	3f 91       	pop	r19
    14b2:	2f 91       	pop	r18
    14b4:	0f 90       	pop	r0
    14b6:	0b be       	out	0x3b, r0	; 59
    14b8:	0f 90       	pop	r0
    14ba:	0f be       	out	0x3f, r0	; 63
    14bc:	0f 90       	pop	r0
    14be:	1f 90       	pop	r1
    14c0:	18 95       	reti

000014c2 <__vector_77>:
    14c2:	1f 92       	push	r1
    14c4:	0f 92       	push	r0
    14c6:	0f b6       	in	r0, 0x3f	; 63
    14c8:	0f 92       	push	r0
    14ca:	11 24       	eor	r1, r1
    14cc:	0b b6       	in	r0, 0x3b	; 59
    14ce:	0f 92       	push	r0
    14d0:	2f 93       	push	r18
    14d2:	3f 93       	push	r19
    14d4:	4f 93       	push	r20
    14d6:	5f 93       	push	r21
    14d8:	6f 93       	push	r22
    14da:	7f 93       	push	r23
    14dc:	8f 93       	push	r24
    14de:	9f 93       	push	r25
    14e0:	af 93       	push	r26
    14e2:	bf 93       	push	r27
    14e4:	ef 93       	push	r30
    14e6:	ff 93       	push	r31
    14e8:	e0 91 32 22 	lds	r30, 0x2232	; 0x802232 <tc_tcd0_ovf_callback>
    14ec:	f0 91 33 22 	lds	r31, 0x2233	; 0x802233 <tc_tcd0_ovf_callback+0x1>
    14f0:	30 97       	sbiw	r30, 0x00	; 0
    14f2:	09 f0       	breq	.+2      	; 0x14f6 <__vector_77+0x34>
    14f4:	19 95       	eicall
    14f6:	ff 91       	pop	r31
    14f8:	ef 91       	pop	r30
    14fa:	bf 91       	pop	r27
    14fc:	af 91       	pop	r26
    14fe:	9f 91       	pop	r25
    1500:	8f 91       	pop	r24
    1502:	7f 91       	pop	r23
    1504:	6f 91       	pop	r22
    1506:	5f 91       	pop	r21
    1508:	4f 91       	pop	r20
    150a:	3f 91       	pop	r19
    150c:	2f 91       	pop	r18
    150e:	0f 90       	pop	r0
    1510:	0b be       	out	0x3b, r0	; 59
    1512:	0f 90       	pop	r0
    1514:	0f be       	out	0x3f, r0	; 63
    1516:	0f 90       	pop	r0
    1518:	1f 90       	pop	r1
    151a:	18 95       	reti

0000151c <__vector_78>:
    151c:	1f 92       	push	r1
    151e:	0f 92       	push	r0
    1520:	0f b6       	in	r0, 0x3f	; 63
    1522:	0f 92       	push	r0
    1524:	11 24       	eor	r1, r1
    1526:	0b b6       	in	r0, 0x3b	; 59
    1528:	0f 92       	push	r0
    152a:	2f 93       	push	r18
    152c:	3f 93       	push	r19
    152e:	4f 93       	push	r20
    1530:	5f 93       	push	r21
    1532:	6f 93       	push	r22
    1534:	7f 93       	push	r23
    1536:	8f 93       	push	r24
    1538:	9f 93       	push	r25
    153a:	af 93       	push	r26
    153c:	bf 93       	push	r27
    153e:	ef 93       	push	r30
    1540:	ff 93       	push	r31
    1542:	e0 91 30 22 	lds	r30, 0x2230	; 0x802230 <tc_tcd0_err_callback>
    1546:	f0 91 31 22 	lds	r31, 0x2231	; 0x802231 <tc_tcd0_err_callback+0x1>
    154a:	30 97       	sbiw	r30, 0x00	; 0
    154c:	09 f0       	breq	.+2      	; 0x1550 <__vector_78+0x34>
    154e:	19 95       	eicall
    1550:	ff 91       	pop	r31
    1552:	ef 91       	pop	r30
    1554:	bf 91       	pop	r27
    1556:	af 91       	pop	r26
    1558:	9f 91       	pop	r25
    155a:	8f 91       	pop	r24
    155c:	7f 91       	pop	r23
    155e:	6f 91       	pop	r22
    1560:	5f 91       	pop	r21
    1562:	4f 91       	pop	r20
    1564:	3f 91       	pop	r19
    1566:	2f 91       	pop	r18
    1568:	0f 90       	pop	r0
    156a:	0b be       	out	0x3b, r0	; 59
    156c:	0f 90       	pop	r0
    156e:	0f be       	out	0x3f, r0	; 63
    1570:	0f 90       	pop	r0
    1572:	1f 90       	pop	r1
    1574:	18 95       	reti

00001576 <__vector_79>:
    1576:	1f 92       	push	r1
    1578:	0f 92       	push	r0
    157a:	0f b6       	in	r0, 0x3f	; 63
    157c:	0f 92       	push	r0
    157e:	11 24       	eor	r1, r1
    1580:	0b b6       	in	r0, 0x3b	; 59
    1582:	0f 92       	push	r0
    1584:	2f 93       	push	r18
    1586:	3f 93       	push	r19
    1588:	4f 93       	push	r20
    158a:	5f 93       	push	r21
    158c:	6f 93       	push	r22
    158e:	7f 93       	push	r23
    1590:	8f 93       	push	r24
    1592:	9f 93       	push	r25
    1594:	af 93       	push	r26
    1596:	bf 93       	push	r27
    1598:	ef 93       	push	r30
    159a:	ff 93       	push	r31
    159c:	e0 91 2e 22 	lds	r30, 0x222E	; 0x80222e <tc_tcd0_cca_callback>
    15a0:	f0 91 2f 22 	lds	r31, 0x222F	; 0x80222f <tc_tcd0_cca_callback+0x1>
    15a4:	30 97       	sbiw	r30, 0x00	; 0
    15a6:	09 f0       	breq	.+2      	; 0x15aa <__vector_79+0x34>
    15a8:	19 95       	eicall
    15aa:	ff 91       	pop	r31
    15ac:	ef 91       	pop	r30
    15ae:	bf 91       	pop	r27
    15b0:	af 91       	pop	r26
    15b2:	9f 91       	pop	r25
    15b4:	8f 91       	pop	r24
    15b6:	7f 91       	pop	r23
    15b8:	6f 91       	pop	r22
    15ba:	5f 91       	pop	r21
    15bc:	4f 91       	pop	r20
    15be:	3f 91       	pop	r19
    15c0:	2f 91       	pop	r18
    15c2:	0f 90       	pop	r0
    15c4:	0b be       	out	0x3b, r0	; 59
    15c6:	0f 90       	pop	r0
    15c8:	0f be       	out	0x3f, r0	; 63
    15ca:	0f 90       	pop	r0
    15cc:	1f 90       	pop	r1
    15ce:	18 95       	reti

000015d0 <__vector_80>:
    15d0:	1f 92       	push	r1
    15d2:	0f 92       	push	r0
    15d4:	0f b6       	in	r0, 0x3f	; 63
    15d6:	0f 92       	push	r0
    15d8:	11 24       	eor	r1, r1
    15da:	0b b6       	in	r0, 0x3b	; 59
    15dc:	0f 92       	push	r0
    15de:	2f 93       	push	r18
    15e0:	3f 93       	push	r19
    15e2:	4f 93       	push	r20
    15e4:	5f 93       	push	r21
    15e6:	6f 93       	push	r22
    15e8:	7f 93       	push	r23
    15ea:	8f 93       	push	r24
    15ec:	9f 93       	push	r25
    15ee:	af 93       	push	r26
    15f0:	bf 93       	push	r27
    15f2:	ef 93       	push	r30
    15f4:	ff 93       	push	r31
    15f6:	e0 91 2c 22 	lds	r30, 0x222C	; 0x80222c <tc_tcd0_ccb_callback>
    15fa:	f0 91 2d 22 	lds	r31, 0x222D	; 0x80222d <tc_tcd0_ccb_callback+0x1>
    15fe:	30 97       	sbiw	r30, 0x00	; 0
    1600:	09 f0       	breq	.+2      	; 0x1604 <__vector_80+0x34>
    1602:	19 95       	eicall
    1604:	ff 91       	pop	r31
    1606:	ef 91       	pop	r30
    1608:	bf 91       	pop	r27
    160a:	af 91       	pop	r26
    160c:	9f 91       	pop	r25
    160e:	8f 91       	pop	r24
    1610:	7f 91       	pop	r23
    1612:	6f 91       	pop	r22
    1614:	5f 91       	pop	r21
    1616:	4f 91       	pop	r20
    1618:	3f 91       	pop	r19
    161a:	2f 91       	pop	r18
    161c:	0f 90       	pop	r0
    161e:	0b be       	out	0x3b, r0	; 59
    1620:	0f 90       	pop	r0
    1622:	0f be       	out	0x3f, r0	; 63
    1624:	0f 90       	pop	r0
    1626:	1f 90       	pop	r1
    1628:	18 95       	reti

0000162a <__vector_81>:
    162a:	1f 92       	push	r1
    162c:	0f 92       	push	r0
    162e:	0f b6       	in	r0, 0x3f	; 63
    1630:	0f 92       	push	r0
    1632:	11 24       	eor	r1, r1
    1634:	0b b6       	in	r0, 0x3b	; 59
    1636:	0f 92       	push	r0
    1638:	2f 93       	push	r18
    163a:	3f 93       	push	r19
    163c:	4f 93       	push	r20
    163e:	5f 93       	push	r21
    1640:	6f 93       	push	r22
    1642:	7f 93       	push	r23
    1644:	8f 93       	push	r24
    1646:	9f 93       	push	r25
    1648:	af 93       	push	r26
    164a:	bf 93       	push	r27
    164c:	ef 93       	push	r30
    164e:	ff 93       	push	r31
    1650:	e0 91 2a 22 	lds	r30, 0x222A	; 0x80222a <tc_tcd0_ccc_callback>
    1654:	f0 91 2b 22 	lds	r31, 0x222B	; 0x80222b <tc_tcd0_ccc_callback+0x1>
    1658:	30 97       	sbiw	r30, 0x00	; 0
    165a:	09 f0       	breq	.+2      	; 0x165e <__vector_81+0x34>
    165c:	19 95       	eicall
    165e:	ff 91       	pop	r31
    1660:	ef 91       	pop	r30
    1662:	bf 91       	pop	r27
    1664:	af 91       	pop	r26
    1666:	9f 91       	pop	r25
    1668:	8f 91       	pop	r24
    166a:	7f 91       	pop	r23
    166c:	6f 91       	pop	r22
    166e:	5f 91       	pop	r21
    1670:	4f 91       	pop	r20
    1672:	3f 91       	pop	r19
    1674:	2f 91       	pop	r18
    1676:	0f 90       	pop	r0
    1678:	0b be       	out	0x3b, r0	; 59
    167a:	0f 90       	pop	r0
    167c:	0f be       	out	0x3f, r0	; 63
    167e:	0f 90       	pop	r0
    1680:	1f 90       	pop	r1
    1682:	18 95       	reti

00001684 <__vector_82>:
    1684:	1f 92       	push	r1
    1686:	0f 92       	push	r0
    1688:	0f b6       	in	r0, 0x3f	; 63
    168a:	0f 92       	push	r0
    168c:	11 24       	eor	r1, r1
    168e:	0b b6       	in	r0, 0x3b	; 59
    1690:	0f 92       	push	r0
    1692:	2f 93       	push	r18
    1694:	3f 93       	push	r19
    1696:	4f 93       	push	r20
    1698:	5f 93       	push	r21
    169a:	6f 93       	push	r22
    169c:	7f 93       	push	r23
    169e:	8f 93       	push	r24
    16a0:	9f 93       	push	r25
    16a2:	af 93       	push	r26
    16a4:	bf 93       	push	r27
    16a6:	ef 93       	push	r30
    16a8:	ff 93       	push	r31
    16aa:	e0 91 28 22 	lds	r30, 0x2228	; 0x802228 <tc_tcd0_ccd_callback>
    16ae:	f0 91 29 22 	lds	r31, 0x2229	; 0x802229 <tc_tcd0_ccd_callback+0x1>
    16b2:	30 97       	sbiw	r30, 0x00	; 0
    16b4:	09 f0       	breq	.+2      	; 0x16b8 <__vector_82+0x34>
    16b6:	19 95       	eicall
    16b8:	ff 91       	pop	r31
    16ba:	ef 91       	pop	r30
    16bc:	bf 91       	pop	r27
    16be:	af 91       	pop	r26
    16c0:	9f 91       	pop	r25
    16c2:	8f 91       	pop	r24
    16c4:	7f 91       	pop	r23
    16c6:	6f 91       	pop	r22
    16c8:	5f 91       	pop	r21
    16ca:	4f 91       	pop	r20
    16cc:	3f 91       	pop	r19
    16ce:	2f 91       	pop	r18
    16d0:	0f 90       	pop	r0
    16d2:	0b be       	out	0x3b, r0	; 59
    16d4:	0f 90       	pop	r0
    16d6:	0f be       	out	0x3f, r0	; 63
    16d8:	0f 90       	pop	r0
    16da:	1f 90       	pop	r1
    16dc:	18 95       	reti

000016de <__vector_47>:
    16de:	1f 92       	push	r1
    16e0:	0f 92       	push	r0
    16e2:	0f b6       	in	r0, 0x3f	; 63
    16e4:	0f 92       	push	r0
    16e6:	11 24       	eor	r1, r1
    16e8:	0b b6       	in	r0, 0x3b	; 59
    16ea:	0f 92       	push	r0
    16ec:	2f 93       	push	r18
    16ee:	3f 93       	push	r19
    16f0:	4f 93       	push	r20
    16f2:	5f 93       	push	r21
    16f4:	6f 93       	push	r22
    16f6:	7f 93       	push	r23
    16f8:	8f 93       	push	r24
    16fa:	9f 93       	push	r25
    16fc:	af 93       	push	r26
    16fe:	bf 93       	push	r27
    1700:	ef 93       	push	r30
    1702:	ff 93       	push	r31
    1704:	e0 91 26 22 	lds	r30, 0x2226	; 0x802226 <tc_tce0_ovf_callback>
    1708:	f0 91 27 22 	lds	r31, 0x2227	; 0x802227 <tc_tce0_ovf_callback+0x1>
    170c:	30 97       	sbiw	r30, 0x00	; 0
    170e:	09 f0       	breq	.+2      	; 0x1712 <__vector_47+0x34>
    1710:	19 95       	eicall
    1712:	ff 91       	pop	r31
    1714:	ef 91       	pop	r30
    1716:	bf 91       	pop	r27
    1718:	af 91       	pop	r26
    171a:	9f 91       	pop	r25
    171c:	8f 91       	pop	r24
    171e:	7f 91       	pop	r23
    1720:	6f 91       	pop	r22
    1722:	5f 91       	pop	r21
    1724:	4f 91       	pop	r20
    1726:	3f 91       	pop	r19
    1728:	2f 91       	pop	r18
    172a:	0f 90       	pop	r0
    172c:	0b be       	out	0x3b, r0	; 59
    172e:	0f 90       	pop	r0
    1730:	0f be       	out	0x3f, r0	; 63
    1732:	0f 90       	pop	r0
    1734:	1f 90       	pop	r1
    1736:	18 95       	reti

00001738 <__vector_48>:
    1738:	1f 92       	push	r1
    173a:	0f 92       	push	r0
    173c:	0f b6       	in	r0, 0x3f	; 63
    173e:	0f 92       	push	r0
    1740:	11 24       	eor	r1, r1
    1742:	0b b6       	in	r0, 0x3b	; 59
    1744:	0f 92       	push	r0
    1746:	2f 93       	push	r18
    1748:	3f 93       	push	r19
    174a:	4f 93       	push	r20
    174c:	5f 93       	push	r21
    174e:	6f 93       	push	r22
    1750:	7f 93       	push	r23
    1752:	8f 93       	push	r24
    1754:	9f 93       	push	r25
    1756:	af 93       	push	r26
    1758:	bf 93       	push	r27
    175a:	ef 93       	push	r30
    175c:	ff 93       	push	r31
    175e:	e0 91 24 22 	lds	r30, 0x2224	; 0x802224 <tc_tce0_err_callback>
    1762:	f0 91 25 22 	lds	r31, 0x2225	; 0x802225 <tc_tce0_err_callback+0x1>
    1766:	30 97       	sbiw	r30, 0x00	; 0
    1768:	09 f0       	breq	.+2      	; 0x176c <__vector_48+0x34>
    176a:	19 95       	eicall
    176c:	ff 91       	pop	r31
    176e:	ef 91       	pop	r30
    1770:	bf 91       	pop	r27
    1772:	af 91       	pop	r26
    1774:	9f 91       	pop	r25
    1776:	8f 91       	pop	r24
    1778:	7f 91       	pop	r23
    177a:	6f 91       	pop	r22
    177c:	5f 91       	pop	r21
    177e:	4f 91       	pop	r20
    1780:	3f 91       	pop	r19
    1782:	2f 91       	pop	r18
    1784:	0f 90       	pop	r0
    1786:	0b be       	out	0x3b, r0	; 59
    1788:	0f 90       	pop	r0
    178a:	0f be       	out	0x3f, r0	; 63
    178c:	0f 90       	pop	r0
    178e:	1f 90       	pop	r1
    1790:	18 95       	reti

00001792 <__vector_49>:
    1792:	1f 92       	push	r1
    1794:	0f 92       	push	r0
    1796:	0f b6       	in	r0, 0x3f	; 63
    1798:	0f 92       	push	r0
    179a:	11 24       	eor	r1, r1
    179c:	0b b6       	in	r0, 0x3b	; 59
    179e:	0f 92       	push	r0
    17a0:	2f 93       	push	r18
    17a2:	3f 93       	push	r19
    17a4:	4f 93       	push	r20
    17a6:	5f 93       	push	r21
    17a8:	6f 93       	push	r22
    17aa:	7f 93       	push	r23
    17ac:	8f 93       	push	r24
    17ae:	9f 93       	push	r25
    17b0:	af 93       	push	r26
    17b2:	bf 93       	push	r27
    17b4:	ef 93       	push	r30
    17b6:	ff 93       	push	r31
    17b8:	e0 91 22 22 	lds	r30, 0x2222	; 0x802222 <tc_tce0_cca_callback>
    17bc:	f0 91 23 22 	lds	r31, 0x2223	; 0x802223 <tc_tce0_cca_callback+0x1>
    17c0:	30 97       	sbiw	r30, 0x00	; 0
    17c2:	09 f0       	breq	.+2      	; 0x17c6 <__vector_49+0x34>
    17c4:	19 95       	eicall
    17c6:	ff 91       	pop	r31
    17c8:	ef 91       	pop	r30
    17ca:	bf 91       	pop	r27
    17cc:	af 91       	pop	r26
    17ce:	9f 91       	pop	r25
    17d0:	8f 91       	pop	r24
    17d2:	7f 91       	pop	r23
    17d4:	6f 91       	pop	r22
    17d6:	5f 91       	pop	r21
    17d8:	4f 91       	pop	r20
    17da:	3f 91       	pop	r19
    17dc:	2f 91       	pop	r18
    17de:	0f 90       	pop	r0
    17e0:	0b be       	out	0x3b, r0	; 59
    17e2:	0f 90       	pop	r0
    17e4:	0f be       	out	0x3f, r0	; 63
    17e6:	0f 90       	pop	r0
    17e8:	1f 90       	pop	r1
    17ea:	18 95       	reti

000017ec <__vector_50>:
    17ec:	1f 92       	push	r1
    17ee:	0f 92       	push	r0
    17f0:	0f b6       	in	r0, 0x3f	; 63
    17f2:	0f 92       	push	r0
    17f4:	11 24       	eor	r1, r1
    17f6:	0b b6       	in	r0, 0x3b	; 59
    17f8:	0f 92       	push	r0
    17fa:	2f 93       	push	r18
    17fc:	3f 93       	push	r19
    17fe:	4f 93       	push	r20
    1800:	5f 93       	push	r21
    1802:	6f 93       	push	r22
    1804:	7f 93       	push	r23
    1806:	8f 93       	push	r24
    1808:	9f 93       	push	r25
    180a:	af 93       	push	r26
    180c:	bf 93       	push	r27
    180e:	ef 93       	push	r30
    1810:	ff 93       	push	r31
    1812:	e0 91 20 22 	lds	r30, 0x2220	; 0x802220 <tc_tce0_ccb_callback>
    1816:	f0 91 21 22 	lds	r31, 0x2221	; 0x802221 <tc_tce0_ccb_callback+0x1>
    181a:	30 97       	sbiw	r30, 0x00	; 0
    181c:	09 f0       	breq	.+2      	; 0x1820 <__vector_50+0x34>
    181e:	19 95       	eicall
    1820:	ff 91       	pop	r31
    1822:	ef 91       	pop	r30
    1824:	bf 91       	pop	r27
    1826:	af 91       	pop	r26
    1828:	9f 91       	pop	r25
    182a:	8f 91       	pop	r24
    182c:	7f 91       	pop	r23
    182e:	6f 91       	pop	r22
    1830:	5f 91       	pop	r21
    1832:	4f 91       	pop	r20
    1834:	3f 91       	pop	r19
    1836:	2f 91       	pop	r18
    1838:	0f 90       	pop	r0
    183a:	0b be       	out	0x3b, r0	; 59
    183c:	0f 90       	pop	r0
    183e:	0f be       	out	0x3f, r0	; 63
    1840:	0f 90       	pop	r0
    1842:	1f 90       	pop	r1
    1844:	18 95       	reti

00001846 <__vector_51>:
    1846:	1f 92       	push	r1
    1848:	0f 92       	push	r0
    184a:	0f b6       	in	r0, 0x3f	; 63
    184c:	0f 92       	push	r0
    184e:	11 24       	eor	r1, r1
    1850:	0b b6       	in	r0, 0x3b	; 59
    1852:	0f 92       	push	r0
    1854:	2f 93       	push	r18
    1856:	3f 93       	push	r19
    1858:	4f 93       	push	r20
    185a:	5f 93       	push	r21
    185c:	6f 93       	push	r22
    185e:	7f 93       	push	r23
    1860:	8f 93       	push	r24
    1862:	9f 93       	push	r25
    1864:	af 93       	push	r26
    1866:	bf 93       	push	r27
    1868:	ef 93       	push	r30
    186a:	ff 93       	push	r31
    186c:	e0 91 1e 22 	lds	r30, 0x221E	; 0x80221e <tc_tce0_ccc_callback>
    1870:	f0 91 1f 22 	lds	r31, 0x221F	; 0x80221f <tc_tce0_ccc_callback+0x1>
    1874:	30 97       	sbiw	r30, 0x00	; 0
    1876:	09 f0       	breq	.+2      	; 0x187a <__vector_51+0x34>
    1878:	19 95       	eicall
    187a:	ff 91       	pop	r31
    187c:	ef 91       	pop	r30
    187e:	bf 91       	pop	r27
    1880:	af 91       	pop	r26
    1882:	9f 91       	pop	r25
    1884:	8f 91       	pop	r24
    1886:	7f 91       	pop	r23
    1888:	6f 91       	pop	r22
    188a:	5f 91       	pop	r21
    188c:	4f 91       	pop	r20
    188e:	3f 91       	pop	r19
    1890:	2f 91       	pop	r18
    1892:	0f 90       	pop	r0
    1894:	0b be       	out	0x3b, r0	; 59
    1896:	0f 90       	pop	r0
    1898:	0f be       	out	0x3f, r0	; 63
    189a:	0f 90       	pop	r0
    189c:	1f 90       	pop	r1
    189e:	18 95       	reti

000018a0 <__vector_52>:
    18a0:	1f 92       	push	r1
    18a2:	0f 92       	push	r0
    18a4:	0f b6       	in	r0, 0x3f	; 63
    18a6:	0f 92       	push	r0
    18a8:	11 24       	eor	r1, r1
    18aa:	0b b6       	in	r0, 0x3b	; 59
    18ac:	0f 92       	push	r0
    18ae:	2f 93       	push	r18
    18b0:	3f 93       	push	r19
    18b2:	4f 93       	push	r20
    18b4:	5f 93       	push	r21
    18b6:	6f 93       	push	r22
    18b8:	7f 93       	push	r23
    18ba:	8f 93       	push	r24
    18bc:	9f 93       	push	r25
    18be:	af 93       	push	r26
    18c0:	bf 93       	push	r27
    18c2:	ef 93       	push	r30
    18c4:	ff 93       	push	r31
    18c6:	e0 91 1c 22 	lds	r30, 0x221C	; 0x80221c <tc_tce0_ccd_callback>
    18ca:	f0 91 1d 22 	lds	r31, 0x221D	; 0x80221d <tc_tce0_ccd_callback+0x1>
    18ce:	30 97       	sbiw	r30, 0x00	; 0
    18d0:	09 f0       	breq	.+2      	; 0x18d4 <__vector_52+0x34>
    18d2:	19 95       	eicall
    18d4:	ff 91       	pop	r31
    18d6:	ef 91       	pop	r30
    18d8:	bf 91       	pop	r27
    18da:	af 91       	pop	r26
    18dc:	9f 91       	pop	r25
    18de:	8f 91       	pop	r24
    18e0:	7f 91       	pop	r23
    18e2:	6f 91       	pop	r22
    18e4:	5f 91       	pop	r21
    18e6:	4f 91       	pop	r20
    18e8:	3f 91       	pop	r19
    18ea:	2f 91       	pop	r18
    18ec:	0f 90       	pop	r0
    18ee:	0b be       	out	0x3b, r0	; 59
    18f0:	0f 90       	pop	r0
    18f2:	0f be       	out	0x3f, r0	; 63
    18f4:	0f 90       	pop	r0
    18f6:	1f 90       	pop	r1
    18f8:	18 95       	reti

000018fa <tc_enable>:
    18fa:	1f 93       	push	r17
    18fc:	cf 93       	push	r28
    18fe:	df 93       	push	r29
    1900:	ec 01       	movw	r28, r24
    1902:	10 dc       	rcall	.-2016   	; 0x1124 <cpu_irq_save>
    1904:	18 2f       	mov	r17, r24
    1906:	c1 15       	cp	r28, r1
    1908:	88 e0       	ldi	r24, 0x08	; 8
    190a:	d8 07       	cpc	r29, r24
    190c:	11 f4       	brne	.+4      	; 0x1912 <tc_enable+0x18>
    190e:	61 e0       	ldi	r22, 0x01	; 1
    1910:	05 c0       	rjmp	.+10     	; 0x191c <tc_enable+0x22>
    1912:	c0 34       	cpi	r28, 0x40	; 64
    1914:	88 e0       	ldi	r24, 0x08	; 8
    1916:	d8 07       	cpc	r29, r24
    1918:	31 f4       	brne	.+12     	; 0x1926 <tc_enable+0x2c>
    191a:	62 e0       	ldi	r22, 0x02	; 2
    191c:	83 e0       	ldi	r24, 0x03	; 3
    191e:	f1 db       	rcall	.-2078   	; 0x1102 <sysclk_enable_module>
    1920:	64 e0       	ldi	r22, 0x04	; 4
    1922:	83 e0       	ldi	r24, 0x03	; 3
    1924:	12 c0       	rjmp	.+36     	; 0x194a <tc_enable+0x50>
    1926:	c1 15       	cp	r28, r1
    1928:	89 e0       	ldi	r24, 0x09	; 9
    192a:	d8 07       	cpc	r29, r24
    192c:	31 f4       	brne	.+12     	; 0x193a <tc_enable+0x40>
    192e:	61 e0       	ldi	r22, 0x01	; 1
    1930:	84 e0       	ldi	r24, 0x04	; 4
    1932:	e7 db       	rcall	.-2098   	; 0x1102 <sysclk_enable_module>
    1934:	64 e0       	ldi	r22, 0x04	; 4
    1936:	84 e0       	ldi	r24, 0x04	; 4
    1938:	08 c0       	rjmp	.+16     	; 0x194a <tc_enable+0x50>
    193a:	c1 15       	cp	r28, r1
    193c:	da 40       	sbci	r29, 0x0A	; 10
    193e:	91 f4       	brne	.+36     	; 0x1964 <tc_enable+0x6a>
    1940:	61 e0       	ldi	r22, 0x01	; 1
    1942:	85 e0       	ldi	r24, 0x05	; 5
    1944:	de db       	rcall	.-2116   	; 0x1102 <sysclk_enable_module>
    1946:	64 e0       	ldi	r22, 0x04	; 4
    1948:	85 e0       	ldi	r24, 0x05	; 5
    194a:	db db       	rcall	.-2122   	; 0x1102 <sysclk_enable_module>
    194c:	80 91 3d 24 	lds	r24, 0x243D	; 0x80243d <sleepmgr_locks+0x1>
    1950:	8f 3f       	cpi	r24, 0xFF	; 255
    1952:	09 f4       	brne	.+2      	; 0x1956 <tc_enable+0x5c>
    1954:	ff cf       	rjmp	.-2      	; 0x1954 <tc_enable+0x5a>
    1956:	e6 db       	rcall	.-2100   	; 0x1124 <cpu_irq_save>
    1958:	90 91 3d 24 	lds	r25, 0x243D	; 0x80243d <sleepmgr_locks+0x1>
    195c:	9f 5f       	subi	r25, 0xFF	; 255
    195e:	90 93 3d 24 	sts	0x243D, r25	; 0x80243d <sleepmgr_locks+0x1>
    1962:	8f bf       	out	0x3f, r24	; 63
    1964:	1f bf       	out	0x3f, r17	; 63
    1966:	df 91       	pop	r29
    1968:	cf 91       	pop	r28
    196a:	1f 91       	pop	r17
    196c:	08 95       	ret

0000196e <ccp_write_io>:
    196e:	1b be       	out	0x3b, r1	; 59
    1970:	fc 01       	movw	r30, r24
    1972:	28 ed       	ldi	r18, 0xD8	; 216
    1974:	24 bf       	out	0x34, r18	; 52
    1976:	60 83       	st	Z, r22
    1978:	08 95       	ret

0000197a <__subsf3>:
    197a:	50 58       	subi	r21, 0x80	; 128

0000197c <__addsf3>:
    197c:	bb 27       	eor	r27, r27
    197e:	aa 27       	eor	r26, r26
    1980:	0e d0       	rcall	.+28     	; 0x199e <__addsf3x>
    1982:	70 c1       	rjmp	.+736    	; 0x1c64 <__fp_round>
    1984:	61 d1       	rcall	.+706    	; 0x1c48 <__fp_pscA>
    1986:	30 f0       	brcs	.+12     	; 0x1994 <__addsf3+0x18>
    1988:	66 d1       	rcall	.+716    	; 0x1c56 <__fp_pscB>
    198a:	20 f0       	brcs	.+8      	; 0x1994 <__addsf3+0x18>
    198c:	31 f4       	brne	.+12     	; 0x199a <__addsf3+0x1e>
    198e:	9f 3f       	cpi	r25, 0xFF	; 255
    1990:	11 f4       	brne	.+4      	; 0x1996 <__addsf3+0x1a>
    1992:	1e f4       	brtc	.+6      	; 0x199a <__addsf3+0x1e>
    1994:	56 c1       	rjmp	.+684    	; 0x1c42 <__fp_nan>
    1996:	0e f4       	brtc	.+2      	; 0x199a <__addsf3+0x1e>
    1998:	e0 95       	com	r30
    199a:	e7 fb       	bst	r30, 7
    199c:	4c c1       	rjmp	.+664    	; 0x1c36 <__fp_inf>

0000199e <__addsf3x>:
    199e:	e9 2f       	mov	r30, r25
    19a0:	72 d1       	rcall	.+740    	; 0x1c86 <__fp_split3>
    19a2:	80 f3       	brcs	.-32     	; 0x1984 <__addsf3+0x8>
    19a4:	ba 17       	cp	r27, r26
    19a6:	62 07       	cpc	r22, r18
    19a8:	73 07       	cpc	r23, r19
    19aa:	84 07       	cpc	r24, r20
    19ac:	95 07       	cpc	r25, r21
    19ae:	18 f0       	brcs	.+6      	; 0x19b6 <__addsf3x+0x18>
    19b0:	71 f4       	brne	.+28     	; 0x19ce <__addsf3x+0x30>
    19b2:	9e f5       	brtc	.+102    	; 0x1a1a <__addsf3x+0x7c>
    19b4:	8a c1       	rjmp	.+788    	; 0x1cca <__fp_zero>
    19b6:	0e f4       	brtc	.+2      	; 0x19ba <__addsf3x+0x1c>
    19b8:	e0 95       	com	r30
    19ba:	0b 2e       	mov	r0, r27
    19bc:	ba 2f       	mov	r27, r26
    19be:	a0 2d       	mov	r26, r0
    19c0:	0b 01       	movw	r0, r22
    19c2:	b9 01       	movw	r22, r18
    19c4:	90 01       	movw	r18, r0
    19c6:	0c 01       	movw	r0, r24
    19c8:	ca 01       	movw	r24, r20
    19ca:	a0 01       	movw	r20, r0
    19cc:	11 24       	eor	r1, r1
    19ce:	ff 27       	eor	r31, r31
    19d0:	59 1b       	sub	r21, r25
    19d2:	99 f0       	breq	.+38     	; 0x19fa <__addsf3x+0x5c>
    19d4:	59 3f       	cpi	r21, 0xF9	; 249
    19d6:	50 f4       	brcc	.+20     	; 0x19ec <__addsf3x+0x4e>
    19d8:	50 3e       	cpi	r21, 0xE0	; 224
    19da:	68 f1       	brcs	.+90     	; 0x1a36 <__addsf3x+0x98>
    19dc:	1a 16       	cp	r1, r26
    19de:	f0 40       	sbci	r31, 0x00	; 0
    19e0:	a2 2f       	mov	r26, r18
    19e2:	23 2f       	mov	r18, r19
    19e4:	34 2f       	mov	r19, r20
    19e6:	44 27       	eor	r20, r20
    19e8:	58 5f       	subi	r21, 0xF8	; 248
    19ea:	f3 cf       	rjmp	.-26     	; 0x19d2 <__addsf3x+0x34>
    19ec:	46 95       	lsr	r20
    19ee:	37 95       	ror	r19
    19f0:	27 95       	ror	r18
    19f2:	a7 95       	ror	r26
    19f4:	f0 40       	sbci	r31, 0x00	; 0
    19f6:	53 95       	inc	r21
    19f8:	c9 f7       	brne	.-14     	; 0x19ec <__addsf3x+0x4e>
    19fa:	7e f4       	brtc	.+30     	; 0x1a1a <__addsf3x+0x7c>
    19fc:	1f 16       	cp	r1, r31
    19fe:	ba 0b       	sbc	r27, r26
    1a00:	62 0b       	sbc	r22, r18
    1a02:	73 0b       	sbc	r23, r19
    1a04:	84 0b       	sbc	r24, r20
    1a06:	ba f0       	brmi	.+46     	; 0x1a36 <__addsf3x+0x98>
    1a08:	91 50       	subi	r25, 0x01	; 1
    1a0a:	a1 f0       	breq	.+40     	; 0x1a34 <__addsf3x+0x96>
    1a0c:	ff 0f       	add	r31, r31
    1a0e:	bb 1f       	adc	r27, r27
    1a10:	66 1f       	adc	r22, r22
    1a12:	77 1f       	adc	r23, r23
    1a14:	88 1f       	adc	r24, r24
    1a16:	c2 f7       	brpl	.-16     	; 0x1a08 <__addsf3x+0x6a>
    1a18:	0e c0       	rjmp	.+28     	; 0x1a36 <__addsf3x+0x98>
    1a1a:	ba 0f       	add	r27, r26
    1a1c:	62 1f       	adc	r22, r18
    1a1e:	73 1f       	adc	r23, r19
    1a20:	84 1f       	adc	r24, r20
    1a22:	48 f4       	brcc	.+18     	; 0x1a36 <__addsf3x+0x98>
    1a24:	87 95       	ror	r24
    1a26:	77 95       	ror	r23
    1a28:	67 95       	ror	r22
    1a2a:	b7 95       	ror	r27
    1a2c:	f7 95       	ror	r31
    1a2e:	9e 3f       	cpi	r25, 0xFE	; 254
    1a30:	08 f0       	brcs	.+2      	; 0x1a34 <__addsf3x+0x96>
    1a32:	b3 cf       	rjmp	.-154    	; 0x199a <__addsf3+0x1e>
    1a34:	93 95       	inc	r25
    1a36:	88 0f       	add	r24, r24
    1a38:	08 f0       	brcs	.+2      	; 0x1a3c <__addsf3x+0x9e>
    1a3a:	99 27       	eor	r25, r25
    1a3c:	ee 0f       	add	r30, r30
    1a3e:	97 95       	ror	r25
    1a40:	87 95       	ror	r24
    1a42:	08 95       	ret

00001a44 <__cmpsf2>:
    1a44:	d4 d0       	rcall	.+424    	; 0x1bee <__fp_cmp>
    1a46:	08 f4       	brcc	.+2      	; 0x1a4a <__cmpsf2+0x6>
    1a48:	81 e0       	ldi	r24, 0x01	; 1
    1a4a:	08 95       	ret

00001a4c <__divsf3>:
    1a4c:	0c d0       	rcall	.+24     	; 0x1a66 <__divsf3x>
    1a4e:	0a c1       	rjmp	.+532    	; 0x1c64 <__fp_round>
    1a50:	02 d1       	rcall	.+516    	; 0x1c56 <__fp_pscB>
    1a52:	40 f0       	brcs	.+16     	; 0x1a64 <__divsf3+0x18>
    1a54:	f9 d0       	rcall	.+498    	; 0x1c48 <__fp_pscA>
    1a56:	30 f0       	brcs	.+12     	; 0x1a64 <__divsf3+0x18>
    1a58:	21 f4       	brne	.+8      	; 0x1a62 <__divsf3+0x16>
    1a5a:	5f 3f       	cpi	r21, 0xFF	; 255
    1a5c:	19 f0       	breq	.+6      	; 0x1a64 <__divsf3+0x18>
    1a5e:	eb c0       	rjmp	.+470    	; 0x1c36 <__fp_inf>
    1a60:	51 11       	cpse	r21, r1
    1a62:	34 c1       	rjmp	.+616    	; 0x1ccc <__fp_szero>
    1a64:	ee c0       	rjmp	.+476    	; 0x1c42 <__fp_nan>

00001a66 <__divsf3x>:
    1a66:	0f d1       	rcall	.+542    	; 0x1c86 <__fp_split3>
    1a68:	98 f3       	brcs	.-26     	; 0x1a50 <__divsf3+0x4>

00001a6a <__divsf3_pse>:
    1a6a:	99 23       	and	r25, r25
    1a6c:	c9 f3       	breq	.-14     	; 0x1a60 <__divsf3+0x14>
    1a6e:	55 23       	and	r21, r21
    1a70:	b1 f3       	breq	.-20     	; 0x1a5e <__divsf3+0x12>
    1a72:	95 1b       	sub	r25, r21
    1a74:	55 0b       	sbc	r21, r21
    1a76:	bb 27       	eor	r27, r27
    1a78:	aa 27       	eor	r26, r26
    1a7a:	62 17       	cp	r22, r18
    1a7c:	73 07       	cpc	r23, r19
    1a7e:	84 07       	cpc	r24, r20
    1a80:	38 f0       	brcs	.+14     	; 0x1a90 <__divsf3_pse+0x26>
    1a82:	9f 5f       	subi	r25, 0xFF	; 255
    1a84:	5f 4f       	sbci	r21, 0xFF	; 255
    1a86:	22 0f       	add	r18, r18
    1a88:	33 1f       	adc	r19, r19
    1a8a:	44 1f       	adc	r20, r20
    1a8c:	aa 1f       	adc	r26, r26
    1a8e:	a9 f3       	breq	.-22     	; 0x1a7a <__divsf3_pse+0x10>
    1a90:	33 d0       	rcall	.+102    	; 0x1af8 <__divsf3_pse+0x8e>
    1a92:	0e 2e       	mov	r0, r30
    1a94:	3a f0       	brmi	.+14     	; 0x1aa4 <__divsf3_pse+0x3a>
    1a96:	e0 e8       	ldi	r30, 0x80	; 128
    1a98:	30 d0       	rcall	.+96     	; 0x1afa <__divsf3_pse+0x90>
    1a9a:	91 50       	subi	r25, 0x01	; 1
    1a9c:	50 40       	sbci	r21, 0x00	; 0
    1a9e:	e6 95       	lsr	r30
    1aa0:	00 1c       	adc	r0, r0
    1aa2:	ca f7       	brpl	.-14     	; 0x1a96 <__divsf3_pse+0x2c>
    1aa4:	29 d0       	rcall	.+82     	; 0x1af8 <__divsf3_pse+0x8e>
    1aa6:	fe 2f       	mov	r31, r30
    1aa8:	27 d0       	rcall	.+78     	; 0x1af8 <__divsf3_pse+0x8e>
    1aaa:	66 0f       	add	r22, r22
    1aac:	77 1f       	adc	r23, r23
    1aae:	88 1f       	adc	r24, r24
    1ab0:	bb 1f       	adc	r27, r27
    1ab2:	26 17       	cp	r18, r22
    1ab4:	37 07       	cpc	r19, r23
    1ab6:	48 07       	cpc	r20, r24
    1ab8:	ab 07       	cpc	r26, r27
    1aba:	b0 e8       	ldi	r27, 0x80	; 128
    1abc:	09 f0       	breq	.+2      	; 0x1ac0 <__divsf3_pse+0x56>
    1abe:	bb 0b       	sbc	r27, r27
    1ac0:	80 2d       	mov	r24, r0
    1ac2:	bf 01       	movw	r22, r30
    1ac4:	ff 27       	eor	r31, r31
    1ac6:	93 58       	subi	r25, 0x83	; 131
    1ac8:	5f 4f       	sbci	r21, 0xFF	; 255
    1aca:	2a f0       	brmi	.+10     	; 0x1ad6 <__divsf3_pse+0x6c>
    1acc:	9e 3f       	cpi	r25, 0xFE	; 254
    1ace:	51 05       	cpc	r21, r1
    1ad0:	68 f0       	brcs	.+26     	; 0x1aec <__divsf3_pse+0x82>
    1ad2:	b1 c0       	rjmp	.+354    	; 0x1c36 <__fp_inf>
    1ad4:	fb c0       	rjmp	.+502    	; 0x1ccc <__fp_szero>
    1ad6:	5f 3f       	cpi	r21, 0xFF	; 255
    1ad8:	ec f3       	brlt	.-6      	; 0x1ad4 <__divsf3_pse+0x6a>
    1ada:	98 3e       	cpi	r25, 0xE8	; 232
    1adc:	dc f3       	brlt	.-10     	; 0x1ad4 <__divsf3_pse+0x6a>
    1ade:	86 95       	lsr	r24
    1ae0:	77 95       	ror	r23
    1ae2:	67 95       	ror	r22
    1ae4:	b7 95       	ror	r27
    1ae6:	f7 95       	ror	r31
    1ae8:	9f 5f       	subi	r25, 0xFF	; 255
    1aea:	c9 f7       	brne	.-14     	; 0x1ade <__divsf3_pse+0x74>
    1aec:	88 0f       	add	r24, r24
    1aee:	91 1d       	adc	r25, r1
    1af0:	96 95       	lsr	r25
    1af2:	87 95       	ror	r24
    1af4:	97 f9       	bld	r25, 7
    1af6:	08 95       	ret
    1af8:	e1 e0       	ldi	r30, 0x01	; 1
    1afa:	66 0f       	add	r22, r22
    1afc:	77 1f       	adc	r23, r23
    1afe:	88 1f       	adc	r24, r24
    1b00:	bb 1f       	adc	r27, r27
    1b02:	62 17       	cp	r22, r18
    1b04:	73 07       	cpc	r23, r19
    1b06:	84 07       	cpc	r24, r20
    1b08:	ba 07       	cpc	r27, r26
    1b0a:	20 f0       	brcs	.+8      	; 0x1b14 <__divsf3_pse+0xaa>
    1b0c:	62 1b       	sub	r22, r18
    1b0e:	73 0b       	sbc	r23, r19
    1b10:	84 0b       	sbc	r24, r20
    1b12:	ba 0b       	sbc	r27, r26
    1b14:	ee 1f       	adc	r30, r30
    1b16:	88 f7       	brcc	.-30     	; 0x1afa <__divsf3_pse+0x90>
    1b18:	e0 95       	com	r30
    1b1a:	08 95       	ret

00001b1c <__fixunssfsi>:
    1b1c:	bc d0       	rcall	.+376    	; 0x1c96 <__fp_splitA>
    1b1e:	88 f0       	brcs	.+34     	; 0x1b42 <__fixunssfsi+0x26>
    1b20:	9f 57       	subi	r25, 0x7F	; 127
    1b22:	90 f0       	brcs	.+36     	; 0x1b48 <__fixunssfsi+0x2c>
    1b24:	b9 2f       	mov	r27, r25
    1b26:	99 27       	eor	r25, r25
    1b28:	b7 51       	subi	r27, 0x17	; 23
    1b2a:	a0 f0       	brcs	.+40     	; 0x1b54 <__fixunssfsi+0x38>
    1b2c:	d1 f0       	breq	.+52     	; 0x1b62 <__fixunssfsi+0x46>
    1b2e:	66 0f       	add	r22, r22
    1b30:	77 1f       	adc	r23, r23
    1b32:	88 1f       	adc	r24, r24
    1b34:	99 1f       	adc	r25, r25
    1b36:	1a f0       	brmi	.+6      	; 0x1b3e <__fixunssfsi+0x22>
    1b38:	ba 95       	dec	r27
    1b3a:	c9 f7       	brne	.-14     	; 0x1b2e <__fixunssfsi+0x12>
    1b3c:	12 c0       	rjmp	.+36     	; 0x1b62 <__fixunssfsi+0x46>
    1b3e:	b1 30       	cpi	r27, 0x01	; 1
    1b40:	81 f0       	breq	.+32     	; 0x1b62 <__fixunssfsi+0x46>
    1b42:	c3 d0       	rcall	.+390    	; 0x1cca <__fp_zero>
    1b44:	b1 e0       	ldi	r27, 0x01	; 1
    1b46:	08 95       	ret
    1b48:	c0 c0       	rjmp	.+384    	; 0x1cca <__fp_zero>
    1b4a:	67 2f       	mov	r22, r23
    1b4c:	78 2f       	mov	r23, r24
    1b4e:	88 27       	eor	r24, r24
    1b50:	b8 5f       	subi	r27, 0xF8	; 248
    1b52:	39 f0       	breq	.+14     	; 0x1b62 <__fixunssfsi+0x46>
    1b54:	b9 3f       	cpi	r27, 0xF9	; 249
    1b56:	cc f3       	brlt	.-14     	; 0x1b4a <__fixunssfsi+0x2e>
    1b58:	86 95       	lsr	r24
    1b5a:	77 95       	ror	r23
    1b5c:	67 95       	ror	r22
    1b5e:	b3 95       	inc	r27
    1b60:	d9 f7       	brne	.-10     	; 0x1b58 <__fixunssfsi+0x3c>
    1b62:	3e f4       	brtc	.+14     	; 0x1b72 <__fixunssfsi+0x56>
    1b64:	90 95       	com	r25
    1b66:	80 95       	com	r24
    1b68:	70 95       	com	r23
    1b6a:	61 95       	neg	r22
    1b6c:	7f 4f       	sbci	r23, 0xFF	; 255
    1b6e:	8f 4f       	sbci	r24, 0xFF	; 255
    1b70:	9f 4f       	sbci	r25, 0xFF	; 255
    1b72:	08 95       	ret

00001b74 <__floatunsisf>:
    1b74:	e8 94       	clt
    1b76:	09 c0       	rjmp	.+18     	; 0x1b8a <__floatsisf+0x12>

00001b78 <__floatsisf>:
    1b78:	97 fb       	bst	r25, 7
    1b7a:	3e f4       	brtc	.+14     	; 0x1b8a <__floatsisf+0x12>
    1b7c:	90 95       	com	r25
    1b7e:	80 95       	com	r24
    1b80:	70 95       	com	r23
    1b82:	61 95       	neg	r22
    1b84:	7f 4f       	sbci	r23, 0xFF	; 255
    1b86:	8f 4f       	sbci	r24, 0xFF	; 255
    1b88:	9f 4f       	sbci	r25, 0xFF	; 255
    1b8a:	99 23       	and	r25, r25
    1b8c:	a9 f0       	breq	.+42     	; 0x1bb8 <__floatsisf+0x40>
    1b8e:	f9 2f       	mov	r31, r25
    1b90:	96 e9       	ldi	r25, 0x96	; 150
    1b92:	bb 27       	eor	r27, r27
    1b94:	93 95       	inc	r25
    1b96:	f6 95       	lsr	r31
    1b98:	87 95       	ror	r24
    1b9a:	77 95       	ror	r23
    1b9c:	67 95       	ror	r22
    1b9e:	b7 95       	ror	r27
    1ba0:	f1 11       	cpse	r31, r1
    1ba2:	f8 cf       	rjmp	.-16     	; 0x1b94 <__floatsisf+0x1c>
    1ba4:	fa f4       	brpl	.+62     	; 0x1be4 <__floatsisf+0x6c>
    1ba6:	bb 0f       	add	r27, r27
    1ba8:	11 f4       	brne	.+4      	; 0x1bae <__floatsisf+0x36>
    1baa:	60 ff       	sbrs	r22, 0
    1bac:	1b c0       	rjmp	.+54     	; 0x1be4 <__floatsisf+0x6c>
    1bae:	6f 5f       	subi	r22, 0xFF	; 255
    1bb0:	7f 4f       	sbci	r23, 0xFF	; 255
    1bb2:	8f 4f       	sbci	r24, 0xFF	; 255
    1bb4:	9f 4f       	sbci	r25, 0xFF	; 255
    1bb6:	16 c0       	rjmp	.+44     	; 0x1be4 <__floatsisf+0x6c>
    1bb8:	88 23       	and	r24, r24
    1bba:	11 f0       	breq	.+4      	; 0x1bc0 <__floatsisf+0x48>
    1bbc:	96 e9       	ldi	r25, 0x96	; 150
    1bbe:	11 c0       	rjmp	.+34     	; 0x1be2 <__floatsisf+0x6a>
    1bc0:	77 23       	and	r23, r23
    1bc2:	21 f0       	breq	.+8      	; 0x1bcc <__floatsisf+0x54>
    1bc4:	9e e8       	ldi	r25, 0x8E	; 142
    1bc6:	87 2f       	mov	r24, r23
    1bc8:	76 2f       	mov	r23, r22
    1bca:	05 c0       	rjmp	.+10     	; 0x1bd6 <__floatsisf+0x5e>
    1bcc:	66 23       	and	r22, r22
    1bce:	71 f0       	breq	.+28     	; 0x1bec <__floatsisf+0x74>
    1bd0:	96 e8       	ldi	r25, 0x86	; 134
    1bd2:	86 2f       	mov	r24, r22
    1bd4:	70 e0       	ldi	r23, 0x00	; 0
    1bd6:	60 e0       	ldi	r22, 0x00	; 0
    1bd8:	2a f0       	brmi	.+10     	; 0x1be4 <__floatsisf+0x6c>
    1bda:	9a 95       	dec	r25
    1bdc:	66 0f       	add	r22, r22
    1bde:	77 1f       	adc	r23, r23
    1be0:	88 1f       	adc	r24, r24
    1be2:	da f7       	brpl	.-10     	; 0x1bda <__floatsisf+0x62>
    1be4:	88 0f       	add	r24, r24
    1be6:	96 95       	lsr	r25
    1be8:	87 95       	ror	r24
    1bea:	97 f9       	bld	r25, 7
    1bec:	08 95       	ret

00001bee <__fp_cmp>:
    1bee:	99 0f       	add	r25, r25
    1bf0:	00 08       	sbc	r0, r0
    1bf2:	55 0f       	add	r21, r21
    1bf4:	aa 0b       	sbc	r26, r26
    1bf6:	e0 e8       	ldi	r30, 0x80	; 128
    1bf8:	fe ef       	ldi	r31, 0xFE	; 254
    1bfa:	16 16       	cp	r1, r22
    1bfc:	17 06       	cpc	r1, r23
    1bfe:	e8 07       	cpc	r30, r24
    1c00:	f9 07       	cpc	r31, r25
    1c02:	c0 f0       	brcs	.+48     	; 0x1c34 <__fp_cmp+0x46>
    1c04:	12 16       	cp	r1, r18
    1c06:	13 06       	cpc	r1, r19
    1c08:	e4 07       	cpc	r30, r20
    1c0a:	f5 07       	cpc	r31, r21
    1c0c:	98 f0       	brcs	.+38     	; 0x1c34 <__fp_cmp+0x46>
    1c0e:	62 1b       	sub	r22, r18
    1c10:	73 0b       	sbc	r23, r19
    1c12:	84 0b       	sbc	r24, r20
    1c14:	95 0b       	sbc	r25, r21
    1c16:	39 f4       	brne	.+14     	; 0x1c26 <__fp_cmp+0x38>
    1c18:	0a 26       	eor	r0, r26
    1c1a:	61 f0       	breq	.+24     	; 0x1c34 <__fp_cmp+0x46>
    1c1c:	23 2b       	or	r18, r19
    1c1e:	24 2b       	or	r18, r20
    1c20:	25 2b       	or	r18, r21
    1c22:	21 f4       	brne	.+8      	; 0x1c2c <__fp_cmp+0x3e>
    1c24:	08 95       	ret
    1c26:	0a 26       	eor	r0, r26
    1c28:	09 f4       	brne	.+2      	; 0x1c2c <__fp_cmp+0x3e>
    1c2a:	a1 40       	sbci	r26, 0x01	; 1
    1c2c:	a6 95       	lsr	r26
    1c2e:	8f ef       	ldi	r24, 0xFF	; 255
    1c30:	81 1d       	adc	r24, r1
    1c32:	81 1d       	adc	r24, r1
    1c34:	08 95       	ret

00001c36 <__fp_inf>:
    1c36:	97 f9       	bld	r25, 7
    1c38:	9f 67       	ori	r25, 0x7F	; 127
    1c3a:	80 e8       	ldi	r24, 0x80	; 128
    1c3c:	70 e0       	ldi	r23, 0x00	; 0
    1c3e:	60 e0       	ldi	r22, 0x00	; 0
    1c40:	08 95       	ret

00001c42 <__fp_nan>:
    1c42:	9f ef       	ldi	r25, 0xFF	; 255
    1c44:	80 ec       	ldi	r24, 0xC0	; 192
    1c46:	08 95       	ret

00001c48 <__fp_pscA>:
    1c48:	00 24       	eor	r0, r0
    1c4a:	0a 94       	dec	r0
    1c4c:	16 16       	cp	r1, r22
    1c4e:	17 06       	cpc	r1, r23
    1c50:	18 06       	cpc	r1, r24
    1c52:	09 06       	cpc	r0, r25
    1c54:	08 95       	ret

00001c56 <__fp_pscB>:
    1c56:	00 24       	eor	r0, r0
    1c58:	0a 94       	dec	r0
    1c5a:	12 16       	cp	r1, r18
    1c5c:	13 06       	cpc	r1, r19
    1c5e:	14 06       	cpc	r1, r20
    1c60:	05 06       	cpc	r0, r21
    1c62:	08 95       	ret

00001c64 <__fp_round>:
    1c64:	09 2e       	mov	r0, r25
    1c66:	03 94       	inc	r0
    1c68:	00 0c       	add	r0, r0
    1c6a:	11 f4       	brne	.+4      	; 0x1c70 <__fp_round+0xc>
    1c6c:	88 23       	and	r24, r24
    1c6e:	52 f0       	brmi	.+20     	; 0x1c84 <__fp_round+0x20>
    1c70:	bb 0f       	add	r27, r27
    1c72:	40 f4       	brcc	.+16     	; 0x1c84 <__fp_round+0x20>
    1c74:	bf 2b       	or	r27, r31
    1c76:	11 f4       	brne	.+4      	; 0x1c7c <__fp_round+0x18>
    1c78:	60 ff       	sbrs	r22, 0
    1c7a:	04 c0       	rjmp	.+8      	; 0x1c84 <__fp_round+0x20>
    1c7c:	6f 5f       	subi	r22, 0xFF	; 255
    1c7e:	7f 4f       	sbci	r23, 0xFF	; 255
    1c80:	8f 4f       	sbci	r24, 0xFF	; 255
    1c82:	9f 4f       	sbci	r25, 0xFF	; 255
    1c84:	08 95       	ret

00001c86 <__fp_split3>:
    1c86:	57 fd       	sbrc	r21, 7
    1c88:	90 58       	subi	r25, 0x80	; 128
    1c8a:	44 0f       	add	r20, r20
    1c8c:	55 1f       	adc	r21, r21
    1c8e:	59 f0       	breq	.+22     	; 0x1ca6 <__fp_splitA+0x10>
    1c90:	5f 3f       	cpi	r21, 0xFF	; 255
    1c92:	71 f0       	breq	.+28     	; 0x1cb0 <__fp_splitA+0x1a>
    1c94:	47 95       	ror	r20

00001c96 <__fp_splitA>:
    1c96:	88 0f       	add	r24, r24
    1c98:	97 fb       	bst	r25, 7
    1c9a:	99 1f       	adc	r25, r25
    1c9c:	61 f0       	breq	.+24     	; 0x1cb6 <__fp_splitA+0x20>
    1c9e:	9f 3f       	cpi	r25, 0xFF	; 255
    1ca0:	79 f0       	breq	.+30     	; 0x1cc0 <__fp_splitA+0x2a>
    1ca2:	87 95       	ror	r24
    1ca4:	08 95       	ret
    1ca6:	12 16       	cp	r1, r18
    1ca8:	13 06       	cpc	r1, r19
    1caa:	14 06       	cpc	r1, r20
    1cac:	55 1f       	adc	r21, r21
    1cae:	f2 cf       	rjmp	.-28     	; 0x1c94 <__fp_split3+0xe>
    1cb0:	46 95       	lsr	r20
    1cb2:	f1 df       	rcall	.-30     	; 0x1c96 <__fp_splitA>
    1cb4:	08 c0       	rjmp	.+16     	; 0x1cc6 <__fp_splitA+0x30>
    1cb6:	16 16       	cp	r1, r22
    1cb8:	17 06       	cpc	r1, r23
    1cba:	18 06       	cpc	r1, r24
    1cbc:	99 1f       	adc	r25, r25
    1cbe:	f1 cf       	rjmp	.-30     	; 0x1ca2 <__fp_splitA+0xc>
    1cc0:	86 95       	lsr	r24
    1cc2:	71 05       	cpc	r23, r1
    1cc4:	61 05       	cpc	r22, r1
    1cc6:	08 94       	sec
    1cc8:	08 95       	ret

00001cca <__fp_zero>:
    1cca:	e8 94       	clt

00001ccc <__fp_szero>:
    1ccc:	bb 27       	eor	r27, r27
    1cce:	66 27       	eor	r22, r22
    1cd0:	77 27       	eor	r23, r23
    1cd2:	cb 01       	movw	r24, r22
    1cd4:	97 f9       	bld	r25, 7
    1cd6:	08 95       	ret

00001cd8 <__gesf2>:
    1cd8:	8a df       	rcall	.-236    	; 0x1bee <__fp_cmp>
    1cda:	08 f4       	brcc	.+2      	; 0x1cde <__gesf2+0x6>
    1cdc:	8f ef       	ldi	r24, 0xFF	; 255
    1cde:	08 95       	ret

00001ce0 <__mulsf3>:
    1ce0:	0b d0       	rcall	.+22     	; 0x1cf8 <__mulsf3x>
    1ce2:	c0 cf       	rjmp	.-128    	; 0x1c64 <__fp_round>
    1ce4:	b1 df       	rcall	.-158    	; 0x1c48 <__fp_pscA>
    1ce6:	28 f0       	brcs	.+10     	; 0x1cf2 <__mulsf3+0x12>
    1ce8:	b6 df       	rcall	.-148    	; 0x1c56 <__fp_pscB>
    1cea:	18 f0       	brcs	.+6      	; 0x1cf2 <__mulsf3+0x12>
    1cec:	95 23       	and	r25, r21
    1cee:	09 f0       	breq	.+2      	; 0x1cf2 <__mulsf3+0x12>
    1cf0:	a2 cf       	rjmp	.-188    	; 0x1c36 <__fp_inf>
    1cf2:	a7 cf       	rjmp	.-178    	; 0x1c42 <__fp_nan>
    1cf4:	11 24       	eor	r1, r1
    1cf6:	ea cf       	rjmp	.-44     	; 0x1ccc <__fp_szero>

00001cf8 <__mulsf3x>:
    1cf8:	c6 df       	rcall	.-116    	; 0x1c86 <__fp_split3>
    1cfa:	a0 f3       	brcs	.-24     	; 0x1ce4 <__mulsf3+0x4>

00001cfc <__mulsf3_pse>:
    1cfc:	95 9f       	mul	r25, r21
    1cfe:	d1 f3       	breq	.-12     	; 0x1cf4 <__mulsf3+0x14>
    1d00:	95 0f       	add	r25, r21
    1d02:	50 e0       	ldi	r21, 0x00	; 0
    1d04:	55 1f       	adc	r21, r21
    1d06:	62 9f       	mul	r22, r18
    1d08:	f0 01       	movw	r30, r0
    1d0a:	72 9f       	mul	r23, r18
    1d0c:	bb 27       	eor	r27, r27
    1d0e:	f0 0d       	add	r31, r0
    1d10:	b1 1d       	adc	r27, r1
    1d12:	63 9f       	mul	r22, r19
    1d14:	aa 27       	eor	r26, r26
    1d16:	f0 0d       	add	r31, r0
    1d18:	b1 1d       	adc	r27, r1
    1d1a:	aa 1f       	adc	r26, r26
    1d1c:	64 9f       	mul	r22, r20
    1d1e:	66 27       	eor	r22, r22
    1d20:	b0 0d       	add	r27, r0
    1d22:	a1 1d       	adc	r26, r1
    1d24:	66 1f       	adc	r22, r22
    1d26:	82 9f       	mul	r24, r18
    1d28:	22 27       	eor	r18, r18
    1d2a:	b0 0d       	add	r27, r0
    1d2c:	a1 1d       	adc	r26, r1
    1d2e:	62 1f       	adc	r22, r18
    1d30:	73 9f       	mul	r23, r19
    1d32:	b0 0d       	add	r27, r0
    1d34:	a1 1d       	adc	r26, r1
    1d36:	62 1f       	adc	r22, r18
    1d38:	83 9f       	mul	r24, r19
    1d3a:	a0 0d       	add	r26, r0
    1d3c:	61 1d       	adc	r22, r1
    1d3e:	22 1f       	adc	r18, r18
    1d40:	74 9f       	mul	r23, r20
    1d42:	33 27       	eor	r19, r19
    1d44:	a0 0d       	add	r26, r0
    1d46:	61 1d       	adc	r22, r1
    1d48:	23 1f       	adc	r18, r19
    1d4a:	84 9f       	mul	r24, r20
    1d4c:	60 0d       	add	r22, r0
    1d4e:	21 1d       	adc	r18, r1
    1d50:	82 2f       	mov	r24, r18
    1d52:	76 2f       	mov	r23, r22
    1d54:	6a 2f       	mov	r22, r26
    1d56:	11 24       	eor	r1, r1
    1d58:	9f 57       	subi	r25, 0x7F	; 127
    1d5a:	50 40       	sbci	r21, 0x00	; 0
    1d5c:	8a f0       	brmi	.+34     	; 0x1d80 <__mulsf3_pse+0x84>
    1d5e:	e1 f0       	breq	.+56     	; 0x1d98 <__mulsf3_pse+0x9c>
    1d60:	88 23       	and	r24, r24
    1d62:	4a f0       	brmi	.+18     	; 0x1d76 <__mulsf3_pse+0x7a>
    1d64:	ee 0f       	add	r30, r30
    1d66:	ff 1f       	adc	r31, r31
    1d68:	bb 1f       	adc	r27, r27
    1d6a:	66 1f       	adc	r22, r22
    1d6c:	77 1f       	adc	r23, r23
    1d6e:	88 1f       	adc	r24, r24
    1d70:	91 50       	subi	r25, 0x01	; 1
    1d72:	50 40       	sbci	r21, 0x00	; 0
    1d74:	a9 f7       	brne	.-22     	; 0x1d60 <__mulsf3_pse+0x64>
    1d76:	9e 3f       	cpi	r25, 0xFE	; 254
    1d78:	51 05       	cpc	r21, r1
    1d7a:	70 f0       	brcs	.+28     	; 0x1d98 <__mulsf3_pse+0x9c>
    1d7c:	5c cf       	rjmp	.-328    	; 0x1c36 <__fp_inf>
    1d7e:	a6 cf       	rjmp	.-180    	; 0x1ccc <__fp_szero>
    1d80:	5f 3f       	cpi	r21, 0xFF	; 255
    1d82:	ec f3       	brlt	.-6      	; 0x1d7e <__mulsf3_pse+0x82>
    1d84:	98 3e       	cpi	r25, 0xE8	; 232
    1d86:	dc f3       	brlt	.-10     	; 0x1d7e <__mulsf3_pse+0x82>
    1d88:	86 95       	lsr	r24
    1d8a:	77 95       	ror	r23
    1d8c:	67 95       	ror	r22
    1d8e:	b7 95       	ror	r27
    1d90:	f7 95       	ror	r31
    1d92:	e7 95       	ror	r30
    1d94:	9f 5f       	subi	r25, 0xFF	; 255
    1d96:	c1 f7       	brne	.-16     	; 0x1d88 <__mulsf3_pse+0x8c>
    1d98:	fe 2b       	or	r31, r30
    1d9a:	88 0f       	add	r24, r24
    1d9c:	91 1d       	adc	r25, r1
    1d9e:	96 95       	lsr	r25
    1da0:	87 95       	ror	r24
    1da2:	97 f9       	bld	r25, 7
    1da4:	08 95       	ret

00001da6 <__udivmodhi4>:
    1da6:	aa 1b       	sub	r26, r26
    1da8:	bb 1b       	sub	r27, r27
    1daa:	51 e1       	ldi	r21, 0x11	; 17
    1dac:	07 c0       	rjmp	.+14     	; 0x1dbc <__udivmodhi4_ep>

00001dae <__udivmodhi4_loop>:
    1dae:	aa 1f       	adc	r26, r26
    1db0:	bb 1f       	adc	r27, r27
    1db2:	a6 17       	cp	r26, r22
    1db4:	b7 07       	cpc	r27, r23
    1db6:	10 f0       	brcs	.+4      	; 0x1dbc <__udivmodhi4_ep>
    1db8:	a6 1b       	sub	r26, r22
    1dba:	b7 0b       	sbc	r27, r23

00001dbc <__udivmodhi4_ep>:
    1dbc:	88 1f       	adc	r24, r24
    1dbe:	99 1f       	adc	r25, r25
    1dc0:	5a 95       	dec	r21
    1dc2:	a9 f7       	brne	.-22     	; 0x1dae <__udivmodhi4_loop>
    1dc4:	80 95       	com	r24
    1dc6:	90 95       	com	r25
    1dc8:	bc 01       	movw	r22, r24
    1dca:	cd 01       	movw	r24, r26
    1dcc:	08 95       	ret

00001dce <__udivmodsi4>:
    1dce:	a1 e2       	ldi	r26, 0x21	; 33
    1dd0:	1a 2e       	mov	r1, r26
    1dd2:	aa 1b       	sub	r26, r26
    1dd4:	bb 1b       	sub	r27, r27
    1dd6:	fd 01       	movw	r30, r26
    1dd8:	0d c0       	rjmp	.+26     	; 0x1df4 <__udivmodsi4_ep>

00001dda <__udivmodsi4_loop>:
    1dda:	aa 1f       	adc	r26, r26
    1ddc:	bb 1f       	adc	r27, r27
    1dde:	ee 1f       	adc	r30, r30
    1de0:	ff 1f       	adc	r31, r31
    1de2:	a2 17       	cp	r26, r18
    1de4:	b3 07       	cpc	r27, r19
    1de6:	e4 07       	cpc	r30, r20
    1de8:	f5 07       	cpc	r31, r21
    1dea:	20 f0       	brcs	.+8      	; 0x1df4 <__udivmodsi4_ep>
    1dec:	a2 1b       	sub	r26, r18
    1dee:	b3 0b       	sbc	r27, r19
    1df0:	e4 0b       	sbc	r30, r20
    1df2:	f5 0b       	sbc	r31, r21

00001df4 <__udivmodsi4_ep>:
    1df4:	66 1f       	adc	r22, r22
    1df6:	77 1f       	adc	r23, r23
    1df8:	88 1f       	adc	r24, r24
    1dfa:	99 1f       	adc	r25, r25
    1dfc:	1a 94       	dec	r1
    1dfe:	69 f7       	brne	.-38     	; 0x1dda <__udivmodsi4_loop>
    1e00:	60 95       	com	r22
    1e02:	70 95       	com	r23
    1e04:	80 95       	com	r24
    1e06:	90 95       	com	r25
    1e08:	9b 01       	movw	r18, r22
    1e0a:	ac 01       	movw	r20, r24
    1e0c:	bd 01       	movw	r22, r26
    1e0e:	cf 01       	movw	r24, r30
    1e10:	08 95       	ret

00001e12 <__tablejump2__>:
    1e12:	ee 0f       	add	r30, r30
    1e14:	ff 1f       	adc	r31, r31
    1e16:	88 1f       	adc	r24, r24
    1e18:	8b bf       	out	0x3b, r24	; 59
    1e1a:	07 90       	elpm	r0, Z+
    1e1c:	f6 91       	elpm	r31, Z
    1e1e:	e0 2d       	mov	r30, r0
    1e20:	19 94       	eijmp

00001e22 <_exit>:
    1e22:	f8 94       	cli

00001e24 <__stop_program>:
    1e24:	ff cf       	rjmp	.-2      	; 0x1e24 <__stop_program>
