
CWMaskAndRandChaotic.elf:     file format elf32-avr

Sections:
Idx Name          Size      VMA       LMA       File off  Algn
  0 .text         000024cc  00000000  00000000  00000094  2**1
                  CONTENTS, ALLOC, LOAD, READONLY, CODE
  1 .data         0000021e  00802000  000024cc  00002560  2**0
                  CONTENTS, ALLOC, LOAD, DATA
  2 .bss          00000252  0080221e  0080221e  0000277e  2**0
                  ALLOC
  3 .comment      00000030  00000000  00000000  0000277e  2**0
                  CONTENTS, READONLY
  4 .note.gnu.avr.deviceinfo 00000040  00000000  00000000  000027b0  2**2
                  CONTENTS, READONLY
  5 .debug_aranges 00000020  00000000  00000000  000027f0  2**3
                  CONTENTS, READONLY, DEBUGGING
  6 .debug_info   000020ff  00000000  00000000  00002810  2**0
                  CONTENTS, READONLY, DEBUGGING
  7 .debug_abbrev 00001ecc  00000000  00000000  0000490f  2**0
                  CONTENTS, READONLY, DEBUGGING
  8 .debug_line   00000333  00000000  00000000  000067db  2**0
                  CONTENTS, READONLY, DEBUGGING
  9 .debug_str    00001561  00000000  00000000  00006b0e  2**0
                  CONTENTS, READONLY, DEBUGGING

Disassembly of section .text:

00000000 <__vectors>:
       0:	c4 c0       	rjmp	.+392    	; 0x18a <__ctors_end>
       2:	00 00       	nop
       4:	e2 c0       	rjmp	.+452    	; 0x1ca <__bad_interrupt>
       6:	00 00       	nop
       8:	e0 c0       	rjmp	.+448    	; 0x1ca <__bad_interrupt>
       a:	00 00       	nop
       c:	de c0       	rjmp	.+444    	; 0x1ca <__bad_interrupt>
       e:	00 00       	nop
      10:	dc c0       	rjmp	.+440    	; 0x1ca <__bad_interrupt>
      12:	00 00       	nop
      14:	da c0       	rjmp	.+436    	; 0x1ca <__bad_interrupt>
      16:	00 00       	nop
      18:	d8 c0       	rjmp	.+432    	; 0x1ca <__bad_interrupt>
      1a:	00 00       	nop
      1c:	d6 c0       	rjmp	.+428    	; 0x1ca <__bad_interrupt>
      1e:	00 00       	nop
      20:	d4 c0       	rjmp	.+424    	; 0x1ca <__bad_interrupt>
      22:	00 00       	nop
      24:	d2 c0       	rjmp	.+420    	; 0x1ca <__bad_interrupt>
      26:	00 00       	nop
      28:	d0 c0       	rjmp	.+416    	; 0x1ca <__bad_interrupt>
      2a:	00 00       	nop
      2c:	ce c0       	rjmp	.+412    	; 0x1ca <__bad_interrupt>
      2e:	00 00       	nop
      30:	cc c0       	rjmp	.+408    	; 0x1ca <__bad_interrupt>
      32:	00 00       	nop
      34:	ca c0       	rjmp	.+404    	; 0x1ca <__bad_interrupt>
      36:	00 00       	nop
      38:	0c 94 a2 0a 	jmp	0x1544	; 0x1544 <__vector_14>
      3c:	0c 94 cf 0a 	jmp	0x159e	; 0x159e <__vector_15>
      40:	0c 94 fc 0a 	jmp	0x15f8	; 0x15f8 <__vector_16>
      44:	0c 94 29 0b 	jmp	0x1652	; 0x1652 <__vector_17>
      48:	0c 94 56 0b 	jmp	0x16ac	; 0x16ac <__vector_18>
      4c:	0c 94 83 0b 	jmp	0x1706	; 0x1706 <__vector_19>
      50:	0c 94 b0 0b 	jmp	0x1760	; 0x1760 <__vector_20>
      54:	0c 94 dd 0b 	jmp	0x17ba	; 0x17ba <__vector_21>
      58:	0c 94 0a 0c 	jmp	0x1814	; 0x1814 <__vector_22>
      5c:	0c 94 37 0c 	jmp	0x186e	; 0x186e <__vector_23>
      60:	b4 c0       	rjmp	.+360    	; 0x1ca <__bad_interrupt>
      62:	00 00       	nop
      64:	b2 c0       	rjmp	.+356    	; 0x1ca <__bad_interrupt>
      66:	00 00       	nop
      68:	b0 c0       	rjmp	.+352    	; 0x1ca <__bad_interrupt>
      6a:	00 00       	nop
      6c:	ae c0       	rjmp	.+348    	; 0x1ca <__bad_interrupt>
      6e:	00 00       	nop
      70:	ac c0       	rjmp	.+344    	; 0x1ca <__bad_interrupt>
      72:	00 00       	nop
      74:	aa c0       	rjmp	.+340    	; 0x1ca <__bad_interrupt>
      76:	00 00       	nop
      78:	a8 c0       	rjmp	.+336    	; 0x1ca <__bad_interrupt>
      7a:	00 00       	nop
      7c:	a6 c0       	rjmp	.+332    	; 0x1ca <__bad_interrupt>
      7e:	00 00       	nop
      80:	a4 c0       	rjmp	.+328    	; 0x1ca <__bad_interrupt>
      82:	00 00       	nop
      84:	a2 c0       	rjmp	.+324    	; 0x1ca <__bad_interrupt>
      86:	00 00       	nop
      88:	a0 c0       	rjmp	.+320    	; 0x1ca <__bad_interrupt>
      8a:	00 00       	nop
      8c:	9e c0       	rjmp	.+316    	; 0x1ca <__bad_interrupt>
      8e:	00 00       	nop
      90:	9c c0       	rjmp	.+312    	; 0x1ca <__bad_interrupt>
      92:	00 00       	nop
      94:	9a c0       	rjmp	.+308    	; 0x1ca <__bad_interrupt>
      96:	00 00       	nop
      98:	98 c0       	rjmp	.+304    	; 0x1ca <__bad_interrupt>
      9a:	00 00       	nop
      9c:	96 c0       	rjmp	.+300    	; 0x1ca <__bad_interrupt>
      9e:	00 00       	nop
      a0:	94 c0       	rjmp	.+296    	; 0x1ca <__bad_interrupt>
      a2:	00 00       	nop
      a4:	92 c0       	rjmp	.+292    	; 0x1ca <__bad_interrupt>
      a6:	00 00       	nop
      a8:	90 c0       	rjmp	.+288    	; 0x1ca <__bad_interrupt>
      aa:	00 00       	nop
      ac:	8e c0       	rjmp	.+284    	; 0x1ca <__bad_interrupt>
      ae:	00 00       	nop
      b0:	8c c0       	rjmp	.+280    	; 0x1ca <__bad_interrupt>
      b2:	00 00       	nop
      b4:	8a c0       	rjmp	.+276    	; 0x1ca <__bad_interrupt>
      b6:	00 00       	nop
      b8:	88 c0       	rjmp	.+272    	; 0x1ca <__bad_interrupt>
      ba:	00 00       	nop
      bc:	0c 94 72 0d 	jmp	0x1ae4	; 0x1ae4 <__vector_47>
      c0:	0c 94 9f 0d 	jmp	0x1b3e	; 0x1b3e <__vector_48>
      c4:	0c 94 cc 0d 	jmp	0x1b98	; 0x1b98 <__vector_49>
      c8:	0c 94 f9 0d 	jmp	0x1bf2	; 0x1bf2 <__vector_50>
      cc:	0c 94 26 0e 	jmp	0x1c4c	; 0x1c4c <__vector_51>
      d0:	0c 94 53 0e 	jmp	0x1ca6	; 0x1ca6 <__vector_52>
      d4:	7a c0       	rjmp	.+244    	; 0x1ca <__bad_interrupt>
      d6:	00 00       	nop
      d8:	78 c0       	rjmp	.+240    	; 0x1ca <__bad_interrupt>
      da:	00 00       	nop
      dc:	76 c0       	rjmp	.+236    	; 0x1ca <__bad_interrupt>
      de:	00 00       	nop
      e0:	74 c0       	rjmp	.+232    	; 0x1ca <__bad_interrupt>
      e2:	00 00       	nop
      e4:	72 c0       	rjmp	.+228    	; 0x1ca <__bad_interrupt>
      e6:	00 00       	nop
      e8:	70 c0       	rjmp	.+224    	; 0x1ca <__bad_interrupt>
      ea:	00 00       	nop
      ec:	6e c0       	rjmp	.+220    	; 0x1ca <__bad_interrupt>
      ee:	00 00       	nop
      f0:	6c c0       	rjmp	.+216    	; 0x1ca <__bad_interrupt>
      f2:	00 00       	nop
      f4:	6a c0       	rjmp	.+212    	; 0x1ca <__bad_interrupt>
      f6:	00 00       	nop
      f8:	68 c0       	rjmp	.+208    	; 0x1ca <__bad_interrupt>
      fa:	00 00       	nop
      fc:	66 c0       	rjmp	.+204    	; 0x1ca <__bad_interrupt>
      fe:	00 00       	nop
     100:	64 c0       	rjmp	.+200    	; 0x1ca <__bad_interrupt>
     102:	00 00       	nop
     104:	62 c0       	rjmp	.+196    	; 0x1ca <__bad_interrupt>
     106:	00 00       	nop
     108:	60 c0       	rjmp	.+192    	; 0x1ca <__bad_interrupt>
     10a:	00 00       	nop
     10c:	5e c0       	rjmp	.+188    	; 0x1ca <__bad_interrupt>
     10e:	00 00       	nop
     110:	5c c0       	rjmp	.+184    	; 0x1ca <__bad_interrupt>
     112:	00 00       	nop
     114:	5a c0       	rjmp	.+180    	; 0x1ca <__bad_interrupt>
     116:	00 00       	nop
     118:	58 c0       	rjmp	.+176    	; 0x1ca <__bad_interrupt>
     11a:	00 00       	nop
     11c:	56 c0       	rjmp	.+172    	; 0x1ca <__bad_interrupt>
     11e:	00 00       	nop
     120:	54 c0       	rjmp	.+168    	; 0x1ca <__bad_interrupt>
     122:	00 00       	nop
     124:	52 c0       	rjmp	.+164    	; 0x1ca <__bad_interrupt>
     126:	00 00       	nop
     128:	50 c0       	rjmp	.+160    	; 0x1ca <__bad_interrupt>
     12a:	00 00       	nop
     12c:	4e c0       	rjmp	.+156    	; 0x1ca <__bad_interrupt>
     12e:	00 00       	nop
     130:	4c c0       	rjmp	.+152    	; 0x1ca <__bad_interrupt>
     132:	00 00       	nop
     134:	0c 94 64 0c 	jmp	0x18c8	; 0x18c8 <__vector_77>
     138:	0c 94 91 0c 	jmp	0x1922	; 0x1922 <__vector_78>
     13c:	0c 94 be 0c 	jmp	0x197c	; 0x197c <__vector_79>
     140:	0c 94 eb 0c 	jmp	0x19d6	; 0x19d6 <__vector_80>
     144:	0c 94 18 0d 	jmp	0x1a30	; 0x1a30 <__vector_81>
     148:	0c 94 45 0d 	jmp	0x1a8a	; 0x1a8a <__vector_82>
     14c:	3e c0       	rjmp	.+124    	; 0x1ca <__bad_interrupt>
     14e:	00 00       	nop
     150:	3c c0       	rjmp	.+120    	; 0x1ca <__bad_interrupt>
     152:	00 00       	nop
     154:	3a c0       	rjmp	.+116    	; 0x1ca <__bad_interrupt>
     156:	00 00       	nop
     158:	38 c0       	rjmp	.+112    	; 0x1ca <__bad_interrupt>
     15a:	00 00       	nop
     15c:	36 c0       	rjmp	.+108    	; 0x1ca <__bad_interrupt>
     15e:	00 00       	nop
     160:	34 c0       	rjmp	.+104    	; 0x1ca <__bad_interrupt>
     162:	00 00       	nop
     164:	32 c0       	rjmp	.+100    	; 0x1ca <__bad_interrupt>
     166:	00 00       	nop
     168:	30 c0       	rjmp	.+96     	; 0x1ca <__bad_interrupt>
     16a:	00 00       	nop
     16c:	3c 09       	sbc	r19, r12
     16e:	41 09       	sbc	r20, r1
     170:	46 09       	sbc	r20, r6
     172:	4b 09       	sbc	r20, r11
     174:	52 09       	sbc	r21, r2
     176:	58 09       	sbc	r21, r8
     178:	5d 09       	sbc	r21, r13
     17a:	62 09       	sbc	r22, r2
     17c:	68 09       	sbc	r22, r8
     17e:	6e 09       	sbc	r22, r14
     180:	74 09       	sbc	r23, r4
     182:	7b 09       	sbc	r23, r11
     184:	82 09       	sbc	r24, r2
     186:	89 09       	sbc	r24, r9
     188:	90 09       	sbc	r25, r0

0000018a <__ctors_end>:
     18a:	11 24       	eor	r1, r1
     18c:	1f be       	out	0x3f, r1	; 63
     18e:	cf ef       	ldi	r28, 0xFF	; 255
     190:	cd bf       	out	0x3d, r28	; 61
     192:	df e3       	ldi	r29, 0x3F	; 63
     194:	de bf       	out	0x3e, r29	; 62
     196:	00 e0       	ldi	r16, 0x00	; 0
     198:	0c bf       	out	0x3c, r16	; 60

0000019a <__do_copy_data>:
     19a:	12 e2       	ldi	r17, 0x22	; 34
     19c:	a0 e0       	ldi	r26, 0x00	; 0
     19e:	b0 e2       	ldi	r27, 0x20	; 32
     1a0:	ec ec       	ldi	r30, 0xCC	; 204
     1a2:	f4 e2       	ldi	r31, 0x24	; 36
     1a4:	00 e0       	ldi	r16, 0x00	; 0
     1a6:	0b bf       	out	0x3b, r16	; 59
     1a8:	02 c0       	rjmp	.+4      	; 0x1ae <__do_copy_data+0x14>
     1aa:	07 90       	elpm	r0, Z+
     1ac:	0d 92       	st	X+, r0
     1ae:	ae 31       	cpi	r26, 0x1E	; 30
     1b0:	b1 07       	cpc	r27, r17
     1b2:	d9 f7       	brne	.-10     	; 0x1aa <__do_copy_data+0x10>

000001b4 <__do_clear_bss>:
     1b4:	24 e2       	ldi	r18, 0x24	; 36
     1b6:	ae e1       	ldi	r26, 0x1E	; 30
     1b8:	b2 e2       	ldi	r27, 0x22	; 34
     1ba:	01 c0       	rjmp	.+2      	; 0x1be <.do_clear_bss_start>

000001bc <.do_clear_bss_loop>:
     1bc:	1d 92       	st	X+, r1

000001be <.do_clear_bss_start>:
     1be:	a0 37       	cpi	r26, 0x70	; 112
     1c0:	b2 07       	cpc	r27, r18
     1c2:	e1 f7       	brne	.-8      	; 0x1bc <.do_clear_bss_loop>
     1c4:	9e d2       	rcall	.+1340   	; 0x702 <main>
     1c6:	0c 94 64 12 	jmp	0x24c8	; 0x24c8 <_exit>

000001ca <__bad_interrupt>:
     1ca:	1a cf       	rjmp	.-460    	; 0x0 <__vectors>

000001cc <sysclk_enable_peripheral_clock>:
     1cc:	00 97       	sbiw	r24, 0x00	; 0
     1ce:	09 f4       	brne	.+2      	; 0x1d2 <sysclk_enable_peripheral_clock+0x6>
     1d0:	5f c0       	rjmp	.+190    	; 0x290 <sysclk_enable_peripheral_clock+0xc4>
     1d2:	81 15       	cp	r24, r1
     1d4:	24 e0       	ldi	r18, 0x04	; 4
     1d6:	92 07       	cpc	r25, r18
     1d8:	11 f4       	brne	.+4      	; 0x1de <sysclk_enable_peripheral_clock+0x12>
     1da:	64 e0       	ldi	r22, 0x04	; 4
     1dc:	05 c0       	rjmp	.+10     	; 0x1e8 <sysclk_enable_peripheral_clock+0x1c>
     1de:	80 38       	cpi	r24, 0x80	; 128
     1e0:	21 e0       	ldi	r18, 0x01	; 1
     1e2:	92 07       	cpc	r25, r18
     1e4:	19 f4       	brne	.+6      	; 0x1ec <sysclk_enable_peripheral_clock+0x20>
     1e6:	62 e0       	ldi	r22, 0x02	; 2
     1e8:	80 e0       	ldi	r24, 0x00	; 0
     1ea:	50 c0       	rjmp	.+160    	; 0x28c <sysclk_enable_peripheral_clock+0xc0>
     1ec:	80 38       	cpi	r24, 0x80	; 128
     1ee:	23 e0       	ldi	r18, 0x03	; 3
     1f0:	92 07       	cpc	r25, r18
     1f2:	11 f4       	brne	.+4      	; 0x1f8 <sysclk_enable_peripheral_clock+0x2c>
     1f4:	61 e0       	ldi	r22, 0x01	; 1
     1f6:	05 c0       	rjmp	.+10     	; 0x202 <sysclk_enable_peripheral_clock+0x36>
     1f8:	81 15       	cp	r24, r1
     1fa:	22 e0       	ldi	r18, 0x02	; 2
     1fc:	92 07       	cpc	r25, r18
     1fe:	19 f4       	brne	.+6      	; 0x206 <sysclk_enable_peripheral_clock+0x3a>
     200:	62 e0       	ldi	r22, 0x02	; 2
     202:	81 e0       	ldi	r24, 0x01	; 1
     204:	43 c0       	rjmp	.+134    	; 0x28c <sysclk_enable_peripheral_clock+0xc0>
     206:	81 15       	cp	r24, r1
     208:	28 e0       	ldi	r18, 0x08	; 8
     20a:	92 07       	cpc	r25, r18
     20c:	11 f4       	brne	.+4      	; 0x212 <sysclk_enable_peripheral_clock+0x46>
     20e:	61 e0       	ldi	r22, 0x01	; 1
     210:	36 c0       	rjmp	.+108    	; 0x27e <sysclk_enable_peripheral_clock+0xb2>
     212:	81 15       	cp	r24, r1
     214:	29 e0       	ldi	r18, 0x09	; 9
     216:	92 07       	cpc	r25, r18
     218:	11 f4       	brne	.+4      	; 0x21e <sysclk_enable_peripheral_clock+0x52>
     21a:	61 e0       	ldi	r22, 0x01	; 1
     21c:	29 c0       	rjmp	.+82     	; 0x270 <sysclk_enable_peripheral_clock+0xa4>
     21e:	81 15       	cp	r24, r1
     220:	2a e0       	ldi	r18, 0x0A	; 10
     222:	92 07       	cpc	r25, r18
     224:	11 f4       	brne	.+4      	; 0x22a <sysclk_enable_peripheral_clock+0x5e>
     226:	61 e0       	ldi	r22, 0x01	; 1
     228:	30 c0       	rjmp	.+96     	; 0x28a <sysclk_enable_peripheral_clock+0xbe>
     22a:	80 34       	cpi	r24, 0x40	; 64
     22c:	28 e0       	ldi	r18, 0x08	; 8
     22e:	92 07       	cpc	r25, r18
     230:	11 f4       	brne	.+4      	; 0x236 <sysclk_enable_peripheral_clock+0x6a>
     232:	62 e0       	ldi	r22, 0x02	; 2
     234:	24 c0       	rjmp	.+72     	; 0x27e <sysclk_enable_peripheral_clock+0xb2>
     236:	80 39       	cpi	r24, 0x90	; 144
     238:	28 e0       	ldi	r18, 0x08	; 8
     23a:	92 07       	cpc	r25, r18
     23c:	11 f4       	brne	.+4      	; 0x242 <sysclk_enable_peripheral_clock+0x76>
     23e:	64 e0       	ldi	r22, 0x04	; 4
     240:	1e c0       	rjmp	.+60     	; 0x27e <sysclk_enable_peripheral_clock+0xb2>
     242:	80 3c       	cpi	r24, 0xC0	; 192
     244:	28 e0       	ldi	r18, 0x08	; 8
     246:	92 07       	cpc	r25, r18
     248:	11 f4       	brne	.+4      	; 0x24e <sysclk_enable_peripheral_clock+0x82>
     24a:	68 e0       	ldi	r22, 0x08	; 8
     24c:	18 c0       	rjmp	.+48     	; 0x27e <sysclk_enable_peripheral_clock+0xb2>
     24e:	80 3c       	cpi	r24, 0xC0	; 192
     250:	29 e0       	ldi	r18, 0x09	; 9
     252:	92 07       	cpc	r25, r18
     254:	11 f4       	brne	.+4      	; 0x25a <sysclk_enable_peripheral_clock+0x8e>
     256:	68 e0       	ldi	r22, 0x08	; 8
     258:	0b c0       	rjmp	.+22     	; 0x270 <sysclk_enable_peripheral_clock+0xa4>
     25a:	80 3a       	cpi	r24, 0xA0	; 160
     25c:	28 e0       	ldi	r18, 0x08	; 8
     25e:	92 07       	cpc	r25, r18
     260:	11 f4       	brne	.+4      	; 0x266 <sysclk_enable_peripheral_clock+0x9a>
     262:	60 e1       	ldi	r22, 0x10	; 16
     264:	0c c0       	rjmp	.+24     	; 0x27e <sysclk_enable_peripheral_clock+0xb2>
     266:	80 3a       	cpi	r24, 0xA0	; 160
     268:	29 e0       	ldi	r18, 0x09	; 9
     26a:	92 07       	cpc	r25, r18
     26c:	19 f4       	brne	.+6      	; 0x274 <sysclk_enable_peripheral_clock+0xa8>
     26e:	60 e1       	ldi	r22, 0x10	; 16
     270:	84 e0       	ldi	r24, 0x04	; 4
     272:	0c c0       	rjmp	.+24     	; 0x28c <sysclk_enable_peripheral_clock+0xc0>
     274:	80 38       	cpi	r24, 0x80	; 128
     276:	24 e0       	ldi	r18, 0x04	; 4
     278:	92 07       	cpc	r25, r18
     27a:	19 f4       	brne	.+6      	; 0x282 <sysclk_enable_peripheral_clock+0xb6>
     27c:	60 e4       	ldi	r22, 0x40	; 64
     27e:	83 e0       	ldi	r24, 0x03	; 3
     280:	05 c0       	rjmp	.+10     	; 0x28c <sysclk_enable_peripheral_clock+0xc0>
     282:	80 3a       	cpi	r24, 0xA0	; 160
     284:	94 40       	sbci	r25, 0x04	; 4
     286:	21 f4       	brne	.+8      	; 0x290 <sysclk_enable_peripheral_clock+0xc4>
     288:	60 e4       	ldi	r22, 0x40	; 64
     28a:	85 e0       	ldi	r24, 0x05	; 5
     28c:	0c 94 84 0a 	jmp	0x1508	; 0x1508 <sysclk_enable_module>
     290:	08 95       	ret

00000292 <usart_putchar>:
     292:	fc 01       	movw	r30, r24
     294:	21 81       	ldd	r18, Z+1	; 0x01
     296:	25 ff       	sbrs	r18, 5
     298:	fc cf       	rjmp	.-8      	; 0x292 <usart_putchar>
     29a:	60 83       	st	Z, r22
     29c:	80 e0       	ldi	r24, 0x00	; 0
     29e:	90 e0       	ldi	r25, 0x00	; 0
     2a0:	08 95       	ret

000002a2 <usart_getchar>:
     2a2:	fc 01       	movw	r30, r24
     2a4:	21 81       	ldd	r18, Z+1	; 0x01
     2a6:	27 ff       	sbrs	r18, 7
     2a8:	fc cf       	rjmp	.-8      	; 0x2a2 <usart_getchar>
     2aa:	80 81       	ld	r24, Z
     2ac:	08 95       	ret

000002ae <usart_set_baudrate>:
     2ae:	8f 92       	push	r8
     2b0:	9f 92       	push	r9
     2b2:	af 92       	push	r10
     2b4:	bf 92       	push	r11
     2b6:	cf 92       	push	r12
     2b8:	df 92       	push	r13
     2ba:	ef 92       	push	r14
     2bc:	ff 92       	push	r15
     2be:	0f 93       	push	r16
     2c0:	1f 93       	push	r17
     2c2:	cf 93       	push	r28
     2c4:	df 93       	push	r29
     2c6:	ec 01       	movw	r28, r24
     2c8:	6a 01       	movw	r12, r20
     2ca:	7b 01       	movw	r14, r22
     2cc:	48 01       	movw	r8, r16
     2ce:	59 01       	movw	r10, r18
     2d0:	8c 81       	ldd	r24, Y+4	; 0x04
     2d2:	b9 01       	movw	r22, r18
     2d4:	a8 01       	movw	r20, r16
     2d6:	82 ff       	sbrs	r24, 2
     2d8:	11 c0       	rjmp	.+34     	; 0x2fc <usart_set_baudrate+0x4e>
     2da:	33 e0       	ldi	r19, 0x03	; 3
     2dc:	76 95       	lsr	r23
     2de:	67 95       	ror	r22
     2e0:	57 95       	ror	r21
     2e2:	47 95       	ror	r20
     2e4:	3a 95       	dec	r19
     2e6:	d1 f7       	brne	.-12     	; 0x2dc <usart_set_baudrate+0x2e>
     2e8:	d5 01       	movw	r26, r10
     2ea:	c4 01       	movw	r24, r8
     2ec:	e6 e1       	ldi	r30, 0x16	; 22
     2ee:	b6 95       	lsr	r27
     2f0:	a7 95       	ror	r26
     2f2:	97 95       	ror	r25
     2f4:	87 95       	ror	r24
     2f6:	ea 95       	dec	r30
     2f8:	d1 f7       	brne	.-12     	; 0x2ee <usart_set_baudrate+0x40>
     2fa:	10 c0       	rjmp	.+32     	; 0x31c <usart_set_baudrate+0x6e>
     2fc:	94 e0       	ldi	r25, 0x04	; 4
     2fe:	76 95       	lsr	r23
     300:	67 95       	ror	r22
     302:	57 95       	ror	r21
     304:	47 95       	ror	r20
     306:	9a 95       	dec	r25
     308:	d1 f7       	brne	.-12     	; 0x2fe <usart_set_baudrate+0x50>
     30a:	d9 01       	movw	r26, r18
     30c:	c8 01       	movw	r24, r16
     30e:	27 e1       	ldi	r18, 0x17	; 23
     310:	b6 95       	lsr	r27
     312:	a7 95       	ror	r26
     314:	97 95       	ror	r25
     316:	87 95       	ror	r24
     318:	2a 95       	dec	r18
     31a:	d1 f7       	brne	.-12     	; 0x310 <usart_set_baudrate+0x62>
     31c:	4c 15       	cp	r20, r12
     31e:	5d 05       	cpc	r21, r13
     320:	6e 05       	cpc	r22, r14
     322:	7f 05       	cpc	r23, r15
     324:	08 f4       	brcc	.+2      	; 0x328 <usart_set_baudrate+0x7a>
     326:	98 c0       	rjmp	.+304    	; 0x458 <__LOCK_REGION_LENGTH__+0x58>
     328:	c8 16       	cp	r12, r24
     32a:	d9 06       	cpc	r13, r25
     32c:	ea 06       	cpc	r14, r26
     32e:	fb 06       	cpc	r15, r27
     330:	08 f4       	brcc	.+2      	; 0x334 <usart_set_baudrate+0x86>
     332:	92 c0       	rjmp	.+292    	; 0x458 <__LOCK_REGION_LENGTH__+0x58>
     334:	8c 81       	ldd	r24, Y+4	; 0x04
     336:	82 fd       	sbrc	r24, 2
     338:	04 c0       	rjmp	.+8      	; 0x342 <usart_set_baudrate+0x94>
     33a:	cc 0c       	add	r12, r12
     33c:	dd 1c       	adc	r13, r13
     33e:	ee 1c       	adc	r14, r14
     340:	ff 1c       	adc	r15, r15
     342:	c5 01       	movw	r24, r10
     344:	b4 01       	movw	r22, r8
     346:	a7 01       	movw	r20, r14
     348:	96 01       	movw	r18, r12
     34a:	0e 94 19 11 	call	0x2232	; 0x2232 <__udivmodsi4>
     34e:	19 ef       	ldi	r17, 0xF9	; 249
     350:	8f ef       	ldi	r24, 0xFF	; 255
     352:	90 e0       	ldi	r25, 0x00	; 0
     354:	a0 e0       	ldi	r26, 0x00	; 0
     356:	b0 e0       	ldi	r27, 0x00	; 0
     358:	28 17       	cp	r18, r24
     35a:	39 07       	cpc	r19, r25
     35c:	4a 07       	cpc	r20, r26
     35e:	5b 07       	cpc	r21, r27
     360:	58 f0       	brcs	.+22     	; 0x378 <usart_set_baudrate+0xca>
     362:	88 0f       	add	r24, r24
     364:	99 1f       	adc	r25, r25
     366:	aa 1f       	adc	r26, r26
     368:	bb 1f       	adc	r27, r27
     36a:	1d 3f       	cpi	r17, 0xFD	; 253
     36c:	0c f4       	brge	.+2      	; 0x370 <usart_set_baudrate+0xc2>
     36e:	81 60       	ori	r24, 0x01	; 1
     370:	1f 5f       	subi	r17, 0xFF	; 255
     372:	17 30       	cpi	r17, 0x07	; 7
     374:	89 f7       	brne	.-30     	; 0x358 <usart_set_baudrate+0xaa>
     376:	49 c0       	rjmp	.+146    	; 0x40a <__LOCK_REGION_LENGTH__+0xa>
     378:	17 ff       	sbrs	r17, 7
     37a:	47 c0       	rjmp	.+142    	; 0x40a <__LOCK_REGION_LENGTH__+0xa>
     37c:	d7 01       	movw	r26, r14
     37e:	c6 01       	movw	r24, r12
     380:	f3 e0       	ldi	r31, 0x03	; 3
     382:	88 0f       	add	r24, r24
     384:	99 1f       	adc	r25, r25
     386:	aa 1f       	adc	r26, r26
     388:	bb 1f       	adc	r27, r27
     38a:	fa 95       	dec	r31
     38c:	d1 f7       	brne	.-12     	; 0x382 <usart_set_baudrate+0xd4>
     38e:	88 1a       	sub	r8, r24
     390:	99 0a       	sbc	r9, r25
     392:	aa 0a       	sbc	r10, r26
     394:	bb 0a       	sbc	r11, r27
     396:	81 2f       	mov	r24, r17
     398:	01 2e       	mov	r0, r17
     39a:	00 0c       	add	r0, r0
     39c:	99 0b       	sbc	r25, r25
     39e:	1e 3f       	cpi	r17, 0xFE	; 254
     3a0:	dc f4       	brge	.+54     	; 0x3d8 <usart_set_baudrate+0x12a>
     3a2:	2d ef       	ldi	r18, 0xFD	; 253
     3a4:	3f ef       	ldi	r19, 0xFF	; 255
     3a6:	a9 01       	movw	r20, r18
     3a8:	48 1b       	sub	r20, r24
     3aa:	59 0b       	sbc	r21, r25
     3ac:	04 c0       	rjmp	.+8      	; 0x3b6 <usart_set_baudrate+0x108>
     3ae:	88 0c       	add	r8, r8
     3b0:	99 1c       	adc	r9, r9
     3b2:	aa 1c       	adc	r10, r10
     3b4:	bb 1c       	adc	r11, r11
     3b6:	4a 95       	dec	r20
     3b8:	d2 f7       	brpl	.-12     	; 0x3ae <usart_set_baudrate+0x100>
     3ba:	d7 01       	movw	r26, r14
     3bc:	c6 01       	movw	r24, r12
     3be:	b6 95       	lsr	r27
     3c0:	a7 95       	ror	r26
     3c2:	97 95       	ror	r25
     3c4:	87 95       	ror	r24
     3c6:	bc 01       	movw	r22, r24
     3c8:	cd 01       	movw	r24, r26
     3ca:	68 0d       	add	r22, r8
     3cc:	79 1d       	adc	r23, r9
     3ce:	8a 1d       	adc	r24, r10
     3d0:	9b 1d       	adc	r25, r11
     3d2:	a7 01       	movw	r20, r14
     3d4:	96 01       	movw	r18, r12
     3d6:	16 c0       	rjmp	.+44     	; 0x404 <__LOCK_REGION_LENGTH__+0x4>
     3d8:	03 96       	adiw	r24, 0x03	; 3
     3da:	a7 01       	movw	r20, r14
     3dc:	96 01       	movw	r18, r12
     3de:	04 c0       	rjmp	.+8      	; 0x3e8 <usart_set_baudrate+0x13a>
     3e0:	22 0f       	add	r18, r18
     3e2:	33 1f       	adc	r19, r19
     3e4:	44 1f       	adc	r20, r20
     3e6:	55 1f       	adc	r21, r21
     3e8:	8a 95       	dec	r24
     3ea:	d2 f7       	brpl	.-12     	; 0x3e0 <usart_set_baudrate+0x132>
     3ec:	da 01       	movw	r26, r20
     3ee:	c9 01       	movw	r24, r18
     3f0:	b6 95       	lsr	r27
     3f2:	a7 95       	ror	r26
     3f4:	97 95       	ror	r25
     3f6:	87 95       	ror	r24
     3f8:	bc 01       	movw	r22, r24
     3fa:	cd 01       	movw	r24, r26
     3fc:	68 0d       	add	r22, r8
     3fe:	79 1d       	adc	r23, r9
     400:	8a 1d       	adc	r24, r10
     402:	9b 1d       	adc	r25, r11
     404:	0e 94 19 11 	call	0x2232	; 0x2232 <__udivmodsi4>
     408:	1d c0       	rjmp	.+58     	; 0x444 <__LOCK_REGION_LENGTH__+0x44>
     40a:	83 e0       	ldi	r24, 0x03	; 3
     40c:	81 0f       	add	r24, r17
     40e:	a7 01       	movw	r20, r14
     410:	96 01       	movw	r18, r12
     412:	04 c0       	rjmp	.+8      	; 0x41c <__LOCK_REGION_LENGTH__+0x1c>
     414:	22 0f       	add	r18, r18
     416:	33 1f       	adc	r19, r19
     418:	44 1f       	adc	r20, r20
     41a:	55 1f       	adc	r21, r21
     41c:	8a 95       	dec	r24
     41e:	d2 f7       	brpl	.-12     	; 0x414 <__LOCK_REGION_LENGTH__+0x14>
     420:	da 01       	movw	r26, r20
     422:	c9 01       	movw	r24, r18
     424:	b6 95       	lsr	r27
     426:	a7 95       	ror	r26
     428:	97 95       	ror	r25
     42a:	87 95       	ror	r24
     42c:	bc 01       	movw	r22, r24
     42e:	cd 01       	movw	r24, r26
     430:	68 0d       	add	r22, r8
     432:	79 1d       	adc	r23, r9
     434:	8a 1d       	adc	r24, r10
     436:	9b 1d       	adc	r25, r11
     438:	0e 94 19 11 	call	0x2232	; 0x2232 <__udivmodsi4>
     43c:	21 50       	subi	r18, 0x01	; 1
     43e:	31 09       	sbc	r19, r1
     440:	41 09       	sbc	r20, r1
     442:	51 09       	sbc	r21, r1
     444:	93 2f       	mov	r25, r19
     446:	9f 70       	andi	r25, 0x0F	; 15
     448:	81 2f       	mov	r24, r17
     44a:	82 95       	swap	r24
     44c:	80 7f       	andi	r24, 0xF0	; 240
     44e:	89 2b       	or	r24, r25
     450:	8f 83       	std	Y+7, r24	; 0x07
     452:	2e 83       	std	Y+6, r18	; 0x06
     454:	81 e0       	ldi	r24, 0x01	; 1
     456:	01 c0       	rjmp	.+2      	; 0x45a <__LOCK_REGION_LENGTH__+0x5a>
     458:	80 e0       	ldi	r24, 0x00	; 0
     45a:	df 91       	pop	r29
     45c:	cf 91       	pop	r28
     45e:	1f 91       	pop	r17
     460:	0f 91       	pop	r16
     462:	ff 90       	pop	r15
     464:	ef 90       	pop	r14
     466:	df 90       	pop	r13
     468:	cf 90       	pop	r12
     46a:	bf 90       	pop	r11
     46c:	af 90       	pop	r10
     46e:	9f 90       	pop	r9
     470:	8f 90       	pop	r8
     472:	08 95       	ret

00000474 <usart_init_rs232>:
     474:	0f 93       	push	r16
     476:	1f 93       	push	r17
     478:	cf 93       	push	r28
     47a:	df 93       	push	r29
     47c:	ec 01       	movw	r28, r24
     47e:	8b 01       	movw	r16, r22
     480:	a5 de       	rcall	.-694    	; 0x1cc <sysclk_enable_peripheral_clock>
     482:	8d 81       	ldd	r24, Y+5	; 0x05
     484:	8f 73       	andi	r24, 0x3F	; 63
     486:	8d 83       	std	Y+5, r24	; 0x05
     488:	f8 01       	movw	r30, r16
     48a:	95 81       	ldd	r25, Z+5	; 0x05
     48c:	84 81       	ldd	r24, Z+4	; 0x04
     48e:	98 2b       	or	r25, r24
     490:	86 81       	ldd	r24, Z+6	; 0x06
     492:	81 11       	cpse	r24, r1
     494:	88 e0       	ldi	r24, 0x08	; 8
     496:	89 2b       	or	r24, r25
     498:	8d 83       	std	Y+5, r24	; 0x05
     49a:	f8 01       	movw	r30, r16
     49c:	40 81       	ld	r20, Z
     49e:	51 81       	ldd	r21, Z+1	; 0x01
     4a0:	62 81       	ldd	r22, Z+2	; 0x02
     4a2:	73 81       	ldd	r23, Z+3	; 0x03
     4a4:	00 e1       	ldi	r16, 0x10	; 16
     4a6:	15 e7       	ldi	r17, 0x75	; 117
     4a8:	20 e7       	ldi	r18, 0x70	; 112
     4aa:	30 e0       	ldi	r19, 0x00	; 0
     4ac:	ce 01       	movw	r24, r28
     4ae:	ff de       	rcall	.-514    	; 0x2ae <usart_set_baudrate>
     4b0:	9c 81       	ldd	r25, Y+4	; 0x04
     4b2:	98 60       	ori	r25, 0x08	; 8
     4b4:	9c 83       	std	Y+4, r25	; 0x04
     4b6:	9c 81       	ldd	r25, Y+4	; 0x04
     4b8:	90 61       	ori	r25, 0x10	; 16
     4ba:	9c 83       	std	Y+4, r25	; 0x04
     4bc:	df 91       	pop	r29
     4be:	cf 91       	pop	r28
     4c0:	1f 91       	pop	r17
     4c2:	0f 91       	pop	r16
     4c4:	08 95       	ret

000004c6 <hex_decode>:
     4c6:	cf 93       	push	r28
     4c8:	df 93       	push	r29
     4ca:	c4 2f       	mov	r28, r20
     4cc:	d5 2f       	mov	r29, r21
     4ce:	dc 01       	movw	r26, r24
     4d0:	9d 01       	movw	r18, r26
     4d2:	28 1b       	sub	r18, r24
     4d4:	39 0b       	sbc	r19, r25
     4d6:	26 17       	cp	r18, r22
     4d8:	37 07       	cpc	r19, r23
     4da:	28 f5       	brcc	.+74     	; 0x526 <hex_decode+0x60>
     4dc:	2c 91       	ld	r18, X
     4de:	2a 33       	cpi	r18, 0x3A	; 58
     4e0:	3c f0       	brlt	.+14     	; 0x4f0 <hex_decode+0x2a>
     4e2:	20 62       	ori	r18, 0x20	; 32
     4e4:	02 2e       	mov	r0, r18
     4e6:	00 0c       	add	r0, r0
     4e8:	33 0b       	sbc	r19, r19
     4ea:	27 55       	subi	r18, 0x57	; 87
     4ec:	31 09       	sbc	r19, r1
     4ee:	05 c0       	rjmp	.+10     	; 0x4fa <hex_decode+0x34>
     4f0:	02 2e       	mov	r0, r18
     4f2:	00 0c       	add	r0, r0
     4f4:	33 0b       	sbc	r19, r19
     4f6:	20 53       	subi	r18, 0x30	; 48
     4f8:	31 09       	sbc	r19, r1
     4fa:	11 96       	adiw	r26, 0x01	; 1
     4fc:	ec 91       	ld	r30, X
     4fe:	11 97       	sbiw	r26, 0x01	; 1
     500:	ea 33       	cpi	r30, 0x3A	; 58
     502:	3c f0       	brlt	.+14     	; 0x512 <hex_decode+0x4c>
     504:	e0 62       	ori	r30, 0x20	; 32
     506:	0e 2e       	mov	r0, r30
     508:	00 0c       	add	r0, r0
     50a:	ff 0b       	sbc	r31, r31
     50c:	e7 55       	subi	r30, 0x57	; 87
     50e:	f1 09       	sbc	r31, r1
     510:	04 c0       	rjmp	.+8      	; 0x51a <hex_decode+0x54>
     512:	0e 2e       	mov	r0, r30
     514:	00 0c       	add	r0, r0
     516:	ff 0b       	sbc	r31, r31
     518:	f0 97       	sbiw	r30, 0x30	; 48
     51a:	22 95       	swap	r18
     51c:	20 7f       	andi	r18, 0xF0	; 240
     51e:	e2 2b       	or	r30, r18
     520:	e9 93       	st	Y+, r30
     522:	12 96       	adiw	r26, 0x02	; 2
     524:	d5 cf       	rjmp	.-86     	; 0x4d0 <hex_decode+0xa>
     526:	ca 01       	movw	r24, r20
     528:	df 91       	pop	r29
     52a:	cf 91       	pop	r28
     52c:	08 95       	ret

0000052e <hex_print>:
     52e:	1f 93       	push	r17
     530:	cf 93       	push	r28
     532:	df 93       	push	r29
     534:	da 01       	movw	r26, r20
     536:	9c 01       	movw	r18, r24
     538:	26 0f       	add	r18, r22
     53a:	37 1f       	adc	r19, r23
     53c:	82 17       	cp	r24, r18
     53e:	93 07       	cpc	r25, r19
     540:	b9 f0       	breq	.+46     	; 0x570 <hex_print+0x42>
     542:	ec 01       	movw	r28, r24
     544:	fc 01       	movw	r30, r24
     546:	11 91       	ld	r17, Z+
     548:	cf 01       	movw	r24, r30
     54a:	e1 2f       	mov	r30, r17
     54c:	e2 95       	swap	r30
     54e:	ef 70       	andi	r30, 0x0F	; 15
     550:	f0 e0       	ldi	r31, 0x00	; 0
     552:	ea 5f       	subi	r30, 0xFA	; 250
     554:	ff 4d       	sbci	r31, 0xDF	; 223
     556:	e0 81       	ld	r30, Z
     558:	ec 93       	st	X, r30
     55a:	e8 81       	ld	r30, Y
     55c:	ef 70       	andi	r30, 0x0F	; 15
     55e:	f0 e0       	ldi	r31, 0x00	; 0
     560:	ea 5f       	subi	r30, 0xFA	; 250
     562:	ff 4d       	sbci	r31, 0xDF	; 223
     564:	e0 81       	ld	r30, Z
     566:	11 96       	adiw	r26, 0x01	; 1
     568:	ec 93       	st	X, r30
     56a:	11 97       	sbiw	r26, 0x01	; 1
     56c:	12 96       	adiw	r26, 0x02	; 2
     56e:	e6 cf       	rjmp	.-52     	; 0x53c <hex_print+0xe>
     570:	66 0f       	add	r22, r22
     572:	77 1f       	adc	r23, r23
     574:	fa 01       	movw	r30, r20
     576:	e6 0f       	add	r30, r22
     578:	f7 1f       	adc	r31, r23
     57a:	10 82       	st	Z, r1
     57c:	df 91       	pop	r29
     57e:	cf 91       	pop	r28
     580:	1f 91       	pop	r17
     582:	08 95       	ret

00000584 <timeConsum>:
     584:	80 91 20 22 	lds	r24, 0x2220	; 0x802220 <timeCount>
     588:	90 91 21 22 	lds	r25, 0x2221	; 0x802221 <timeCount+0x1>
     58c:	01 96       	adiw	r24, 0x01	; 1
     58e:	80 93 20 22 	sts	0x2220, r24	; 0x802220 <timeCount>
     592:	90 93 21 22 	sts	0x2221, r25	; 0x802221 <timeCount+0x1>
     596:	80 91 1e 22 	lds	r24, 0x221E	; 0x80221e <__data_end>
     59a:	90 91 1f 22 	lds	r25, 0x221F	; 0x80221f <__data_end+0x1>
     59e:	01 96       	adiw	r24, 0x01	; 1
     5a0:	80 93 1e 22 	sts	0x221E, r24	; 0x80221e <__data_end>
     5a4:	90 93 1f 22 	sts	0x221F, r25	; 0x80221f <__data_end+0x1>
     5a8:	e0 e0       	ldi	r30, 0x00	; 0
     5aa:	f8 e0       	ldi	r31, 0x08	; 8
     5ac:	84 85       	ldd	r24, Z+12	; 0x0c
     5ae:	81 60       	ori	r24, 0x01	; 1
     5b0:	84 87       	std	Z+12, r24	; 0x0c
     5b2:	08 95       	ret

000005b4 <CWPlatInit>:
     5b4:	cf 93       	push	r28
     5b6:	df 93       	push	r29
     5b8:	cd b7       	in	r28, 0x3d	; 61
     5ba:	de b7       	in	r29, 0x3e	; 62
     5bc:	27 97       	sbiw	r28, 0x07	; 7
     5be:	cd bf       	out	0x3d, r28	; 61
     5c0:	de bf       	out	0x3e, r29	; 62
     5c2:	7a d7       	rcall	.+3828   	; 0x14b8 <sysclk_init>
     5c4:	e0 e4       	ldi	r30, 0x40	; 64
     5c6:	f6 e0       	ldi	r31, 0x06	; 6
     5c8:	88 e0       	ldi	r24, 0x08	; 8
     5ca:	81 83       	std	Z+1, r24	; 0x01
     5cc:	84 e0       	ldi	r24, 0x04	; 4
     5ce:	82 83       	std	Z+2, r24	; 0x02
     5d0:	e0 e0       	ldi	r30, 0x00	; 0
     5d2:	f6 e0       	ldi	r31, 0x06	; 6
     5d4:	81 e0       	ldi	r24, 0x01	; 1
     5d6:	81 83       	std	Z+1, r24	; 0x01
     5d8:	80 e2       	ldi	r24, 0x20	; 32
     5da:	81 83       	std	Z+1, r24	; 0x01
     5dc:	86 83       	std	Z+6, r24	; 0x06
     5de:	80 e4       	ldi	r24, 0x40	; 64
     5e0:	81 83       	std	Z+1, r24	; 0x01
     5e2:	85 83       	std	Z+5, r24	; 0x05
     5e4:	e6 e1       	ldi	r30, 0x16	; 22
     5e6:	f0 e2       	ldi	r31, 0x20	; 32
     5e8:	84 81       	ldd	r24, Z+4	; 0x04
     5ea:	8d 83       	std	Y+5, r24	; 0x05
     5ec:	85 81       	ldd	r24, Z+5	; 0x05
     5ee:	8e 83       	std	Y+6, r24	; 0x06
     5f0:	86 81       	ldd	r24, Z+6	; 0x06
     5f2:	8f 83       	std	Y+7, r24	; 0x07
     5f4:	80 81       	ld	r24, Z
     5f6:	91 81       	ldd	r25, Z+1	; 0x01
     5f8:	a2 81       	ldd	r26, Z+2	; 0x02
     5fa:	b3 81       	ldd	r27, Z+3	; 0x03
     5fc:	89 83       	std	Y+1, r24	; 0x01
     5fe:	9a 83       	std	Y+2, r25	; 0x02
     600:	ab 83       	std	Y+3, r26	; 0x03
     602:	bc 83       	std	Y+4, r27	; 0x04
     604:	60 e1       	ldi	r22, 0x10	; 16
     606:	83 e0       	ldi	r24, 0x03	; 3
     608:	7f d7       	rcall	.+3838   	; 0x1508 <sysclk_enable_module>
     60a:	be 01       	movw	r22, r28
     60c:	6f 5f       	subi	r22, 0xFF	; 255
     60e:	7f 4f       	sbci	r23, 0xFF	; 255
     610:	80 ea       	ldi	r24, 0xA0	; 160
     612:	98 e0       	ldi	r25, 0x08	; 8
     614:	2f df       	rcall	.-418    	; 0x474 <usart_init_rs232>
     616:	87 e0       	ldi	r24, 0x07	; 7
     618:	80 93 a2 00 	sts	0x00A2, r24	; 0x8000a2 <__TEXT_REGION_LENGTH__+0x7000a2>
     61c:	80 e0       	ldi	r24, 0x00	; 0
     61e:	98 e0       	ldi	r25, 0x08	; 8
     620:	0e 94 80 0e 	call	0x1d00	; 0x1d00 <tc_enable>
     624:	62 ec       	ldi	r22, 0xC2	; 194
     626:	72 e0       	ldi	r23, 0x02	; 2
     628:	80 e0       	ldi	r24, 0x00	; 0
     62a:	98 e0       	ldi	r25, 0x08	; 8
     62c:	0e 94 ba 0e 	call	0x1d74	; 0x1d74 <tc_set_overflow_interrupt_callback>
     630:	e0 e0       	ldi	r30, 0x00	; 0
     632:	f8 e0       	ldi	r31, 0x08	; 8
     634:	81 81       	ldd	r24, Z+1	; 0x01
     636:	88 7f       	andi	r24, 0xF8	; 248
     638:	81 83       	std	Z+1, r24	; 0x01
     63a:	81 ee       	ldi	r24, 0xE1	; 225
     63c:	92 e0       	ldi	r25, 0x02	; 2
     63e:	86 a3       	std	Z+38, r24	; 0x26
     640:	97 a3       	std	Z+39, r25	; 0x27
     642:	86 81       	ldd	r24, Z+6	; 0x06
     644:	8c 7f       	andi	r24, 0xFC	; 252
     646:	86 83       	std	Z+6, r24	; 0x06
     648:	86 81       	ldd	r24, Z+6	; 0x06
     64a:	81 60       	ori	r24, 0x01	; 1
     64c:	86 83       	std	Z+6, r24	; 0x06
     64e:	78 94       	sei
     650:	80 85       	ldd	r24, Z+8	; 0x08
     652:	8e 6f       	ori	r24, 0xFE	; 254
     654:	80 87       	std	Z+8, r24	; 0x08
     656:	27 96       	adiw	r28, 0x07	; 7
     658:	cd bf       	out	0x3d, r28	; 61
     65a:	de bf       	out	0x3e, r29	; 62
     65c:	df 91       	pop	r29
     65e:	cf 91       	pop	r28
     660:	08 95       	ret

00000662 <sendUint16>:
     662:	ef 92       	push	r14
     664:	ff 92       	push	r15
     666:	0f 93       	push	r16
     668:	1f 93       	push	r17
     66a:	cf 93       	push	r28
     66c:	df 93       	push	r29
     66e:	cd b7       	in	r28, 0x3d	; 61
     670:	de b7       	in	r29, 0x3e	; 62
     672:	25 97       	sbiw	r28, 0x05	; 5
     674:	cd bf       	out	0x3d, r28	; 61
     676:	de bf       	out	0x3e, r29	; 62
     678:	fc 01       	movw	r30, r24
     67a:	60 e1       	ldi	r22, 0x10	; 16
     67c:	77 e2       	ldi	r23, 0x27	; 39
     67e:	0e 94 05 11 	call	0x220a	; 0x220a <__udivmodhi4>
     682:	69 83       	std	Y+1, r22	; 0x01
     684:	cf 01       	movw	r24, r30
     686:	68 ee       	ldi	r22, 0xE8	; 232
     688:	73 e0       	ldi	r23, 0x03	; 3
     68a:	0e 94 05 11 	call	0x220a	; 0x220a <__udivmodhi4>
     68e:	cb 01       	movw	r24, r22
     690:	2a e0       	ldi	r18, 0x0A	; 10
     692:	30 e0       	ldi	r19, 0x00	; 0
     694:	b9 01       	movw	r22, r18
     696:	0e 94 05 11 	call	0x220a	; 0x220a <__udivmodhi4>
     69a:	8a 83       	std	Y+2, r24	; 0x02
     69c:	cf 01       	movw	r24, r30
     69e:	64 e6       	ldi	r22, 0x64	; 100
     6a0:	70 e0       	ldi	r23, 0x00	; 0
     6a2:	0e 94 05 11 	call	0x220a	; 0x220a <__udivmodhi4>
     6a6:	cb 01       	movw	r24, r22
     6a8:	b9 01       	movw	r22, r18
     6aa:	0e 94 05 11 	call	0x220a	; 0x220a <__udivmodhi4>
     6ae:	8b 83       	std	Y+3, r24	; 0x03
     6b0:	cf 01       	movw	r24, r30
     6b2:	b9 01       	movw	r22, r18
     6b4:	0e 94 05 11 	call	0x220a	; 0x220a <__udivmodhi4>
     6b8:	48 2f       	mov	r20, r24
     6ba:	cb 01       	movw	r24, r22
     6bc:	b9 01       	movw	r22, r18
     6be:	0e 94 05 11 	call	0x220a	; 0x220a <__udivmodhi4>
     6c2:	8c 83       	std	Y+4, r24	; 0x04
     6c4:	4d 83       	std	Y+5, r20	; 0x05
     6c6:	8e 01       	movw	r16, r28
     6c8:	0f 5f       	subi	r16, 0xFF	; 255
     6ca:	1f 4f       	sbci	r17, 0xFF	; 255
     6cc:	7e 01       	movw	r14, r28
     6ce:	86 e0       	ldi	r24, 0x06	; 6
     6d0:	e8 0e       	add	r14, r24
     6d2:	f1 1c       	adc	r15, r1
     6d4:	f8 01       	movw	r30, r16
     6d6:	61 91       	ld	r22, Z+
     6d8:	8f 01       	movw	r16, r30
     6da:	60 5d       	subi	r22, 0xD0	; 208
     6dc:	80 ea       	ldi	r24, 0xA0	; 160
     6de:	98 e0       	ldi	r25, 0x08	; 8
     6e0:	d8 dd       	rcall	.-1104   	; 0x292 <usart_putchar>
     6e2:	0e 15       	cp	r16, r14
     6e4:	1f 05       	cpc	r17, r15
     6e6:	b1 f7       	brne	.-20     	; 0x6d4 <sendUint16+0x72>
     6e8:	6a e0       	ldi	r22, 0x0A	; 10
     6ea:	80 ea       	ldi	r24, 0xA0	; 160
     6ec:	98 e0       	ldi	r25, 0x08	; 8
     6ee:	25 96       	adiw	r28, 0x05	; 5
     6f0:	cd bf       	out	0x3d, r28	; 61
     6f2:	de bf       	out	0x3e, r29	; 62
     6f4:	df 91       	pop	r29
     6f6:	cf 91       	pop	r28
     6f8:	1f 91       	pop	r17
     6fa:	0f 91       	pop	r16
     6fc:	ff 90       	pop	r15
     6fe:	ef 90       	pop	r14
     700:	c8 cd       	rjmp	.-1136   	; 0x292 <usart_putchar>

00000702 <main>:
     702:	58 df       	rcall	.-336    	; 0x5b4 <CWPlatInit>
     704:	d0 e0       	ldi	r29, 0x00	; 0
     706:	c0 e0       	ldi	r28, 0x00	; 0
     708:	80 ea       	ldi	r24, 0xA0	; 160
     70a:	98 e0       	ldi	r25, 0x08	; 8
     70c:	ca dd       	rcall	.-1132   	; 0x2a2 <usart_getchar>
     70e:	88 37       	cpi	r24, 0x78	; 120
     710:	19 f4       	brne	.+6      	; 0x718 <main+0x16>
     712:	d0 e0       	ldi	r29, 0x00	; 0
     714:	c0 e0       	ldi	r28, 0x00	; 0
     716:	f8 cf       	rjmp	.-16     	; 0x708 <main+0x6>
     718:	8b 36       	cpi	r24, 0x6B	; 107
     71a:	19 f4       	brne	.+6      	; 0x722 <main+0x20>
     71c:	d1 e0       	ldi	r29, 0x01	; 1
     71e:	c0 e0       	ldi	r28, 0x00	; 0
     720:	f3 cf       	rjmp	.-26     	; 0x708 <main+0x6>
     722:	80 37       	cpi	r24, 0x70	; 112
     724:	19 f4       	brne	.+6      	; 0x72c <main+0x2a>
     726:	d2 e0       	ldi	r29, 0x02	; 2
     728:	c0 e0       	ldi	r28, 0x00	; 0
     72a:	ee cf       	rjmp	.-36     	; 0x708 <main+0x6>
     72c:	d1 30       	cpi	r29, 0x01	; 1
     72e:	91 f4       	brne	.+36     	; 0x754 <main+0x52>
     730:	6c 2f       	mov	r22, r28
     732:	70 e0       	ldi	r23, 0x00	; 0
     734:	fb 01       	movw	r30, r22
     736:	ee 59       	subi	r30, 0x9E	; 158
     738:	fd 4d       	sbci	r31, 0xDD	; 221
     73a:	8a 30       	cpi	r24, 0x0A	; 10
     73c:	19 f0       	breq	.+6      	; 0x744 <main+0x42>
     73e:	8d 30       	cpi	r24, 0x0D	; 13
     740:	09 f0       	breq	.+2      	; 0x744 <main+0x42>
     742:	62 c0       	rjmp	.+196    	; 0x808 <main+0x106>
     744:	10 82       	st	Z, r1
     746:	42 e0       	ldi	r20, 0x02	; 2
     748:	53 e2       	ldi	r21, 0x23	; 35
     74a:	82 e6       	ldi	r24, 0x62	; 98
     74c:	92 e2       	ldi	r25, 0x22	; 34
     74e:	bb de       	rcall	.-650    	; 0x4c6 <hex_decode>
     750:	d0 e0       	ldi	r29, 0x00	; 0
     752:	da cf       	rjmp	.-76     	; 0x708 <main+0x6>
     754:	d2 30       	cpi	r29, 0x02	; 2
     756:	c1 f6       	brne	.-80     	; 0x708 <main+0x6>
     758:	8a 30       	cpi	r24, 0x0A	; 10
     75a:	19 f0       	breq	.+6      	; 0x762 <main+0x60>
     75c:	8d 30       	cpi	r24, 0x0D	; 13
     75e:	09 f0       	breq	.+2      	; 0x762 <main+0x60>
     760:	4b c0       	rjmp	.+150    	; 0x7f8 <main+0xf6>
     762:	6c 2f       	mov	r22, r28
     764:	70 e0       	ldi	r23, 0x00	; 0
     766:	fb 01       	movw	r30, r22
     768:	ee 59       	subi	r30, 0x9E	; 158
     76a:	fd 4d       	sbci	r31, 0xDD	; 221
     76c:	10 82       	st	Z, r1
     76e:	42 ea       	ldi	r20, 0xA2	; 162
     770:	52 e2       	ldi	r21, 0x22	; 34
     772:	82 e6       	ldi	r24, 0x62	; 98
     774:	92 e2       	ldi	r25, 0x22	; 34
     776:	a7 de       	rcall	.-690    	; 0x4c6 <hex_decode>
     778:	10 92 20 08 	sts	0x0820, r1	; 0x800820 <__TEXT_REGION_LENGTH__+0x700820>
     77c:	10 92 21 08 	sts	0x0821, r1	; 0x800821 <__TEXT_REGION_LENGTH__+0x700821>
     780:	80 91 00 08 	lds	r24, 0x0800	; 0x800800 <__TEXT_REGION_LENGTH__+0x700800>
     784:	80 7f       	andi	r24, 0xF0	; 240
     786:	81 60       	ori	r24, 0x01	; 1
     788:	80 93 00 08 	sts	0x0800, r24	; 0x800800 <__TEXT_REGION_LENGTH__+0x700800>
     78c:	62 ea       	ldi	r22, 0xA2	; 162
     78e:	72 e2       	ldi	r23, 0x22	; 34
     790:	82 ef       	ldi	r24, 0xF2	; 242
     792:	92 e2       	ldi	r25, 0x22	; 34
     794:	2a d6       	rcall	.+3156   	; 0x13ea <encLuoMasked>
     796:	e0 90 20 08 	lds	r14, 0x0820	; 0x800820 <__TEXT_REGION_LENGTH__+0x700820>
     79a:	f0 90 21 08 	lds	r15, 0x0821	; 0x800821 <__TEXT_REGION_LENGTH__+0x700821>
     79e:	80 91 00 08 	lds	r24, 0x0800	; 0x800800 <__TEXT_REGION_LENGTH__+0x700800>
     7a2:	80 7f       	andi	r24, 0xF0	; 240
     7a4:	80 93 00 08 	sts	0x0800, r24	; 0x800800 <__TEXT_REGION_LENGTH__+0x700800>
     7a8:	42 e6       	ldi	r20, 0x62	; 98
     7aa:	52 e2       	ldi	r21, 0x22	; 34
     7ac:	60 e1       	ldi	r22, 0x10	; 16
     7ae:	70 e0       	ldi	r23, 0x00	; 0
     7b0:	82 ef       	ldi	r24, 0xF2	; 242
     7b2:	92 e2       	ldi	r25, 0x22	; 34
     7b4:	bc de       	rcall	.-648    	; 0x52e <hex_print>
     7b6:	62 e7       	ldi	r22, 0x72	; 114
     7b8:	80 ea       	ldi	r24, 0xA0	; 160
     7ba:	98 e0       	ldi	r25, 0x08	; 8
     7bc:	6a dd       	rcall	.-1324   	; 0x292 <usart_putchar>
     7be:	02 e6       	ldi	r16, 0x62	; 98
     7c0:	12 e2       	ldi	r17, 0x22	; 34
     7c2:	f8 01       	movw	r30, r16
     7c4:	61 91       	ld	r22, Z+
     7c6:	8f 01       	movw	r16, r30
     7c8:	80 ea       	ldi	r24, 0xA0	; 160
     7ca:	98 e0       	ldi	r25, 0x08	; 8
     7cc:	62 dd       	rcall	.-1340   	; 0x292 <usart_putchar>
     7ce:	f2 e2       	ldi	r31, 0x22	; 34
     7d0:	02 38       	cpi	r16, 0x82	; 130
     7d2:	1f 07       	cpc	r17, r31
     7d4:	b1 f7       	brne	.-20     	; 0x7c2 <main+0xc0>
     7d6:	6a e0       	ldi	r22, 0x0A	; 10
     7d8:	80 ea       	ldi	r24, 0xA0	; 160
     7da:	98 e0       	ldi	r25, 0x08	; 8
     7dc:	5a dd       	rcall	.-1356   	; 0x292 <usart_putchar>
     7de:	80 91 20 22 	lds	r24, 0x2220	; 0x802220 <timeCount>
     7e2:	90 91 21 22 	lds	r25, 0x2221	; 0x802221 <timeCount+0x1>
     7e6:	3d df       	rcall	.-390    	; 0x662 <sendUint16>
     7e8:	c7 01       	movw	r24, r14
     7ea:	3b df       	rcall	.-394    	; 0x662 <sendUint16>
     7ec:	10 92 20 22 	sts	0x2220, r1	; 0x802220 <timeCount>
     7f0:	10 92 21 22 	sts	0x2221, r1	; 0x802221 <timeCount+0x1>
     7f4:	d0 e0       	ldi	r29, 0x00	; 0
     7f6:	88 cf       	rjmp	.-240    	; 0x708 <main+0x6>
     7f8:	c0 34       	cpi	r28, 0x40	; 64
     7fa:	10 f0       	brcs	.+4      	; 0x800 <main+0xfe>
     7fc:	d0 e0       	ldi	r29, 0x00	; 0
     7fe:	84 cf       	rjmp	.-248    	; 0x708 <main+0x6>
     800:	ec 2f       	mov	r30, r28
     802:	f0 e0       	ldi	r31, 0x00	; 0
     804:	ee 59       	subi	r30, 0x9E	; 158
     806:	fd 4d       	sbci	r31, 0xDD	; 221
     808:	80 83       	st	Z, r24
     80a:	cf 5f       	subi	r28, 0xFF	; 255
     80c:	7d cf       	rjmp	.-262    	; 0x708 <main+0x6>

0000080e <roundKeyGen>:
     80e:	7f 92       	push	r7
     810:	8f 92       	push	r8
     812:	9f 92       	push	r9
     814:	af 92       	push	r10
     816:	bf 92       	push	r11
     818:	cf 92       	push	r12
     81a:	df 92       	push	r13
     81c:	ef 92       	push	r14
     81e:	ff 92       	push	r15
     820:	0f 93       	push	r16
     822:	1f 93       	push	r17
     824:	cf 93       	push	r28
     826:	df 93       	push	r29
     828:	6b 01       	movw	r12, r22
     82a:	7c 01       	movw	r14, r24
     82c:	74 2e       	mov	r7, r20
     82e:	05 2f       	mov	r16, r21
     830:	c2 e0       	ldi	r28, 0x02	; 2
     832:	d3 e2       	ldi	r29, 0x23	; 35
     834:	69 91       	ld	r22, Y+
     836:	70 e0       	ldi	r23, 0x00	; 0
     838:	80 e0       	ldi	r24, 0x00	; 0
     83a:	90 e0       	ldi	r25, 0x00	; 0
     83c:	0e 94 e0 0f 	call	0x1fc0	; 0x1fc0 <__floatunsisf>
     840:	20 e0       	ldi	r18, 0x00	; 0
     842:	30 e0       	ldi	r19, 0x00	; 0
     844:	4a e7       	ldi	r20, 0x7A	; 122
     846:	54 e4       	ldi	r21, 0x44	; 68
     848:	0e 94 4c 0f 	call	0x1e98	; 0x1e98 <__divsf3>
     84c:	2c e5       	ldi	r18, 0x5C	; 92
     84e:	3f e8       	ldi	r19, 0x8F	; 143
     850:	42 e0       	ldi	r20, 0x02	; 2
     852:	5f e3       	ldi	r21, 0x3F	; 63
     854:	0e 94 e4 0e 	call	0x1dc8	; 0x1dc8 <__addsf3>
     858:	4b 01       	movw	r8, r22
     85a:	5c 01       	movw	r10, r24
     85c:	14 e1       	ldi	r17, 0x14	; 20
     85e:	a7 01       	movw	r20, r14
     860:	96 01       	movw	r18, r12
     862:	c5 01       	movw	r24, r10
     864:	b4 01       	movw	r22, r8
     866:	0e 94 92 10 	call	0x2124	; 0x2124 <__gesf2>
     86a:	18 16       	cp	r1, r24
     86c:	4c f4       	brge	.+18     	; 0x880 <roundKeyGen+0x72>
     86e:	a5 01       	movw	r20, r10
     870:	94 01       	movw	r18, r8
     872:	c7 01       	movw	r24, r14
     874:	b6 01       	movw	r22, r12
     876:	0e 94 4c 0f 	call	0x1e98	; 0x1e98 <__divsf3>
     87a:	6b 01       	movw	r12, r22
     87c:	7c 01       	movw	r14, r24
     87e:	1a c0       	rjmp	.+52     	; 0x8b4 <roundKeyGen+0xa6>
     880:	a7 01       	movw	r20, r14
     882:	96 01       	movw	r18, r12
     884:	60 e0       	ldi	r22, 0x00	; 0
     886:	70 e0       	ldi	r23, 0x00	; 0
     888:	80 e8       	ldi	r24, 0x80	; 128
     88a:	9f e3       	ldi	r25, 0x3F	; 63
     88c:	0e 94 e3 0e 	call	0x1dc6	; 0x1dc6 <__subsf3>
     890:	6b 01       	movw	r12, r22
     892:	7c 01       	movw	r14, r24
     894:	a5 01       	movw	r20, r10
     896:	94 01       	movw	r18, r8
     898:	60 e0       	ldi	r22, 0x00	; 0
     89a:	70 e0       	ldi	r23, 0x00	; 0
     89c:	80 e8       	ldi	r24, 0x80	; 128
     89e:	9f e3       	ldi	r25, 0x3F	; 63
     8a0:	0e 94 e3 0e 	call	0x1dc6	; 0x1dc6 <__subsf3>
     8a4:	9b 01       	movw	r18, r22
     8a6:	ac 01       	movw	r20, r24
     8a8:	c7 01       	movw	r24, r14
     8aa:	b6 01       	movw	r22, r12
     8ac:	0e 94 4c 0f 	call	0x1e98	; 0x1e98 <__divsf3>
     8b0:	6b 01       	movw	r12, r22
     8b2:	7c 01       	movw	r14, r24
     8b4:	11 50       	subi	r17, 0x01	; 1
     8b6:	99 f6       	brne	.-90     	; 0x85e <roundKeyGen+0x50>
     8b8:	83 e2       	ldi	r24, 0x23	; 35
     8ba:	c2 31       	cpi	r28, 0x12	; 18
     8bc:	d8 07       	cpc	r29, r24
     8be:	09 f0       	breq	.+2      	; 0x8c2 <roundKeyGen+0xb4>
     8c0:	b9 cf       	rjmp	.-142    	; 0x834 <roundKeyGen+0x26>
     8c2:	c4 e6       	ldi	r28, 0x64	; 100
     8c4:	a7 01       	movw	r20, r14
     8c6:	96 01       	movw	r18, r12
     8c8:	c5 01       	movw	r24, r10
     8ca:	b4 01       	movw	r22, r8
     8cc:	0e 94 92 10 	call	0x2124	; 0x2124 <__gesf2>
     8d0:	18 16       	cp	r1, r24
     8d2:	4c f4       	brge	.+18     	; 0x8e6 <roundKeyGen+0xd8>
     8d4:	a5 01       	movw	r20, r10
     8d6:	94 01       	movw	r18, r8
     8d8:	c7 01       	movw	r24, r14
     8da:	b6 01       	movw	r22, r12
     8dc:	0e 94 4c 0f 	call	0x1e98	; 0x1e98 <__divsf3>
     8e0:	6b 01       	movw	r12, r22
     8e2:	7c 01       	movw	r14, r24
     8e4:	1a c0       	rjmp	.+52     	; 0x91a <roundKeyGen+0x10c>
     8e6:	a7 01       	movw	r20, r14
     8e8:	96 01       	movw	r18, r12
     8ea:	60 e0       	ldi	r22, 0x00	; 0
     8ec:	70 e0       	ldi	r23, 0x00	; 0
     8ee:	80 e8       	ldi	r24, 0x80	; 128
     8f0:	9f e3       	ldi	r25, 0x3F	; 63
     8f2:	0e 94 e3 0e 	call	0x1dc6	; 0x1dc6 <__subsf3>
     8f6:	6b 01       	movw	r12, r22
     8f8:	7c 01       	movw	r14, r24
     8fa:	a5 01       	movw	r20, r10
     8fc:	94 01       	movw	r18, r8
     8fe:	60 e0       	ldi	r22, 0x00	; 0
     900:	70 e0       	ldi	r23, 0x00	; 0
     902:	80 e8       	ldi	r24, 0x80	; 128
     904:	9f e3       	ldi	r25, 0x3F	; 63
     906:	0e 94 e3 0e 	call	0x1dc6	; 0x1dc6 <__subsf3>
     90a:	9b 01       	movw	r18, r22
     90c:	ac 01       	movw	r20, r24
     90e:	c7 01       	movw	r24, r14
     910:	b6 01       	movw	r22, r12
     912:	0e 94 4c 0f 	call	0x1e98	; 0x1e98 <__divsf3>
     916:	6b 01       	movw	r12, r22
     918:	7c 01       	movw	r14, r24
     91a:	c1 50       	subi	r28, 0x01	; 1
     91c:	99 f6       	brne	.-90     	; 0x8c4 <roundKeyGen+0xb6>
     91e:	c7 2d       	mov	r28, r7
     920:	d0 2f       	mov	r29, r16
     922:	8e 01       	movw	r16, r28
     924:	00 5d       	subi	r16, 0xD0	; 208
     926:	1f 4f       	sbci	r17, 0xFF	; 255
     928:	a7 01       	movw	r20, r14
     92a:	96 01       	movw	r18, r12
     92c:	c5 01       	movw	r24, r10
     92e:	b4 01       	movw	r22, r8
     930:	0e 94 92 10 	call	0x2124	; 0x2124 <__gesf2>
     934:	18 16       	cp	r1, r24
     936:	4c f4       	brge	.+18     	; 0x94a <roundKeyGen+0x13c>
     938:	a5 01       	movw	r20, r10
     93a:	94 01       	movw	r18, r8
     93c:	c7 01       	movw	r24, r14
     93e:	b6 01       	movw	r22, r12
     940:	0e 94 4c 0f 	call	0x1e98	; 0x1e98 <__divsf3>
     944:	6b 01       	movw	r12, r22
     946:	7c 01       	movw	r14, r24
     948:	1a c0       	rjmp	.+52     	; 0x97e <roundKeyGen+0x170>
     94a:	a7 01       	movw	r20, r14
     94c:	96 01       	movw	r18, r12
     94e:	60 e0       	ldi	r22, 0x00	; 0
     950:	70 e0       	ldi	r23, 0x00	; 0
     952:	80 e8       	ldi	r24, 0x80	; 128
     954:	9f e3       	ldi	r25, 0x3F	; 63
     956:	0e 94 e3 0e 	call	0x1dc6	; 0x1dc6 <__subsf3>
     95a:	6b 01       	movw	r12, r22
     95c:	7c 01       	movw	r14, r24
     95e:	a5 01       	movw	r20, r10
     960:	94 01       	movw	r18, r8
     962:	60 e0       	ldi	r22, 0x00	; 0
     964:	70 e0       	ldi	r23, 0x00	; 0
     966:	80 e8       	ldi	r24, 0x80	; 128
     968:	9f e3       	ldi	r25, 0x3F	; 63
     96a:	0e 94 e3 0e 	call	0x1dc6	; 0x1dc6 <__subsf3>
     96e:	9b 01       	movw	r18, r22
     970:	ac 01       	movw	r20, r24
     972:	c7 01       	movw	r24, r14
     974:	b6 01       	movw	r22, r12
     976:	0e 94 4c 0f 	call	0x1e98	; 0x1e98 <__divsf3>
     97a:	6b 01       	movw	r12, r22
     97c:	7c 01       	movw	r14, r24
     97e:	20 e0       	ldi	r18, 0x00	; 0
     980:	30 e0       	ldi	r19, 0x00	; 0
     982:	40 e8       	ldi	r20, 0x80	; 128
     984:	53 e4       	ldi	r21, 0x43	; 67
     986:	c7 01       	movw	r24, r14
     988:	b6 01       	movw	r22, r12
     98a:	0e 94 96 10 	call	0x212c	; 0x212c <__mulsf3>
     98e:	0e 94 b4 0f 	call	0x1f68	; 0x1f68 <__fixunssfsi>
     992:	69 93       	st	Y+, r22
     994:	0c 17       	cp	r16, r28
     996:	1d 07       	cpc	r17, r29
     998:	39 f6       	brne	.-114    	; 0x928 <roundKeyGen+0x11a>
     99a:	a7 01       	movw	r20, r14
     99c:	96 01       	movw	r18, r12
     99e:	c5 01       	movw	r24, r10
     9a0:	b4 01       	movw	r22, r8
     9a2:	0e 94 92 10 	call	0x2124	; 0x2124 <__gesf2>
     9a6:	18 16       	cp	r1, r24
     9a8:	3c f4       	brge	.+14     	; 0x9b8 <roundKeyGen+0x1aa>
     9aa:	a5 01       	movw	r20, r10
     9ac:	94 01       	movw	r18, r8
     9ae:	c7 01       	movw	r24, r14
     9b0:	b6 01       	movw	r22, r12
     9b2:	0e 94 4c 0f 	call	0x1e98	; 0x1e98 <__divsf3>
     9b6:	18 c0       	rjmp	.+48     	; 0x9e8 <roundKeyGen+0x1da>
     9b8:	a7 01       	movw	r20, r14
     9ba:	96 01       	movw	r18, r12
     9bc:	60 e0       	ldi	r22, 0x00	; 0
     9be:	70 e0       	ldi	r23, 0x00	; 0
     9c0:	80 e8       	ldi	r24, 0x80	; 128
     9c2:	9f e3       	ldi	r25, 0x3F	; 63
     9c4:	0e 94 e3 0e 	call	0x1dc6	; 0x1dc6 <__subsf3>
     9c8:	6b 01       	movw	r12, r22
     9ca:	7c 01       	movw	r14, r24
     9cc:	a5 01       	movw	r20, r10
     9ce:	94 01       	movw	r18, r8
     9d0:	60 e0       	ldi	r22, 0x00	; 0
     9d2:	70 e0       	ldi	r23, 0x00	; 0
     9d4:	80 e8       	ldi	r24, 0x80	; 128
     9d6:	9f e3       	ldi	r25, 0x3F	; 63
     9d8:	0e 94 e3 0e 	call	0x1dc6	; 0x1dc6 <__subsf3>
     9dc:	9b 01       	movw	r18, r22
     9de:	ac 01       	movw	r20, r24
     9e0:	c7 01       	movw	r24, r14
     9e2:	b6 01       	movw	r22, r12
     9e4:	0e 94 4c 0f 	call	0x1e98	; 0x1e98 <__divsf3>
     9e8:	60 93 32 22 	sts	0x2232, r22	; 0x802232 <seed>
     9ec:	70 93 33 22 	sts	0x2233, r23	; 0x802233 <seed+0x1>
     9f0:	80 93 34 22 	sts	0x2234, r24	; 0x802234 <seed+0x2>
     9f4:	90 93 35 22 	sts	0x2235, r25	; 0x802235 <seed+0x3>
     9f8:	df 91       	pop	r29
     9fa:	cf 91       	pop	r28
     9fc:	1f 91       	pop	r17
     9fe:	0f 91       	pop	r16
     a00:	ff 90       	pop	r15
     a02:	ef 90       	pop	r14
     a04:	df 90       	pop	r13
     a06:	cf 90       	pop	r12
     a08:	bf 90       	pop	r11
     a0a:	af 90       	pop	r10
     a0c:	9f 90       	pop	r9
     a0e:	8f 90       	pop	r8
     a10:	7f 90       	pop	r7
     a12:	08 95       	ret

00000a14 <encInit>:
     a14:	42 e1       	ldi	r20, 0x12	; 18
     a16:	53 e2       	ldi	r21, 0x23	; 35
     a18:	67 e6       	ldi	r22, 0x67	; 103
     a1a:	74 e4       	ldi	r23, 0x44	; 68
     a1c:	89 e1       	ldi	r24, 0x19	; 25
     a1e:	9f e3       	ldi	r25, 0x3F	; 63
     a20:	f6 ce       	rjmp	.-532    	; 0x80e <roundKeyGen>

00000a22 <genDiffNum>:
     a22:	3f 92       	push	r3
     a24:	4f 92       	push	r4
     a26:	5f 92       	push	r5
     a28:	6f 92       	push	r6
     a2a:	7f 92       	push	r7
     a2c:	8f 92       	push	r8
     a2e:	9f 92       	push	r9
     a30:	af 92       	push	r10
     a32:	bf 92       	push	r11
     a34:	cf 92       	push	r12
     a36:	df 92       	push	r13
     a38:	ef 92       	push	r14
     a3a:	ff 92       	push	r15
     a3c:	0f 93       	push	r16
     a3e:	1f 93       	push	r17
     a40:	cf 93       	push	r28
     a42:	df 93       	push	r29
     a44:	4b 01       	movw	r8, r22
     a46:	5c 01       	movw	r10, r24
     a48:	29 01       	movw	r4, r18
     a4a:	3a 01       	movw	r6, r20
     a4c:	80 2f       	mov	r24, r16
     a4e:	90 e0       	ldi	r25, 0x00	; 0
     a50:	0e 94 43 11 	call	0x2286	; 0x2286 <malloc>
     a54:	ec 01       	movw	r28, r24
     a56:	d8 2e       	mov	r13, r24
     a58:	3d 2e       	mov	r3, r29
     a5a:	40 96       	adiw	r24, 0x10	; 16
     a5c:	ec 2f       	mov	r30, r28
     a5e:	fd 2f       	mov	r31, r29
     a60:	11 92       	st	Z+, r1
     a62:	e8 17       	cp	r30, r24
     a64:	f9 07       	cpc	r31, r25
     a66:	e1 f7       	brne	.-8      	; 0xa60 <genDiffNum+0x3e>
     a68:	10 e0       	ldi	r17, 0x00	; 0
     a6a:	cc 24       	eor	r12, r12
     a6c:	c3 94       	inc	r12
     a6e:	a5 01       	movw	r20, r10
     a70:	94 01       	movw	r18, r8
     a72:	c3 01       	movw	r24, r6
     a74:	b2 01       	movw	r22, r4
     a76:	0e 94 92 10 	call	0x2124	; 0x2124 <__gesf2>
     a7a:	18 16       	cp	r1, r24
     a7c:	dc f0       	brlt	.+54     	; 0xab4 <genDiffNum+0x92>
     a7e:	a5 01       	movw	r20, r10
     a80:	94 01       	movw	r18, r8
     a82:	60 e0       	ldi	r22, 0x00	; 0
     a84:	70 e0       	ldi	r23, 0x00	; 0
     a86:	80 e8       	ldi	r24, 0x80	; 128
     a88:	9f e3       	ldi	r25, 0x3F	; 63
     a8a:	0e 94 e3 0e 	call	0x1dc6	; 0x1dc6 <__subsf3>
     a8e:	4b 01       	movw	r8, r22
     a90:	5c 01       	movw	r10, r24
     a92:	a3 01       	movw	r20, r6
     a94:	92 01       	movw	r18, r4
     a96:	60 e0       	ldi	r22, 0x00	; 0
     a98:	70 e0       	ldi	r23, 0x00	; 0
     a9a:	80 e8       	ldi	r24, 0x80	; 128
     a9c:	9f e3       	ldi	r25, 0x3F	; 63
     a9e:	0e 94 e3 0e 	call	0x1dc6	; 0x1dc6 <__subsf3>
     aa2:	9b 01       	movw	r18, r22
     aa4:	ac 01       	movw	r20, r24
     aa6:	c5 01       	movw	r24, r10
     aa8:	b4 01       	movw	r22, r8
     aaa:	0e 94 4c 0f 	call	0x1e98	; 0x1e98 <__divsf3>
     aae:	4b 01       	movw	r8, r22
     ab0:	5c 01       	movw	r10, r24
     ab2:	08 c0       	rjmp	.+16     	; 0xac4 <genDiffNum+0xa2>
     ab4:	a3 01       	movw	r20, r6
     ab6:	92 01       	movw	r18, r4
     ab8:	c5 01       	movw	r24, r10
     aba:	b4 01       	movw	r22, r8
     abc:	0e 94 4c 0f 	call	0x1e98	; 0x1e98 <__divsf3>
     ac0:	4b 01       	movw	r8, r22
     ac2:	5c 01       	movw	r10, r24
     ac4:	a5 01       	movw	r20, r10
     ac6:	94 01       	movw	r18, r8
     ac8:	c3 01       	movw	r24, r6
     aca:	b2 01       	movw	r22, r4
     acc:	0e 94 92 10 	call	0x2124	; 0x2124 <__gesf2>
     ad0:	18 16       	cp	r1, r24
     ad2:	dc f0       	brlt	.+54     	; 0xb0a <genDiffNum+0xe8>
     ad4:	a5 01       	movw	r20, r10
     ad6:	94 01       	movw	r18, r8
     ad8:	60 e0       	ldi	r22, 0x00	; 0
     ada:	70 e0       	ldi	r23, 0x00	; 0
     adc:	80 e8       	ldi	r24, 0x80	; 128
     ade:	9f e3       	ldi	r25, 0x3F	; 63
     ae0:	0e 94 e3 0e 	call	0x1dc6	; 0x1dc6 <__subsf3>
     ae4:	4b 01       	movw	r8, r22
     ae6:	5c 01       	movw	r10, r24
     ae8:	a3 01       	movw	r20, r6
     aea:	92 01       	movw	r18, r4
     aec:	60 e0       	ldi	r22, 0x00	; 0
     aee:	70 e0       	ldi	r23, 0x00	; 0
     af0:	80 e8       	ldi	r24, 0x80	; 128
     af2:	9f e3       	ldi	r25, 0x3F	; 63
     af4:	0e 94 e3 0e 	call	0x1dc6	; 0x1dc6 <__subsf3>
     af8:	9b 01       	movw	r18, r22
     afa:	ac 01       	movw	r20, r24
     afc:	c5 01       	movw	r24, r10
     afe:	b4 01       	movw	r22, r8
     b00:	0e 94 4c 0f 	call	0x1e98	; 0x1e98 <__divsf3>
     b04:	4b 01       	movw	r8, r22
     b06:	5c 01       	movw	r10, r24
     b08:	08 c0       	rjmp	.+16     	; 0xb1a <genDiffNum+0xf8>
     b0a:	a3 01       	movw	r20, r6
     b0c:	92 01       	movw	r18, r4
     b0e:	c5 01       	movw	r24, r10
     b10:	b4 01       	movw	r22, r8
     b12:	0e 94 4c 0f 	call	0x1e98	; 0x1e98 <__divsf3>
     b16:	4b 01       	movw	r8, r22
     b18:	5c 01       	movw	r10, r24
     b1a:	20 e0       	ldi	r18, 0x00	; 0
     b1c:	30 e0       	ldi	r19, 0x00	; 0
     b1e:	4f e7       	ldi	r20, 0x7F	; 127
     b20:	53 e4       	ldi	r21, 0x43	; 67
     b22:	c5 01       	movw	r24, r10
     b24:	b4 01       	movw	r22, r8
     b26:	0e 94 96 10 	call	0x212c	; 0x212c <__mulsf3>
     b2a:	0e 94 b4 0f 	call	0x1f68	; 0x1f68 <__fixunssfsi>
     b2e:	86 2f       	mov	r24, r22
     b30:	60 2f       	mov	r22, r16
     b32:	0e 94 f9 10 	call	0x21f2	; 0x21f2 <__udivmodqi4>
     b36:	fe 01       	movw	r30, r28
     b38:	e9 0f       	add	r30, r25
     b3a:	f1 1d       	adc	r31, r1
     b3c:	80 81       	ld	r24, Z
     b3e:	81 11       	cpse	r24, r1
     b40:	07 c0       	rjmp	.+14     	; 0xb50 <genDiffNum+0x12e>
     b42:	d7 01       	movw	r26, r14
     b44:	a1 0f       	add	r26, r17
     b46:	b1 1d       	adc	r27, r1
     b48:	9c 93       	st	X, r25
     b4a:	c0 82       	st	Z, r12
     b4c:	1f 5f       	subi	r17, 0xFF	; 255
     b4e:	10 c0       	rjmp	.+32     	; 0xb70 <genDiffNum+0x14e>
     b50:	26 e6       	ldi	r18, 0x66	; 102
     b52:	36 e6       	ldi	r19, 0x66	; 102
     b54:	46 e6       	ldi	r20, 0x66	; 102
     b56:	5f e3       	ldi	r21, 0x3F	; 63
     b58:	c5 01       	movw	r24, r10
     b5a:	b4 01       	movw	r22, r8
     b5c:	0e 94 96 10 	call	0x212c	; 0x212c <__mulsf3>
     b60:	2d ec       	ldi	r18, 0xCD	; 205
     b62:	3c ec       	ldi	r19, 0xCC	; 204
     b64:	4c e4       	ldi	r20, 0x4C	; 76
     b66:	5d e3       	ldi	r21, 0x3D	; 61
     b68:	0e 94 e4 0e 	call	0x1dc8	; 0x1dc8 <__addsf3>
     b6c:	4b 01       	movw	r8, r22
     b6e:	5c 01       	movw	r10, r24
     b70:	ed 2d       	mov	r30, r13
     b72:	f3 2d       	mov	r31, r3
     b74:	80 e0       	ldi	r24, 0x00	; 0
     b76:	9e 2f       	mov	r25, r30
     b78:	9d 19       	sub	r25, r13
     b7a:	90 17       	cp	r25, r16
     b7c:	18 f4       	brcc	.+6      	; 0xb84 <genDiffNum+0x162>
     b7e:	91 91       	ld	r25, Z+
     b80:	89 0f       	add	r24, r25
     b82:	f9 cf       	rjmp	.-14     	; 0xb76 <genDiffNum+0x154>
     b84:	80 31       	cpi	r24, 0x10	; 16
     b86:	08 f4       	brcc	.+2      	; 0xb8a <genDiffNum+0x168>
     b88:	72 cf       	rjmp	.-284    	; 0xa6e <genDiffNum+0x4c>
     b8a:	ce 01       	movw	r24, r28
     b8c:	df 91       	pop	r29
     b8e:	cf 91       	pop	r28
     b90:	1f 91       	pop	r17
     b92:	0f 91       	pop	r16
     b94:	ff 90       	pop	r15
     b96:	ef 90       	pop	r14
     b98:	df 90       	pop	r13
     b9a:	cf 90       	pop	r12
     b9c:	bf 90       	pop	r11
     b9e:	af 90       	pop	r10
     ba0:	9f 90       	pop	r9
     ba2:	8f 90       	pop	r8
     ba4:	7f 90       	pop	r7
     ba6:	6f 90       	pop	r6
     ba8:	5f 90       	pop	r5
     baa:	4f 90       	pop	r4
     bac:	3f 90       	pop	r3
     bae:	0c 94 db 11 	jmp	0x23b6	; 0x23b6 <free>

00000bb2 <mask_gen>:
     bb2:	4f 92       	push	r4
     bb4:	5f 92       	push	r5
     bb6:	6f 92       	push	r6
     bb8:	7f 92       	push	r7
     bba:	8f 92       	push	r8
     bbc:	9f 92       	push	r9
     bbe:	af 92       	push	r10
     bc0:	bf 92       	push	r11
     bc2:	cf 92       	push	r12
     bc4:	df 92       	push	r13
     bc6:	ef 92       	push	r14
     bc8:	ff 92       	push	r15
     bca:	0f 93       	push	r16
     bcc:	1f 93       	push	r17
     bce:	cf 93       	push	r28
     bd0:	df 93       	push	r29
     bd2:	6b 01       	movw	r12, r22
     bd4:	7c 01       	movw	r14, r24
     bd6:	c2 e4       	ldi	r28, 0x42	; 66
     bd8:	d3 e2       	ldi	r29, 0x23	; 35
     bda:	69 91       	ld	r22, Y+
     bdc:	70 e0       	ldi	r23, 0x00	; 0
     bde:	80 e0       	ldi	r24, 0x00	; 0
     be0:	90 e0       	ldi	r25, 0x00	; 0
     be2:	0e 94 e2 0f 	call	0x1fc4	; 0x1fc4 <__floatsisf>
     be6:	2f e6       	ldi	r18, 0x6F	; 111
     be8:	32 e1       	ldi	r19, 0x12	; 18
     bea:	43 e8       	ldi	r20, 0x83	; 131
     bec:	5a e3       	ldi	r21, 0x3A	; 58
     bee:	0e 94 96 10 	call	0x212c	; 0x212c <__mulsf3>
     bf2:	2c e5       	ldi	r18, 0x5C	; 92
     bf4:	3f e8       	ldi	r19, 0x8F	; 143
     bf6:	42 e0       	ldi	r20, 0x02	; 2
     bf8:	5f e3       	ldi	r21, 0x3F	; 63
     bfa:	0e 94 e4 0e 	call	0x1dc8	; 0x1dc8 <__addsf3>
     bfe:	4b 01       	movw	r8, r22
     c00:	5c 01       	movw	r10, r24
     c02:	1a e0       	ldi	r17, 0x0A	; 10
     c04:	a7 01       	movw	r20, r14
     c06:	96 01       	movw	r18, r12
     c08:	c5 01       	movw	r24, r10
     c0a:	b4 01       	movw	r22, r8
     c0c:	0e 94 92 10 	call	0x2124	; 0x2124 <__gesf2>
     c10:	18 16       	cp	r1, r24
     c12:	4c f4       	brge	.+18     	; 0xc26 <mask_gen+0x74>
     c14:	a5 01       	movw	r20, r10
     c16:	94 01       	movw	r18, r8
     c18:	c7 01       	movw	r24, r14
     c1a:	b6 01       	movw	r22, r12
     c1c:	0e 94 4c 0f 	call	0x1e98	; 0x1e98 <__divsf3>
     c20:	6b 01       	movw	r12, r22
     c22:	7c 01       	movw	r14, r24
     c24:	1a c0       	rjmp	.+52     	; 0xc5a <mask_gen+0xa8>
     c26:	a7 01       	movw	r20, r14
     c28:	96 01       	movw	r18, r12
     c2a:	60 e0       	ldi	r22, 0x00	; 0
     c2c:	70 e0       	ldi	r23, 0x00	; 0
     c2e:	80 e8       	ldi	r24, 0x80	; 128
     c30:	9f e3       	ldi	r25, 0x3F	; 63
     c32:	0e 94 e3 0e 	call	0x1dc6	; 0x1dc6 <__subsf3>
     c36:	6b 01       	movw	r12, r22
     c38:	7c 01       	movw	r14, r24
     c3a:	a5 01       	movw	r20, r10
     c3c:	94 01       	movw	r18, r8
     c3e:	60 e0       	ldi	r22, 0x00	; 0
     c40:	70 e0       	ldi	r23, 0x00	; 0
     c42:	80 e8       	ldi	r24, 0x80	; 128
     c44:	9f e3       	ldi	r25, 0x3F	; 63
     c46:	0e 94 e3 0e 	call	0x1dc6	; 0x1dc6 <__subsf3>
     c4a:	9b 01       	movw	r18, r22
     c4c:	ac 01       	movw	r20, r24
     c4e:	c7 01       	movw	r24, r14
     c50:	b6 01       	movw	r22, r12
     c52:	0e 94 4c 0f 	call	0x1e98	; 0x1e98 <__divsf3>
     c56:	6b 01       	movw	r12, r22
     c58:	7c 01       	movw	r14, r24
     c5a:	11 50       	subi	r17, 0x01	; 1
     c5c:	99 f6       	brne	.-90     	; 0xc04 <mask_gen+0x52>
     c5e:	83 e2       	ldi	r24, 0x23	; 35
     c60:	c2 35       	cpi	r28, 0x52	; 82
     c62:	d8 07       	cpc	r29, r24
     c64:	09 f0       	breq	.+2      	; 0xc68 <mask_gen+0xb6>
     c66:	b9 cf       	rjmp	.-142    	; 0xbda <mask_gen+0x28>
     c68:	a7 01       	movw	r20, r14
     c6a:	96 01       	movw	r18, r12
     c6c:	c5 01       	movw	r24, r10
     c6e:	b4 01       	movw	r22, r8
     c70:	0e 94 92 10 	call	0x2124	; 0x2124 <__gesf2>
     c74:	18 16       	cp	r1, r24
     c76:	4c f4       	brge	.+18     	; 0xc8a <mask_gen+0xd8>
     c78:	a5 01       	movw	r20, r10
     c7a:	94 01       	movw	r18, r8
     c7c:	c7 01       	movw	r24, r14
     c7e:	b6 01       	movw	r22, r12
     c80:	0e 94 4c 0f 	call	0x1e98	; 0x1e98 <__divsf3>
     c84:	6b 01       	movw	r12, r22
     c86:	7c 01       	movw	r14, r24
     c88:	1a c0       	rjmp	.+52     	; 0xcbe <mask_gen+0x10c>
     c8a:	a7 01       	movw	r20, r14
     c8c:	96 01       	movw	r18, r12
     c8e:	60 e0       	ldi	r22, 0x00	; 0
     c90:	70 e0       	ldi	r23, 0x00	; 0
     c92:	80 e8       	ldi	r24, 0x80	; 128
     c94:	9f e3       	ldi	r25, 0x3F	; 63
     c96:	0e 94 e3 0e 	call	0x1dc6	; 0x1dc6 <__subsf3>
     c9a:	6b 01       	movw	r12, r22
     c9c:	7c 01       	movw	r14, r24
     c9e:	a5 01       	movw	r20, r10
     ca0:	94 01       	movw	r18, r8
     ca2:	60 e0       	ldi	r22, 0x00	; 0
     ca4:	70 e0       	ldi	r23, 0x00	; 0
     ca6:	80 e8       	ldi	r24, 0x80	; 128
     ca8:	9f e3       	ldi	r25, 0x3F	; 63
     caa:	0e 94 e3 0e 	call	0x1dc6	; 0x1dc6 <__subsf3>
     cae:	9b 01       	movw	r18, r22
     cb0:	ac 01       	movw	r20, r24
     cb2:	c7 01       	movw	r24, r14
     cb4:	b6 01       	movw	r22, r12
     cb6:	0e 94 4c 0f 	call	0x1e98	; 0x1e98 <__divsf3>
     cba:	6b 01       	movw	r12, r22
     cbc:	7c 01       	movw	r14, r24
     cbe:	20 e0       	ldi	r18, 0x00	; 0
     cc0:	30 e0       	ldi	r19, 0x00	; 0
     cc2:	4f e7       	ldi	r20, 0x7F	; 127
     cc4:	53 e4       	ldi	r21, 0x43	; 67
     cc6:	c7 01       	movw	r24, r14
     cc8:	b6 01       	movw	r22, r12
     cca:	0e 94 96 10 	call	0x212c	; 0x212c <__mulsf3>
     cce:	0e 94 b4 0f 	call	0x1f68	; 0x1f68 <__fixunssfsi>
     cd2:	60 93 52 23 	sts	0x2352, r22	; 0x802352 <s_mask_1>
     cd6:	a7 01       	movw	r20, r14
     cd8:	96 01       	movw	r18, r12
     cda:	c5 01       	movw	r24, r10
     cdc:	b4 01       	movw	r22, r8
     cde:	0e 94 92 10 	call	0x2124	; 0x2124 <__gesf2>
     ce2:	18 16       	cp	r1, r24
     ce4:	4c f4       	brge	.+18     	; 0xcf8 <mask_gen+0x146>
     ce6:	a5 01       	movw	r20, r10
     ce8:	94 01       	movw	r18, r8
     cea:	c7 01       	movw	r24, r14
     cec:	b6 01       	movw	r22, r12
     cee:	0e 94 4c 0f 	call	0x1e98	; 0x1e98 <__divsf3>
     cf2:	6b 01       	movw	r12, r22
     cf4:	7c 01       	movw	r14, r24
     cf6:	1a c0       	rjmp	.+52     	; 0xd2c <mask_gen+0x17a>
     cf8:	a7 01       	movw	r20, r14
     cfa:	96 01       	movw	r18, r12
     cfc:	60 e0       	ldi	r22, 0x00	; 0
     cfe:	70 e0       	ldi	r23, 0x00	; 0
     d00:	80 e8       	ldi	r24, 0x80	; 128
     d02:	9f e3       	ldi	r25, 0x3F	; 63
     d04:	0e 94 e3 0e 	call	0x1dc6	; 0x1dc6 <__subsf3>
     d08:	6b 01       	movw	r12, r22
     d0a:	7c 01       	movw	r14, r24
     d0c:	a5 01       	movw	r20, r10
     d0e:	94 01       	movw	r18, r8
     d10:	60 e0       	ldi	r22, 0x00	; 0
     d12:	70 e0       	ldi	r23, 0x00	; 0
     d14:	80 e8       	ldi	r24, 0x80	; 128
     d16:	9f e3       	ldi	r25, 0x3F	; 63
     d18:	0e 94 e3 0e 	call	0x1dc6	; 0x1dc6 <__subsf3>
     d1c:	9b 01       	movw	r18, r22
     d1e:	ac 01       	movw	r20, r24
     d20:	c7 01       	movw	r24, r14
     d22:	b6 01       	movw	r22, r12
     d24:	0e 94 4c 0f 	call	0x1e98	; 0x1e98 <__divsf3>
     d28:	6b 01       	movw	r12, r22
     d2a:	7c 01       	movw	r14, r24
     d2c:	20 e0       	ldi	r18, 0x00	; 0
     d2e:	30 e0       	ldi	r19, 0x00	; 0
     d30:	4f e7       	ldi	r20, 0x7F	; 127
     d32:	53 e4       	ldi	r21, 0x43	; 67
     d34:	c7 01       	movw	r24, r14
     d36:	b6 01       	movw	r22, r12
     d38:	0e 94 96 10 	call	0x212c	; 0x212c <__mulsf3>
     d3c:	0e 94 b4 0f 	call	0x1f68	; 0x1f68 <__fixunssfsi>
     d40:	60 93 64 24 	sts	0x2464, r22	; 0x802464 <s_mask_2>
     d44:	c3 e5       	ldi	r28, 0x53	; 83
     d46:	d3 e2       	ldi	r29, 0x23	; 35
     d48:	03 e6       	ldi	r16, 0x63	; 99
     d4a:	13 e2       	ldi	r17, 0x23	; 35
     d4c:	a7 01       	movw	r20, r14
     d4e:	96 01       	movw	r18, r12
     d50:	c5 01       	movw	r24, r10
     d52:	b4 01       	movw	r22, r8
     d54:	0e 94 92 10 	call	0x2124	; 0x2124 <__gesf2>
     d58:	18 16       	cp	r1, r24
     d5a:	4c f4       	brge	.+18     	; 0xd6e <mask_gen+0x1bc>
     d5c:	a5 01       	movw	r20, r10
     d5e:	94 01       	movw	r18, r8
     d60:	c7 01       	movw	r24, r14
     d62:	b6 01       	movw	r22, r12
     d64:	0e 94 4c 0f 	call	0x1e98	; 0x1e98 <__divsf3>
     d68:	6b 01       	movw	r12, r22
     d6a:	7c 01       	movw	r14, r24
     d6c:	1a c0       	rjmp	.+52     	; 0xda2 <mask_gen+0x1f0>
     d6e:	a7 01       	movw	r20, r14
     d70:	96 01       	movw	r18, r12
     d72:	60 e0       	ldi	r22, 0x00	; 0
     d74:	70 e0       	ldi	r23, 0x00	; 0
     d76:	80 e8       	ldi	r24, 0x80	; 128
     d78:	9f e3       	ldi	r25, 0x3F	; 63
     d7a:	0e 94 e3 0e 	call	0x1dc6	; 0x1dc6 <__subsf3>
     d7e:	6b 01       	movw	r12, r22
     d80:	7c 01       	movw	r14, r24
     d82:	a5 01       	movw	r20, r10
     d84:	94 01       	movw	r18, r8
     d86:	60 e0       	ldi	r22, 0x00	; 0
     d88:	70 e0       	ldi	r23, 0x00	; 0
     d8a:	80 e8       	ldi	r24, 0x80	; 128
     d8c:	9f e3       	ldi	r25, 0x3F	; 63
     d8e:	0e 94 e3 0e 	call	0x1dc6	; 0x1dc6 <__subsf3>
     d92:	9b 01       	movw	r18, r22
     d94:	ac 01       	movw	r20, r24
     d96:	c7 01       	movw	r24, r14
     d98:	b6 01       	movw	r22, r12
     d9a:	0e 94 4c 0f 	call	0x1e98	; 0x1e98 <__divsf3>
     d9e:	6b 01       	movw	r12, r22
     da0:	7c 01       	movw	r14, r24
     da2:	20 e0       	ldi	r18, 0x00	; 0
     da4:	30 e0       	ldi	r19, 0x00	; 0
     da6:	4f e7       	ldi	r20, 0x7F	; 127
     da8:	53 e4       	ldi	r21, 0x43	; 67
     daa:	c7 01       	movw	r24, r14
     dac:	b6 01       	movw	r22, r12
     dae:	0e 94 96 10 	call	0x212c	; 0x212c <__mulsf3>
     db2:	0e 94 b4 0f 	call	0x1f68	; 0x1f68 <__fixunssfsi>
     db6:	69 93       	st	Y+, r22
     db8:	0c 17       	cp	r16, r28
     dba:	1d 07       	cpc	r17, r29
     dbc:	39 f6       	brne	.-114    	; 0xd4c <mask_gen+0x19a>
     dbe:	a7 01       	movw	r20, r14
     dc0:	96 01       	movw	r18, r12
     dc2:	c5 01       	movw	r24, r10
     dc4:	b4 01       	movw	r22, r8
     dc6:	0e 94 92 10 	call	0x2124	; 0x2124 <__gesf2>
     dca:	18 16       	cp	r1, r24
     dcc:	4c f4       	brge	.+18     	; 0xde0 <mask_gen+0x22e>
     dce:	a5 01       	movw	r20, r10
     dd0:	94 01       	movw	r18, r8
     dd2:	c7 01       	movw	r24, r14
     dd4:	b6 01       	movw	r22, r12
     dd6:	0e 94 4c 0f 	call	0x1e98	; 0x1e98 <__divsf3>
     dda:	2b 01       	movw	r4, r22
     ddc:	3c 01       	movw	r6, r24
     dde:	18 c0       	rjmp	.+48     	; 0xe10 <mask_gen+0x25e>
     de0:	a7 01       	movw	r20, r14
     de2:	96 01       	movw	r18, r12
     de4:	60 e0       	ldi	r22, 0x00	; 0
     de6:	70 e0       	ldi	r23, 0x00	; 0
     de8:	80 e8       	ldi	r24, 0x80	; 128
     dea:	9f e3       	ldi	r25, 0x3F	; 63
     dec:	ec d7       	rcall	.+4056   	; 0x1dc6 <__subsf3>
     dee:	6b 01       	movw	r12, r22
     df0:	7c 01       	movw	r14, r24
     df2:	a5 01       	movw	r20, r10
     df4:	94 01       	movw	r18, r8
     df6:	60 e0       	ldi	r22, 0x00	; 0
     df8:	70 e0       	ldi	r23, 0x00	; 0
     dfa:	80 e8       	ldi	r24, 0x80	; 128
     dfc:	9f e3       	ldi	r25, 0x3F	; 63
     dfe:	e3 d7       	rcall	.+4038   	; 0x1dc6 <__subsf3>
     e00:	9b 01       	movw	r18, r22
     e02:	ac 01       	movw	r20, r24
     e04:	c7 01       	movw	r24, r14
     e06:	b6 01       	movw	r22, r12
     e08:	0e 94 4c 0f 	call	0x1e98	; 0x1e98 <__divsf3>
     e0c:	2b 01       	movw	r4, r22
     e0e:	3c 01       	movw	r6, r24
     e10:	20 e0       	ldi	r18, 0x00	; 0
     e12:	30 e0       	ldi	r19, 0x00	; 0
     e14:	4f e7       	ldi	r20, 0x7F	; 127
     e16:	53 e4       	ldi	r21, 0x43	; 67
     e18:	c3 01       	movw	r24, r6
     e1a:	b2 01       	movw	r22, r4
     e1c:	0e 94 96 10 	call	0x212c	; 0x212c <__mulsf3>
     e20:	0e 94 b4 0f 	call	0x1f68	; 0x1f68 <__fixunssfsi>
     e24:	60 93 65 24 	sts	0x2465, r22	; 0x802465 <mul_mask_1>
     e28:	a5 01       	movw	r20, r10
     e2a:	94 01       	movw	r18, r8
     e2c:	c3 01       	movw	r24, r6
     e2e:	b2 01       	movw	r22, r4
     e30:	0e 94 48 0f 	call	0x1e90	; 0x1e90 <__cmpsf2>
     e34:	87 ff       	sbrs	r24, 7
     e36:	09 c0       	rjmp	.+18     	; 0xe4a <mask_gen+0x298>
     e38:	a5 01       	movw	r20, r10
     e3a:	94 01       	movw	r18, r8
     e3c:	c3 01       	movw	r24, r6
     e3e:	b2 01       	movw	r22, r4
     e40:	0e 94 4c 0f 	call	0x1e98	; 0x1e98 <__divsf3>
     e44:	2b 01       	movw	r4, r22
     e46:	3c 01       	movw	r6, r24
     e48:	18 c0       	rjmp	.+48     	; 0xe7a <mask_gen+0x2c8>
     e4a:	a3 01       	movw	r20, r6
     e4c:	92 01       	movw	r18, r4
     e4e:	60 e0       	ldi	r22, 0x00	; 0
     e50:	70 e0       	ldi	r23, 0x00	; 0
     e52:	80 e8       	ldi	r24, 0x80	; 128
     e54:	9f e3       	ldi	r25, 0x3F	; 63
     e56:	b7 d7       	rcall	.+3950   	; 0x1dc6 <__subsf3>
     e58:	6b 01       	movw	r12, r22
     e5a:	7c 01       	movw	r14, r24
     e5c:	a5 01       	movw	r20, r10
     e5e:	94 01       	movw	r18, r8
     e60:	60 e0       	ldi	r22, 0x00	; 0
     e62:	70 e0       	ldi	r23, 0x00	; 0
     e64:	80 e8       	ldi	r24, 0x80	; 128
     e66:	9f e3       	ldi	r25, 0x3F	; 63
     e68:	ae d7       	rcall	.+3932   	; 0x1dc6 <__subsf3>
     e6a:	9b 01       	movw	r18, r22
     e6c:	ac 01       	movw	r20, r24
     e6e:	c7 01       	movw	r24, r14
     e70:	b6 01       	movw	r22, r12
     e72:	0e 94 4c 0f 	call	0x1e98	; 0x1e98 <__divsf3>
     e76:	2b 01       	movw	r4, r22
     e78:	3c 01       	movw	r6, r24
     e7a:	20 e0       	ldi	r18, 0x00	; 0
     e7c:	30 e0       	ldi	r19, 0x00	; 0
     e7e:	4f e7       	ldi	r20, 0x7F	; 127
     e80:	53 e4       	ldi	r21, 0x43	; 67
     e82:	c3 01       	movw	r24, r6
     e84:	b2 01       	movw	r22, r4
     e86:	0e 94 96 10 	call	0x212c	; 0x212c <__mulsf3>
     e8a:	0e 94 b4 0f 	call	0x1f68	; 0x1f68 <__fixunssfsi>
     e8e:	66 23       	and	r22, r22
     e90:	59 f2       	breq	.-106    	; 0xe28 <mask_gen+0x276>
     e92:	60 93 63 24 	sts	0x2463, r22	; 0x802463 <mul_mask_2>
     e96:	82 e2       	ldi	r24, 0x22	; 34
     e98:	e8 2e       	mov	r14, r24
     e9a:	82 e2       	ldi	r24, 0x22	; 34
     e9c:	f8 2e       	mov	r15, r24
     e9e:	00 e1       	ldi	r16, 0x10	; 16
     ea0:	a5 01       	movw	r20, r10
     ea2:	94 01       	movw	r18, r8
     ea4:	c3 01       	movw	r24, r6
     ea6:	b2 01       	movw	r22, r4
     ea8:	bc dd       	rcall	.-1160   	; 0xa22 <genDiffNum>
     eaa:	df 91       	pop	r29
     eac:	cf 91       	pop	r28
     eae:	1f 91       	pop	r17
     eb0:	0f 91       	pop	r16
     eb2:	ff 90       	pop	r15
     eb4:	ef 90       	pop	r14
     eb6:	df 90       	pop	r13
     eb8:	cf 90       	pop	r12
     eba:	bf 90       	pop	r11
     ebc:	af 90       	pop	r10
     ebe:	9f 90       	pop	r9
     ec0:	8f 90       	pop	r8
     ec2:	7f 90       	pop	r7
     ec4:	6f 90       	pop	r6
     ec6:	5f 90       	pop	r5
     ec8:	4f 90       	pop	r4
     eca:	08 95       	ret

00000ecc <cons_sbox>:
     ecc:	ad e1       	ldi	r26, 0x1D	; 29
     ece:	b1 e2       	ldi	r27, 0x21	; 33
     ed0:	20 e0       	ldi	r18, 0x00	; 0
     ed2:	30 e0       	ldi	r19, 0x00	; 0
     ed4:	48 2f       	mov	r20, r24
     ed6:	50 e0       	ldi	r21, 0x00	; 0
     ed8:	9d 91       	ld	r25, X+
     eda:	fa 01       	movw	r30, r20
     edc:	e2 27       	eor	r30, r18
     ede:	f3 27       	eor	r31, r19
     ee0:	ed 59       	subi	r30, 0x9D	; 157
     ee2:	fc 4d       	sbci	r31, 0xDC	; 220
     ee4:	96 27       	eor	r25, r22
     ee6:	90 83       	st	Z, r25
     ee8:	2f 5f       	subi	r18, 0xFF	; 255
     eea:	3f 4f       	sbci	r19, 0xFF	; 255
     eec:	21 15       	cp	r18, r1
     eee:	81 e0       	ldi	r24, 0x01	; 1
     ef0:	38 07       	cpc	r19, r24
     ef2:	91 f7       	brne	.-28     	; 0xed8 <cons_sbox+0xc>
     ef4:	08 95       	ret

00000ef6 <mask_all>:
     ef6:	fc 01       	movw	r30, r24
     ef8:	9c 01       	movw	r18, r24
     efa:	20 5f       	subi	r18, 0xF0	; 240
     efc:	3f 4f       	sbci	r19, 0xFF	; 255
     efe:	80 81       	ld	r24, Z
     f00:	86 27       	eor	r24, r22
     f02:	81 93       	st	Z+, r24
     f04:	e2 17       	cp	r30, r18
     f06:	f3 07       	cpc	r31, r19
     f08:	d1 f7       	brne	.-12     	; 0xefe <mask_all+0x8>
     f0a:	08 95       	ret

00000f0c <addroundkey>:
     f0c:	ef 92       	push	r14
     f0e:	ff 92       	push	r15
     f10:	0f 93       	push	r16
     f12:	1f 93       	push	r17
     f14:	cf 93       	push	r28
     f16:	df 93       	push	r29
     f18:	8c 01       	movw	r16, r24
     f1a:	eb 01       	movw	r28, r22
     f1c:	e2 e2       	ldi	r30, 0x22	; 34
     f1e:	f2 e2       	ldi	r31, 0x22	; 34
     f20:	42 e3       	ldi	r20, 0x32	; 50
     f22:	52 e2       	ldi	r21, 0x22	; 34
     f24:	21 91       	ld	r18, Z+
     f26:	30 e0       	ldi	r19, 0x00	; 0
     f28:	78 01       	movw	r14, r16
     f2a:	e2 0e       	add	r14, r18
     f2c:	f3 1e       	adc	r15, r19
     f2e:	2c 0f       	add	r18, r28
     f30:	3d 1f       	adc	r19, r29
     f32:	d7 01       	movw	r26, r14
     f34:	7c 91       	ld	r23, X
     f36:	d9 01       	movw	r26, r18
     f38:	9c 91       	ld	r25, X
     f3a:	97 27       	eor	r25, r23
     f3c:	d7 01       	movw	r26, r14
     f3e:	9c 93       	st	X, r25
     f40:	4e 17       	cp	r20, r30
     f42:	5f 07       	cpc	r21, r31
     f44:	79 f7       	brne	.-34     	; 0xf24 <addroundkey+0x18>
     f46:	df 91       	pop	r29
     f48:	cf 91       	pop	r28
     f4a:	1f 91       	pop	r17
     f4c:	0f 91       	pop	r16
     f4e:	ff 90       	pop	r15
     f50:	ef 90       	pop	r14
     f52:	08 95       	ret

00000f54 <getboxvalue>:
     f54:	cf 93       	push	r28
     f56:	df 93       	push	r29
     f58:	ac 01       	movw	r20, r24
     f5a:	e2 e2       	ldi	r30, 0x22	; 34
     f5c:	f2 e2       	ldi	r31, 0x22	; 34
     f5e:	22 e3       	ldi	r18, 0x32	; 50
     f60:	32 e2       	ldi	r19, 0x22	; 34
     f62:	81 91       	ld	r24, Z+
     f64:	da 01       	movw	r26, r20
     f66:	a8 0f       	add	r26, r24
     f68:	b1 1d       	adc	r27, r1
     f6a:	9c 91       	ld	r25, X
     f6c:	eb 01       	movw	r28, r22
     f6e:	c9 0f       	add	r28, r25
     f70:	d1 1d       	adc	r29, r1
     f72:	98 81       	ld	r25, Y
     f74:	9c 93       	st	X, r25
     f76:	2e 17       	cp	r18, r30
     f78:	3f 07       	cpc	r19, r31
     f7a:	99 f7       	brne	.-26     	; 0xf62 <getboxvalue+0xe>
     f7c:	df 91       	pop	r29
     f7e:	cf 91       	pop	r28
     f80:	08 95       	ret

00000f82 <XTIME>:
     f82:	28 2f       	mov	r18, r24
     f84:	30 e0       	ldi	r19, 0x00	; 0
     f86:	22 0f       	add	r18, r18
     f88:	33 1f       	adc	r19, r19
     f8a:	87 fd       	sbrc	r24, 7
     f8c:	02 c0       	rjmp	.+4      	; 0xf92 <XTIME+0x10>
     f8e:	80 e0       	ldi	r24, 0x00	; 0
     f90:	01 c0       	rjmp	.+2      	; 0xf94 <XTIME+0x12>
     f92:	8b e1       	ldi	r24, 0x1B	; 27
     f94:	82 27       	eor	r24, r18
     f96:	08 95       	ret

00000f98 <multiply>:
     f98:	cf 92       	push	r12
     f9a:	df 92       	push	r13
     f9c:	ef 92       	push	r14
     f9e:	ff 92       	push	r15
     fa0:	0f 93       	push	r16
     fa2:	1f 93       	push	r17
     fa4:	cf 93       	push	r28
     fa6:	df 93       	push	r29
     fa8:	cd b7       	in	r28, 0x3d	; 61
     faa:	de b7       	in	r29, 0x3e	; 62
     fac:	28 97       	sbiw	r28, 0x08	; 8
     fae:	cd bf       	out	0x3d, r28	; 61
     fb0:	de bf       	out	0x3e, r29	; 62
     fb2:	e8 2e       	mov	r14, r24
     fb4:	f6 2e       	mov	r15, r22
     fb6:	fe 01       	movw	r30, r28
     fb8:	31 96       	adiw	r30, 0x01	; 1
     fba:	88 e0       	ldi	r24, 0x08	; 8
     fbc:	df 01       	movw	r26, r30
     fbe:	1d 92       	st	X+, r1
     fc0:	8a 95       	dec	r24
     fc2:	e9 f7       	brne	.-6      	; 0xfbe <multiply+0x26>
     fc4:	e9 82       	std	Y+1, r14	; 0x01
     fc6:	8f 01       	movw	r16, r30
     fc8:	6e 01       	movw	r12, r28
     fca:	b8 e0       	ldi	r27, 0x08	; 8
     fcc:	cb 0e       	add	r12, r27
     fce:	d1 1c       	adc	r13, r1
     fd0:	f8 01       	movw	r30, r16
     fd2:	81 91       	ld	r24, Z+
     fd4:	8f 01       	movw	r16, r30
     fd6:	d5 df       	rcall	.-86     	; 0xf82 <XTIME>
     fd8:	d8 01       	movw	r26, r16
     fda:	8c 93       	st	X, r24
     fdc:	c0 16       	cp	r12, r16
     fde:	d1 06       	cpc	r13, r17
     fe0:	b9 f7       	brne	.-18     	; 0xfd0 <multiply+0x38>
     fe2:	8f 2d       	mov	r24, r15
     fe4:	81 70       	andi	r24, 0x01	; 1
     fe6:	8e 9d       	mul	r24, r14
     fe8:	80 2d       	mov	r24, r0
     fea:	11 24       	eor	r1, r1
     fec:	fe 01       	movw	r30, r28
     fee:	32 96       	adiw	r30, 0x02	; 2
     ff0:	41 e0       	ldi	r20, 0x01	; 1
     ff2:	50 e0       	ldi	r21, 0x00	; 0
     ff4:	6f 2d       	mov	r22, r15
     ff6:	70 e0       	ldi	r23, 0x00	; 0
     ff8:	91 91       	ld	r25, Z+
     ffa:	9b 01       	movw	r18, r22
     ffc:	04 2e       	mov	r0, r20
     ffe:	02 c0       	rjmp	.+4      	; 0x1004 <multiply+0x6c>
    1000:	35 95       	asr	r19
    1002:	27 95       	ror	r18
    1004:	0a 94       	dec	r0
    1006:	e2 f7       	brpl	.-8      	; 0x1000 <multiply+0x68>
    1008:	21 70       	andi	r18, 0x01	; 1
    100a:	29 9f       	mul	r18, r25
    100c:	20 2d       	mov	r18, r0
    100e:	11 24       	eor	r1, r1
    1010:	82 27       	eor	r24, r18
    1012:	4f 5f       	subi	r20, 0xFF	; 255
    1014:	5f 4f       	sbci	r21, 0xFF	; 255
    1016:	48 30       	cpi	r20, 0x08	; 8
    1018:	51 05       	cpc	r21, r1
    101a:	71 f7       	brne	.-36     	; 0xff8 <multiply+0x60>
    101c:	28 96       	adiw	r28, 0x08	; 8
    101e:	cd bf       	out	0x3d, r28	; 61
    1020:	de bf       	out	0x3e, r29	; 62
    1022:	df 91       	pop	r29
    1024:	cf 91       	pop	r28
    1026:	1f 91       	pop	r17
    1028:	0f 91       	pop	r16
    102a:	ff 90       	pop	r15
    102c:	ef 90       	pop	r14
    102e:	df 90       	pop	r13
    1030:	cf 90       	pop	r12
    1032:	08 95       	ret

00001034 <diffusionmodule>:
    1034:	7f 92       	push	r7
    1036:	8f 92       	push	r8
    1038:	9f 92       	push	r9
    103a:	af 92       	push	r10
    103c:	bf 92       	push	r11
    103e:	cf 92       	push	r12
    1040:	df 92       	push	r13
    1042:	ef 92       	push	r14
    1044:	ff 92       	push	r15
    1046:	0f 93       	push	r16
    1048:	1f 93       	push	r17
    104a:	cf 93       	push	r28
    104c:	df 93       	push	r29
    104e:	cd b7       	in	r28, 0x3d	; 61
    1050:	de b7       	in	r29, 0x3e	; 62
    1052:	a0 97       	sbiw	r28, 0x20	; 32
    1054:	cd bf       	out	0x3d, r28	; 61
    1056:	de bf       	out	0x3e, r29	; 62
    1058:	80 91 53 23 	lds	r24, 0x2353	; 0x802353 <add_mask>
    105c:	89 8b       	std	Y+17, r24	; 0x11
    105e:	70 90 63 24 	lds	r7, 0x2463	; 0x802463 <mul_mask_2>
    1062:	78 8a       	std	Y+16, r7	; 0x10
    1064:	a3 e5       	ldi	r26, 0x53	; 83
    1066:	b3 e2       	ldi	r27, 0x23	; 35
    1068:	92 e4       	ldi	r25, 0x42	; 66
    106a:	e9 2e       	mov	r14, r25
    106c:	93 e2       	ldi	r25, 0x23	; 35
    106e:	f9 2e       	mov	r15, r25
    1070:	f7 01       	movw	r30, r14
    1072:	8d 91       	ld	r24, X+
    1074:	90 81       	ld	r25, Z
    1076:	89 27       	eor	r24, r25
    1078:	81 93       	st	Z+, r24
    107a:	83 e2       	ldi	r24, 0x23	; 35
    107c:	e2 35       	cpi	r30, 0x52	; 82
    107e:	f8 07       	cpc	r31, r24
    1080:	c1 f7       	brne	.-16     	; 0x1072 <diffusionmodule+0x3e>
    1082:	90 91 64 24 	lds	r25, 0x2464	; 0x802464 <s_mask_2>
    1086:	e2 e4       	ldi	r30, 0x42	; 66
    1088:	f3 e2       	ldi	r31, 0x23	; 35
    108a:	80 81       	ld	r24, Z
    108c:	89 27       	eor	r24, r25
    108e:	81 93       	st	Z+, r24
    1090:	a3 e2       	ldi	r26, 0x23	; 35
    1092:	e2 35       	cpi	r30, 0x52	; 82
    1094:	fa 07       	cpc	r31, r26
    1096:	c9 f7       	brne	.-14     	; 0x108a <diffusionmodule+0x56>
    1098:	44 e5       	ldi	r20, 0x54	; 84
    109a:	53 e2       	ldi	r21, 0x23	; 35
    109c:	8e 01       	movw	r16, r28
    109e:	0f 5e       	subi	r16, 0xEF	; 239
    10a0:	1f 4f       	sbci	r17, 0xFF	; 255
    10a2:	c8 01       	movw	r24, r16
    10a4:	a2 e4       	ldi	r26, 0x42	; 66
    10a6:	b3 e2       	ldi	r27, 0x23	; 35
    10a8:	21 e0       	ldi	r18, 0x01	; 1
    10aa:	11 96       	adiw	r26, 0x01	; 1
    10ac:	6c 91       	ld	r22, X
    10ae:	11 97       	sbiw	r26, 0x01	; 1
    10b0:	3c 91       	ld	r19, X
    10b2:	36 27       	eor	r19, r22
    10b4:	11 96       	adiw	r26, 0x01	; 1
    10b6:	3c 93       	st	X, r19
    10b8:	11 97       	sbiw	r26, 0x01	; 1
    10ba:	fa 01       	movw	r30, r20
    10bc:	31 91       	ld	r19, Z+
    10be:	af 01       	movw	r20, r30
    10c0:	fc 01       	movw	r30, r24
    10c2:	60 81       	ld	r22, Z
    10c4:	36 27       	eor	r19, r22
    10c6:	31 83       	std	Z+1, r19	; 0x01
    10c8:	2f 5f       	subi	r18, 0xFF	; 255
    10ca:	11 96       	adiw	r26, 0x01	; 1
    10cc:	01 96       	adiw	r24, 0x01	; 1
    10ce:	20 31       	cpi	r18, 0x10	; 16
    10d0:	61 f7       	brne	.-40     	; 0x10aa <diffusionmodule+0x76>
    10d2:	80 91 65 24 	lds	r24, 0x2465	; 0x802465 <mul_mask_1>
    10d6:	9e 01       	movw	r18, r28
    10d8:	2f 5d       	subi	r18, 0xDF	; 223
    10da:	3f 4f       	sbci	r19, 0xFF	; 255
    10dc:	a2 e4       	ldi	r26, 0x42	; 66
    10de:	b3 e2       	ldi	r27, 0x23	; 35
    10e0:	f8 01       	movw	r30, r16
    10e2:	90 81       	ld	r25, Z
    10e4:	98 27       	eor	r25, r24
    10e6:	91 93       	st	Z+, r25
    10e8:	8f 01       	movw	r16, r30
    10ea:	4c 91       	ld	r20, X
    10ec:	94 27       	eor	r25, r20
    10ee:	9d 93       	st	X+, r25
    10f0:	2e 17       	cp	r18, r30
    10f2:	3f 07       	cpc	r19, r31
    10f4:	a9 f7       	brne	.-22     	; 0x10e0 <diffusionmodule+0xac>
    10f6:	67 2d       	mov	r22, r7
    10f8:	4f df       	rcall	.-354    	; 0xf98 <multiply>
    10fa:	d8 2e       	mov	r13, r24
    10fc:	02 e4       	ldi	r16, 0x42	; 66
    10fe:	13 e2       	ldi	r17, 0x23	; 35
    1100:	67 2d       	mov	r22, r7
    1102:	d8 01       	movw	r26, r16
    1104:	8c 91       	ld	r24, X
    1106:	48 df       	rcall	.-368    	; 0xf98 <multiply>
    1108:	8d 25       	eor	r24, r13
    110a:	f8 01       	movw	r30, r16
    110c:	81 93       	st	Z+, r24
    110e:	8f 01       	movw	r16, r30
    1110:	f3 e2       	ldi	r31, 0x23	; 35
    1112:	02 35       	cpi	r16, 0x52	; 82
    1114:	1f 07       	cpc	r17, r31
    1116:	a1 f7       	brne	.-24     	; 0x1100 <diffusionmodule+0xcc>
    1118:	ce 01       	movw	r24, r28
    111a:	01 96       	adiw	r24, 0x01	; 1
    111c:	6c 01       	movw	r12, r24
    111e:	4e 01       	movw	r8, r28
    1120:	9e e0       	ldi	r25, 0x0E	; 14
    1122:	89 1a       	sub	r8, r25
    1124:	91 08       	sbc	r9, r1
    1126:	86 01       	movw	r16, r12
    1128:	82 e4       	ldi	r24, 0x42	; 66
    112a:	a8 2e       	mov	r10, r24
    112c:	83 e2       	ldi	r24, 0x23	; 35
    112e:	b8 2e       	mov	r11, r24
    1130:	d5 01       	movw	r26, r10
    1132:	1f 96       	adiw	r26, 0x0f	; 15
    1134:	8c 91       	ld	r24, X
    1136:	81 11       	cpse	r24, r1
    1138:	03 c0       	rjmp	.+6      	; 0x1140 <diffusionmodule+0x10c>
    113a:	f8 01       	movw	r30, r16
    113c:	76 86       	std	Z+14, r7	; 0x0e
    113e:	0d c0       	rjmp	.+26     	; 0x115a <diffusionmodule+0x126>
    1140:	d5 01       	movw	r26, r10
    1142:	1e 96       	adiw	r26, 0x0e	; 14
    1144:	6c 91       	ld	r22, X
    1146:	28 df       	rcall	.-432    	; 0xf98 <multiply>
    1148:	f5 01       	movw	r30, r10
    114a:	86 87       	std	Z+14, r24	; 0x0e
    114c:	d8 01       	movw	r26, r16
    114e:	1f 96       	adiw	r26, 0x0f	; 15
    1150:	6c 91       	ld	r22, X
    1152:	87 2d       	mov	r24, r7
    1154:	21 df       	rcall	.-446    	; 0xf98 <multiply>
    1156:	f8 01       	movw	r30, r16
    1158:	86 87       	std	Z+14, r24	; 0x0e
    115a:	f1 e0       	ldi	r31, 0x01	; 1
    115c:	af 1a       	sub	r10, r31
    115e:	b1 08       	sbc	r11, r1
    1160:	01 50       	subi	r16, 0x01	; 1
    1162:	11 09       	sbc	r17, r1
    1164:	08 15       	cp	r16, r8
    1166:	19 05       	cpc	r17, r9
    1168:	19 f7       	brne	.-58     	; 0x1130 <diffusionmodule+0xfc>
    116a:	00 91 52 23 	lds	r16, 0x2352	; 0x802352 <s_mask_1>
    116e:	d6 01       	movw	r26, r12
    1170:	1d 91       	ld	r17, X+
    1172:	6d 01       	movw	r12, r26
    1174:	61 2f       	mov	r22, r17
    1176:	80 2f       	mov	r24, r16
    1178:	0f df       	rcall	.-482    	; 0xf98 <multiply>
    117a:	e1 2f       	mov	r30, r17
    117c:	f0 e0       	ldi	r31, 0x00	; 0
    117e:	e3 5e       	subi	r30, 0xE3	; 227
    1180:	ff 4d       	sbci	r31, 0xDF	; 223
    1182:	d7 01       	movw	r26, r14
    1184:	9c 91       	ld	r25, X
    1186:	60 81       	ld	r22, Z
    1188:	89 27       	eor	r24, r25
    118a:	06 df       	rcall	.-500    	; 0xf98 <multiply>
    118c:	f7 01       	movw	r30, r14
    118e:	81 93       	st	Z+, r24
    1190:	7f 01       	movw	r14, r30
    1192:	f2 e5       	ldi	r31, 0x52	; 82
    1194:	ef 16       	cp	r14, r31
    1196:	f3 e2       	ldi	r31, 0x23	; 35
    1198:	ff 06       	cpc	r15, r31
    119a:	49 f7       	brne	.-46     	; 0x116e <diffusionmodule+0x13a>
    119c:	a0 96       	adiw	r28, 0x20	; 32
    119e:	cd bf       	out	0x3d, r28	; 61
    11a0:	de bf       	out	0x3e, r29	; 62
    11a2:	df 91       	pop	r29
    11a4:	cf 91       	pop	r28
    11a6:	1f 91       	pop	r17
    11a8:	0f 91       	pop	r16
    11aa:	ff 90       	pop	r15
    11ac:	ef 90       	pop	r14
    11ae:	df 90       	pop	r13
    11b0:	cf 90       	pop	r12
    11b2:	bf 90       	pop	r11
    11b4:	af 90       	pop	r10
    11b6:	9f 90       	pop	r9
    11b8:	8f 90       	pop	r8
    11ba:	7f 90       	pop	r7
    11bc:	08 95       	ret

000011be <catmap>:
    11be:	2f 92       	push	r2
    11c0:	3f 92       	push	r3
    11c2:	4f 92       	push	r4
    11c4:	5f 92       	push	r5
    11c6:	6f 92       	push	r6
    11c8:	7f 92       	push	r7
    11ca:	8f 92       	push	r8
    11cc:	9f 92       	push	r9
    11ce:	af 92       	push	r10
    11d0:	bf 92       	push	r11
    11d2:	cf 92       	push	r12
    11d4:	df 92       	push	r13
    11d6:	ef 92       	push	r14
    11d8:	ff 92       	push	r15
    11da:	0f 93       	push	r16
    11dc:	1f 93       	push	r17
    11de:	cf 93       	push	r28
    11e0:	df 93       	push	r29
    11e2:	cd b7       	in	r28, 0x3d	; 61
    11e4:	de b7       	in	r29, 0x3e	; 62
    11e6:	a5 97       	sbiw	r28, 0x25	; 37
    11e8:	cd bf       	out	0x3d, r28	; 61
    11ea:	de bf       	out	0x3e, r29	; 62
    11ec:	dc 01       	movw	r26, r24
    11ee:	9e 01       	movw	r18, r28
    11f0:	2f 5e       	subi	r18, 0xEF	; 239
    11f2:	3f 4f       	sbci	r19, 0xFF	; 255
    11f4:	29 8b       	std	Y+17, r18	; 0x11
    11f6:	3a 8b       	std	Y+18, r19	; 0x12
    11f8:	66 23       	and	r22, r22
    11fa:	09 f4       	brne	.+2      	; 0x11fe <catmap+0x40>
    11fc:	e0 c0       	rjmp	.+448    	; 0x13be <catmap+0x200>
    11fe:	38 88       	ldd	r3, Y+16	; 0x10
    1200:	59 80       	ldd	r5, Y+1	; 0x01
    1202:	6a 80       	ldd	r6, Y+2	; 0x02
    1204:	7b 80       	ldd	r7, Y+3	; 0x03
    1206:	2c 80       	ldd	r2, Y+4	; 0x04
    1208:	dd 80       	ldd	r13, Y+5	; 0x05
    120a:	dd 8a       	std	Y+21, r13	; 0x15
    120c:	ee 80       	ldd	r14, Y+6	; 0x06
    120e:	eb 8a       	std	Y+19, r14	; 0x13
    1210:	4f 80       	ldd	r4, Y+7	; 0x07
    1212:	88 84       	ldd	r8, Y+8	; 0x08
    1214:	99 84       	ldd	r9, Y+9	; 0x09
    1216:	aa 84       	ldd	r10, Y+10	; 0x0a
    1218:	bb 84       	ldd	r11, Y+11	; 0x0b
    121a:	fc 84       	ldd	r15, Y+12	; 0x0c
    121c:	fa a2       	std	Y+34, r15	; 0x22
    121e:	2d 85       	ldd	r18, Y+13	; 0x0d
    1220:	2b a3       	std	Y+35, r18	; 0x23
    1222:	3e 85       	ldd	r19, Y+14	; 0x0e
    1224:	3c a3       	std	Y+36, r19	; 0x24
    1226:	9f 85       	ldd	r25, Y+15	; 0x0f
    1228:	9d a3       	std	Y+37, r25	; 0x25
    122a:	1d 8e       	std	Y+29, r1	; 0x1d
    122c:	1c 8e       	std	Y+28, r1	; 0x1c
    122e:	1b 8e       	std	Y+27, r1	; 0x1b
    1230:	1a 8e       	std	Y+26, r1	; 0x1a
    1232:	19 8e       	std	Y+25, r1	; 0x19
    1234:	18 8e       	std	Y+24, r1	; 0x18
    1236:	1f 8a       	std	Y+23, r1	; 0x17
    1238:	1e 8a       	std	Y+22, r1	; 0x16
    123a:	00 e0       	ldi	r16, 0x00	; 0
    123c:	10 e0       	ldi	r17, 0x00	; 0
    123e:	70 e0       	ldi	r23, 0x00	; 0
    1240:	1c 8a       	std	Y+20, r1	; 0x14
    1242:	50 e0       	ldi	r21, 0x00	; 0
    1244:	40 e0       	ldi	r20, 0x00	; 0
    1246:	30 e0       	ldi	r19, 0x00	; 0
    1248:	20 e0       	ldi	r18, 0x00	; 0
    124a:	90 e0       	ldi	r25, 0x00	; 0
    124c:	c9 2e       	mov	r12, r25
    124e:	d1 2c       	mov	r13, r1
    1250:	e1 2c       	mov	r14, r1
    1252:	f1 2c       	mov	r15, r1
    1254:	ce 8e       	std	Y+30, r12	; 0x1e
    1256:	df 8e       	std	Y+31, r13	; 0x1f
    1258:	e8 a2       	std	Y+32, r14	; 0x20
    125a:	f9 a2       	std	Y+33, r15	; 0x21
    125c:	f6 01       	movw	r30, r12
    125e:	31 97       	sbiw	r30, 0x01	; 1
    1260:	ef 30       	cpi	r30, 0x0F	; 15
    1262:	f1 05       	cpc	r31, r1
    1264:	30 f4       	brcc	.+12     	; 0x1272 <catmap+0xb4>
    1266:	88 27       	eor	r24, r24
    1268:	ea 54       	subi	r30, 0x4A	; 74
    126a:	ff 4f       	sbci	r31, 0xFF	; 255
    126c:	8f 4f       	sbci	r24, 0xFF	; 255
    126e:	0c 94 3b 11 	jmp	0x2276	; 0x2276 <__tablejump2__>
    1272:	5c 90       	ld	r5, X
    1274:	21 e0       	ldi	r18, 0x01	; 1
    1276:	59 c0       	rjmp	.+178    	; 0x132a <catmap+0x16c>
    1278:	1e 96       	adiw	r26, 0x0e	; 14
    127a:	6c 90       	ld	r6, X
    127c:	1e 97       	sbiw	r26, 0x0e	; 14
    127e:	31 e0       	ldi	r19, 0x01	; 1
    1280:	54 c0       	rjmp	.+168    	; 0x132a <catmap+0x16c>
    1282:	18 96       	adiw	r26, 0x08	; 8
    1284:	7c 90       	ld	r7, X
    1286:	18 97       	sbiw	r26, 0x08	; 8
    1288:	41 e0       	ldi	r20, 0x01	; 1
    128a:	4f c0       	rjmp	.+158    	; 0x132a <catmap+0x16c>
    128c:	16 96       	adiw	r26, 0x06	; 6
    128e:	2c 90       	ld	r2, X
    1290:	16 97       	sbiw	r26, 0x06	; 6
    1292:	51 e0       	ldi	r21, 0x01	; 1
    1294:	4a c0       	rjmp	.+148    	; 0x132a <catmap+0x16c>
    1296:	17 96       	adiw	r26, 0x07	; 7
    1298:	dc 90       	ld	r13, X
    129a:	17 97       	sbiw	r26, 0x07	; 7
    129c:	dd 8a       	std	Y+21, r13	; 0x15
    129e:	81 e0       	ldi	r24, 0x01	; 1
    12a0:	8c 8b       	std	Y+20, r24	; 0x14
    12a2:	43 c0       	rjmp	.+134    	; 0x132a <catmap+0x16c>
    12a4:	11 96       	adiw	r26, 0x01	; 1
    12a6:	cc 90       	ld	r12, X
    12a8:	11 97       	sbiw	r26, 0x01	; 1
    12aa:	cb 8a       	std	Y+19, r12	; 0x13
    12ac:	71 e0       	ldi	r23, 0x01	; 1
    12ae:	3d c0       	rjmp	.+122    	; 0x132a <catmap+0x16c>
    12b0:	1f 96       	adiw	r26, 0x0f	; 15
    12b2:	4c 90       	ld	r4, X
    12b4:	1f 97       	sbiw	r26, 0x0f	; 15
    12b6:	11 e0       	ldi	r17, 0x01	; 1
    12b8:	38 c0       	rjmp	.+112    	; 0x132a <catmap+0x16c>
    12ba:	19 96       	adiw	r26, 0x09	; 9
    12bc:	8c 90       	ld	r8, X
    12be:	19 97       	sbiw	r26, 0x09	; 9
    12c0:	01 e0       	ldi	r16, 0x01	; 1
    12c2:	33 c0       	rjmp	.+102    	; 0x132a <catmap+0x16c>
    12c4:	1a 96       	adiw	r26, 0x0a	; 10
    12c6:	9c 90       	ld	r9, X
    12c8:	1a 97       	sbiw	r26, 0x0a	; 10
    12ca:	81 e0       	ldi	r24, 0x01	; 1
    12cc:	8d 8f       	std	Y+29, r24	; 0x1d
    12ce:	2d c0       	rjmp	.+90     	; 0x132a <catmap+0x16c>
    12d0:	14 96       	adiw	r26, 0x04	; 4
    12d2:	ac 90       	ld	r10, X
    12d4:	14 97       	sbiw	r26, 0x04	; 4
    12d6:	e1 e0       	ldi	r30, 0x01	; 1
    12d8:	ee 8b       	std	Y+22, r30	; 0x16
    12da:	27 c0       	rjmp	.+78     	; 0x132a <catmap+0x16c>
    12dc:	12 96       	adiw	r26, 0x02	; 2
    12de:	bc 90       	ld	r11, X
    12e0:	12 97       	sbiw	r26, 0x02	; 2
    12e2:	f1 e0       	ldi	r31, 0x01	; 1
    12e4:	ff 8b       	std	Y+23, r31	; 0x17
    12e6:	21 c0       	rjmp	.+66     	; 0x132a <catmap+0x16c>
    12e8:	1c 96       	adiw	r26, 0x0c	; 12
    12ea:	cc 90       	ld	r12, X
    12ec:	1c 97       	sbiw	r26, 0x0c	; 12
    12ee:	ca a2       	std	Y+34, r12	; 0x22
    12f0:	81 e0       	ldi	r24, 0x01	; 1
    12f2:	88 8f       	std	Y+24, r24	; 0x18
    12f4:	1a c0       	rjmp	.+52     	; 0x132a <catmap+0x16c>
    12f6:	1d 96       	adiw	r26, 0x0d	; 13
    12f8:	cc 90       	ld	r12, X
    12fa:	1d 97       	sbiw	r26, 0x0d	; 13
    12fc:	cb a2       	std	Y+35, r12	; 0x23
    12fe:	81 e0       	ldi	r24, 0x01	; 1
    1300:	89 8f       	std	Y+25, r24	; 0x19
    1302:	13 c0       	rjmp	.+38     	; 0x132a <catmap+0x16c>
    1304:	1b 96       	adiw	r26, 0x0b	; 11
    1306:	cc 90       	ld	r12, X
    1308:	1b 97       	sbiw	r26, 0x0b	; 11
    130a:	cc a2       	std	Y+36, r12	; 0x24
    130c:	81 e0       	ldi	r24, 0x01	; 1
    130e:	8a 8f       	std	Y+26, r24	; 0x1a
    1310:	0c c0       	rjmp	.+24     	; 0x132a <catmap+0x16c>
    1312:	15 96       	adiw	r26, 0x05	; 5
    1314:	cc 90       	ld	r12, X
    1316:	15 97       	sbiw	r26, 0x05	; 5
    1318:	cd a2       	std	Y+37, r12	; 0x25
    131a:	81 e0       	ldi	r24, 0x01	; 1
    131c:	8b 8f       	std	Y+27, r24	; 0x1b
    131e:	05 c0       	rjmp	.+10     	; 0x132a <catmap+0x16c>
    1320:	13 96       	adiw	r26, 0x03	; 3
    1322:	3c 90       	ld	r3, X
    1324:	13 97       	sbiw	r26, 0x03	; 3
    1326:	e1 e0       	ldi	r30, 0x01	; 1
    1328:	ec 8f       	std	Y+28, r30	; 0x1c
    132a:	9f 5f       	subi	r25, 0xFF	; 255
    132c:	90 31       	cpi	r25, 0x10	; 16
    132e:	09 f0       	breq	.+2      	; 0x1332 <catmap+0x174>
    1330:	8d cf       	rjmp	.-230    	; 0x124c <catmap+0x8e>
    1332:	21 11       	cpse	r18, r1
    1334:	59 82       	std	Y+1, r5	; 0x01
    1336:	31 11       	cpse	r19, r1
    1338:	6a 82       	std	Y+2, r6	; 0x02
    133a:	41 11       	cpse	r20, r1
    133c:	7b 82       	std	Y+3, r7	; 0x03
    133e:	51 11       	cpse	r21, r1
    1340:	2c 82       	std	Y+4, r2	; 0x04
    1342:	cc 88       	ldd	r12, Y+20	; 0x14
    1344:	cc 20       	and	r12, r12
    1346:	11 f0       	breq	.+4      	; 0x134c <catmap+0x18e>
    1348:	dd 88       	ldd	r13, Y+21	; 0x15
    134a:	dd 82       	std	Y+5, r13	; 0x05
    134c:	77 23       	and	r23, r23
    134e:	11 f0       	breq	.+4      	; 0x1354 <catmap+0x196>
    1350:	eb 88       	ldd	r14, Y+19	; 0x13
    1352:	ee 82       	std	Y+6, r14	; 0x06
    1354:	11 11       	cpse	r17, r1
    1356:	4f 82       	std	Y+7, r4	; 0x07
    1358:	01 11       	cpse	r16, r1
    135a:	88 86       	std	Y+8, r8	; 0x08
    135c:	fe 88       	ldd	r15, Y+22	; 0x16
    135e:	f1 10       	cpse	r15, r1
    1360:	aa 86       	std	Y+10, r10	; 0x0a
    1362:	2f 89       	ldd	r18, Y+23	; 0x17
    1364:	21 11       	cpse	r18, r1
    1366:	bb 86       	std	Y+11, r11	; 0x0b
    1368:	38 8d       	ldd	r19, Y+24	; 0x18
    136a:	33 23       	and	r19, r19
    136c:	11 f0       	breq	.+4      	; 0x1372 <catmap+0x1b4>
    136e:	9a a1       	ldd	r25, Y+34	; 0x22
    1370:	9c 87       	std	Y+12, r25	; 0x0c
    1372:	c9 8c       	ldd	r12, Y+25	; 0x19
    1374:	cc 20       	and	r12, r12
    1376:	11 f0       	breq	.+4      	; 0x137c <catmap+0x1be>
    1378:	db a0       	ldd	r13, Y+35	; 0x23
    137a:	dd 86       	std	Y+13, r13	; 0x0d
    137c:	ea 8c       	ldd	r14, Y+26	; 0x1a
    137e:	ee 20       	and	r14, r14
    1380:	11 f0       	breq	.+4      	; 0x1386 <catmap+0x1c8>
    1382:	fc a0       	ldd	r15, Y+36	; 0x24
    1384:	fe 86       	std	Y+14, r15	; 0x0e
    1386:	2b 8d       	ldd	r18, Y+27	; 0x1b
    1388:	22 23       	and	r18, r18
    138a:	11 f0       	breq	.+4      	; 0x1390 <catmap+0x1d2>
    138c:	3d a1       	ldd	r19, Y+37	; 0x25
    138e:	3f 87       	std	Y+15, r19	; 0x0f
    1390:	9c 8d       	ldd	r25, Y+28	; 0x1c
    1392:	91 11       	cpse	r25, r1
    1394:	38 8a       	std	Y+16, r3	; 0x10
    1396:	cd 8c       	ldd	r12, Y+29	; 0x1d
    1398:	c1 10       	cpse	r12, r1
    139a:	99 86       	std	Y+9, r9	; 0x09
    139c:	ae 01       	movw	r20, r28
    139e:	4f 5f       	subi	r20, 0xFF	; 255
    13a0:	5f 4f       	sbci	r21, 0xFF	; 255
    13a2:	cd 01       	movw	r24, r26
    13a4:	fa 01       	movw	r30, r20
    13a6:	21 91       	ld	r18, Z+
    13a8:	af 01       	movw	r20, r30
    13aa:	fc 01       	movw	r30, r24
    13ac:	21 93       	st	Z+, r18
    13ae:	cf 01       	movw	r24, r30
    13b0:	c9 88       	ldd	r12, Y+17	; 0x11
    13b2:	da 88       	ldd	r13, Y+18	; 0x12
    13b4:	4c 15       	cp	r20, r12
    13b6:	5d 05       	cpc	r21, r13
    13b8:	a9 f7       	brne	.-22     	; 0x13a4 <catmap+0x1e6>
    13ba:	61 50       	subi	r22, 0x01	; 1
    13bc:	1d cf       	rjmp	.-454    	; 0x11f8 <catmap+0x3a>
    13be:	a5 96       	adiw	r28, 0x25	; 37
    13c0:	cd bf       	out	0x3d, r28	; 61
    13c2:	de bf       	out	0x3e, r29	; 62
    13c4:	df 91       	pop	r29
    13c6:	cf 91       	pop	r28
    13c8:	1f 91       	pop	r17
    13ca:	0f 91       	pop	r16
    13cc:	ff 90       	pop	r15
    13ce:	ef 90       	pop	r14
    13d0:	df 90       	pop	r13
    13d2:	cf 90       	pop	r12
    13d4:	bf 90       	pop	r11
    13d6:	af 90       	pop	r10
    13d8:	9f 90       	pop	r9
    13da:	8f 90       	pop	r8
    13dc:	7f 90       	pop	r7
    13de:	6f 90       	pop	r6
    13e0:	5f 90       	pop	r5
    13e2:	4f 90       	pop	r4
    13e4:	3f 90       	pop	r3
    13e6:	2f 90       	pop	r2
    13e8:	08 95       	ret

000013ea <encLuoMasked>:
    13ea:	ef 92       	push	r14
    13ec:	ff 92       	push	r15
    13ee:	0f 93       	push	r16
    13f0:	1f 93       	push	r17
    13f2:	cf 93       	push	r28
    13f4:	df 93       	push	r29
    13f6:	7c 01       	movw	r14, r24
    13f8:	02 e4       	ldi	r16, 0x42	; 66
    13fa:	13 e2       	ldi	r17, 0x23	; 35
    13fc:	f8 01       	movw	r30, r16
    13fe:	db 01       	movw	r26, r22
    1400:	8d 91       	ld	r24, X+
    1402:	bd 01       	movw	r22, r26
    1404:	81 93       	st	Z+, r24
    1406:	b3 e2       	ldi	r27, 0x23	; 35
    1408:	e2 35       	cpi	r30, 0x52	; 82
    140a:	fb 07       	cpc	r31, r27
    140c:	c1 f7       	brne	.-16     	; 0x13fe <encLuoMasked+0x14>
    140e:	02 db       	rcall	.-2556   	; 0xa14 <encInit>
    1410:	60 91 32 22 	lds	r22, 0x2232	; 0x802232 <seed>
    1414:	70 91 33 22 	lds	r23, 0x2233	; 0x802233 <seed+0x1>
    1418:	80 91 34 22 	lds	r24, 0x2234	; 0x802234 <seed+0x2>
    141c:	90 91 35 22 	lds	r25, 0x2235	; 0x802235 <seed+0x3>
    1420:	c8 db       	rcall	.-2160   	; 0xbb2 <mask_gen>
    1422:	60 91 64 24 	lds	r22, 0x2464	; 0x802464 <s_mask_2>
    1426:	80 91 52 23 	lds	r24, 0x2352	; 0x802352 <s_mask_1>
    142a:	50 dd       	rcall	.-1376   	; 0xecc <cons_sbox>
    142c:	81 e0       	ldi	r24, 0x01	; 1
    142e:	80 93 05 06 	sts	0x0605, r24	; 0x800605 <__TEXT_REGION_LENGTH__+0x700605>
    1432:	60 91 52 23 	lds	r22, 0x2352	; 0x802352 <s_mask_1>
    1436:	82 e4       	ldi	r24, 0x42	; 66
    1438:	93 e2       	ldi	r25, 0x23	; 35
    143a:	5d dd       	rcall	.-1350   	; 0xef6 <mask_all>
    143c:	c2 e1       	ldi	r28, 0x12	; 18
    143e:	d3 e2       	ldi	r29, 0x23	; 35
    1440:	be 01       	movw	r22, r28
    1442:	82 e4       	ldi	r24, 0x42	; 66
    1444:	93 e2       	ldi	r25, 0x23	; 35
    1446:	62 dd       	rcall	.-1340   	; 0xf0c <addroundkey>
    1448:	63 e6       	ldi	r22, 0x63	; 99
    144a:	73 e2       	ldi	r23, 0x23	; 35
    144c:	82 e4       	ldi	r24, 0x42	; 66
    144e:	93 e2       	ldi	r25, 0x23	; 35
    1450:	81 dd       	rcall	.-1278   	; 0xf54 <getboxvalue>
    1452:	82 e4       	ldi	r24, 0x42	; 66
    1454:	93 e2       	ldi	r25, 0x23	; 35
    1456:	ee dd       	rcall	.-1060   	; 0x1034 <diffusionmodule>
    1458:	21 e0       	ldi	r18, 0x01	; 1
    145a:	41 e0       	ldi	r20, 0x01	; 1
    145c:	61 e0       	ldi	r22, 0x01	; 1
    145e:	82 e4       	ldi	r24, 0x42	; 66
    1460:	93 e2       	ldi	r25, 0x23	; 35
    1462:	ad de       	rcall	.-678    	; 0x11be <catmap>
    1464:	60 96       	adiw	r28, 0x10	; 16
    1466:	83 e2       	ldi	r24, 0x23	; 35
    1468:	c2 34       	cpi	r28, 0x42	; 66
    146a:	d8 07       	cpc	r29, r24
    146c:	49 f7       	brne	.-46     	; 0x1440 <encLuoMasked+0x56>
    146e:	60 91 52 23 	lds	r22, 0x2352	; 0x802352 <s_mask_1>
    1472:	82 e4       	ldi	r24, 0x42	; 66
    1474:	93 e2       	ldi	r25, 0x23	; 35
    1476:	3f dd       	rcall	.-1410   	; 0xef6 <mask_all>
    1478:	81 e0       	ldi	r24, 0x01	; 1
    147a:	80 93 06 06 	sts	0x0606, r24	; 0x800606 <__TEXT_REGION_LENGTH__+0x700606>
    147e:	f7 01       	movw	r30, r14
    1480:	d8 01       	movw	r26, r16
    1482:	8d 91       	ld	r24, X+
    1484:	8d 01       	movw	r16, r26
    1486:	81 93       	st	Z+, r24
    1488:	b3 e2       	ldi	r27, 0x23	; 35
    148a:	02 35       	cpi	r16, 0x52	; 82
    148c:	1b 07       	cpc	r17, r27
    148e:	c1 f7       	brne	.-16     	; 0x1480 <encLuoMasked+0x96>
    1490:	df 91       	pop	r29
    1492:	cf 91       	pop	r28
    1494:	1f 91       	pop	r17
    1496:	0f 91       	pop	r16
    1498:	ff 90       	pop	r15
    149a:	ef 90       	pop	r14
    149c:	08 95       	ret

0000149e <cpu_irq_save>:
    149e:	cf 93       	push	r28
    14a0:	df 93       	push	r29
    14a2:	1f 92       	push	r1
    14a4:	cd b7       	in	r28, 0x3d	; 61
    14a6:	de b7       	in	r29, 0x3e	; 62
    14a8:	8f b7       	in	r24, 0x3f	; 63
    14aa:	89 83       	std	Y+1, r24	; 0x01
    14ac:	f8 94       	cli
    14ae:	89 81       	ldd	r24, Y+1	; 0x01
    14b0:	0f 90       	pop	r0
    14b2:	df 91       	pop	r29
    14b4:	cf 91       	pop	r28
    14b6:	08 95       	ret

000014b8 <sysclk_init>:
    14b8:	8f ef       	ldi	r24, 0xFF	; 255
    14ba:	80 93 70 00 	sts	0x0070, r24	; 0x800070 <__TEXT_REGION_LENGTH__+0x700070>
    14be:	80 93 71 00 	sts	0x0071, r24	; 0x800071 <__TEXT_REGION_LENGTH__+0x700071>
    14c2:	80 93 72 00 	sts	0x0072, r24	; 0x800072 <__TEXT_REGION_LENGTH__+0x700072>
    14c6:	80 93 73 00 	sts	0x0073, r24	; 0x800073 <__TEXT_REGION_LENGTH__+0x700073>
    14ca:	80 93 74 00 	sts	0x0074, r24	; 0x800074 <__TEXT_REGION_LENGTH__+0x700074>
    14ce:	80 93 75 00 	sts	0x0075, r24	; 0x800075 <__TEXT_REGION_LENGTH__+0x700075>
    14d2:	80 93 76 00 	sts	0x0076, r24	; 0x800076 <__TEXT_REGION_LENGTH__+0x700076>
    14d6:	10 92 52 00 	sts	0x0052, r1	; 0x800052 <__TEXT_REGION_LENGTH__+0x700052>
    14da:	e1 df       	rcall	.-62     	; 0x149e <cpu_irq_save>
    14dc:	90 91 50 00 	lds	r25, 0x0050	; 0x800050 <__TEXT_REGION_LENGTH__+0x700050>
    14e0:	98 60       	ori	r25, 0x08	; 8
    14e2:	90 93 50 00 	sts	0x0050, r25	; 0x800050 <__TEXT_REGION_LENGTH__+0x700050>
    14e6:	8f bf       	out	0x3f, r24	; 63
    14e8:	80 91 51 00 	lds	r24, 0x0051	; 0x800051 <__TEXT_REGION_LENGTH__+0x700051>
    14ec:	83 ff       	sbrs	r24, 3
    14ee:	fc cf       	rjmp	.-8      	; 0x14e8 <sysclk_init+0x30>
    14f0:	63 e0       	ldi	r22, 0x03	; 3
    14f2:	80 e4       	ldi	r24, 0x40	; 64
    14f4:	90 e0       	ldi	r25, 0x00	; 0
    14f6:	61 d4       	rcall	.+2242   	; 0x1dba <ccp_write_io>
    14f8:	d2 df       	rcall	.-92     	; 0x149e <cpu_irq_save>
    14fa:	90 91 50 00 	lds	r25, 0x0050	; 0x800050 <__TEXT_REGION_LENGTH__+0x700050>
    14fe:	9e 7f       	andi	r25, 0xFE	; 254
    1500:	90 93 50 00 	sts	0x0050, r25	; 0x800050 <__TEXT_REGION_LENGTH__+0x700050>
    1504:	8f bf       	out	0x3f, r24	; 63
    1506:	08 95       	ret

00001508 <sysclk_enable_module>:
    1508:	cf 93       	push	r28
    150a:	df 93       	push	r29
    150c:	c8 2f       	mov	r28, r24
    150e:	d6 2f       	mov	r29, r22
    1510:	c6 df       	rcall	.-116    	; 0x149e <cpu_irq_save>
    1512:	ec 2f       	mov	r30, r28
    1514:	f0 e0       	ldi	r31, 0x00	; 0
    1516:	e0 59       	subi	r30, 0x90	; 144
    1518:	ff 4f       	sbci	r31, 0xFF	; 255
    151a:	d0 95       	com	r29
    151c:	90 81       	ld	r25, Z
    151e:	d9 23       	and	r29, r25
    1520:	d0 83       	st	Z, r29
    1522:	8f bf       	out	0x3f, r24	; 63
    1524:	df 91       	pop	r29
    1526:	cf 91       	pop	r28
    1528:	08 95       	ret

0000152a <cpu_irq_save>:
    152a:	cf 93       	push	r28
    152c:	df 93       	push	r29
    152e:	1f 92       	push	r1
    1530:	cd b7       	in	r28, 0x3d	; 61
    1532:	de b7       	in	r29, 0x3e	; 62
    1534:	8f b7       	in	r24, 0x3f	; 63
    1536:	89 83       	std	Y+1, r24	; 0x01
    1538:	f8 94       	cli
    153a:	89 81       	ldd	r24, Y+1	; 0x01
    153c:	0f 90       	pop	r0
    153e:	df 91       	pop	r29
    1540:	cf 91       	pop	r28
    1542:	08 95       	ret

00001544 <__vector_14>:
    1544:	1f 92       	push	r1
    1546:	0f 92       	push	r0
    1548:	0f b6       	in	r0, 0x3f	; 63
    154a:	0f 92       	push	r0
    154c:	11 24       	eor	r1, r1
    154e:	0b b6       	in	r0, 0x3b	; 59
    1550:	0f 92       	push	r0
    1552:	2f 93       	push	r18
    1554:	3f 93       	push	r19
    1556:	4f 93       	push	r20
    1558:	5f 93       	push	r21
    155a:	6f 93       	push	r22
    155c:	7f 93       	push	r23
    155e:	8f 93       	push	r24
    1560:	9f 93       	push	r25
    1562:	af 93       	push	r26
    1564:	bf 93       	push	r27
    1566:	ef 93       	push	r30
    1568:	ff 93       	push	r31
    156a:	e0 91 60 22 	lds	r30, 0x2260	; 0x802260 <tc_tcc0_ovf_callback>
    156e:	f0 91 61 22 	lds	r31, 0x2261	; 0x802261 <tc_tcc0_ovf_callback+0x1>
    1572:	30 97       	sbiw	r30, 0x00	; 0
    1574:	09 f0       	breq	.+2      	; 0x1578 <__vector_14+0x34>
    1576:	19 95       	eicall
    1578:	ff 91       	pop	r31
    157a:	ef 91       	pop	r30
    157c:	bf 91       	pop	r27
    157e:	af 91       	pop	r26
    1580:	9f 91       	pop	r25
    1582:	8f 91       	pop	r24
    1584:	7f 91       	pop	r23
    1586:	6f 91       	pop	r22
    1588:	5f 91       	pop	r21
    158a:	4f 91       	pop	r20
    158c:	3f 91       	pop	r19
    158e:	2f 91       	pop	r18
    1590:	0f 90       	pop	r0
    1592:	0b be       	out	0x3b, r0	; 59
    1594:	0f 90       	pop	r0
    1596:	0f be       	out	0x3f, r0	; 63
    1598:	0f 90       	pop	r0
    159a:	1f 90       	pop	r1
    159c:	18 95       	reti

0000159e <__vector_15>:
    159e:	1f 92       	push	r1
    15a0:	0f 92       	push	r0
    15a2:	0f b6       	in	r0, 0x3f	; 63
    15a4:	0f 92       	push	r0
    15a6:	11 24       	eor	r1, r1
    15a8:	0b b6       	in	r0, 0x3b	; 59
    15aa:	0f 92       	push	r0
    15ac:	2f 93       	push	r18
    15ae:	3f 93       	push	r19
    15b0:	4f 93       	push	r20
    15b2:	5f 93       	push	r21
    15b4:	6f 93       	push	r22
    15b6:	7f 93       	push	r23
    15b8:	8f 93       	push	r24
    15ba:	9f 93       	push	r25
    15bc:	af 93       	push	r26
    15be:	bf 93       	push	r27
    15c0:	ef 93       	push	r30
    15c2:	ff 93       	push	r31
    15c4:	e0 91 5e 22 	lds	r30, 0x225E	; 0x80225e <tc_tcc0_err_callback>
    15c8:	f0 91 5f 22 	lds	r31, 0x225F	; 0x80225f <tc_tcc0_err_callback+0x1>
    15cc:	30 97       	sbiw	r30, 0x00	; 0
    15ce:	09 f0       	breq	.+2      	; 0x15d2 <__vector_15+0x34>
    15d0:	19 95       	eicall
    15d2:	ff 91       	pop	r31
    15d4:	ef 91       	pop	r30
    15d6:	bf 91       	pop	r27
    15d8:	af 91       	pop	r26
    15da:	9f 91       	pop	r25
    15dc:	8f 91       	pop	r24
    15de:	7f 91       	pop	r23
    15e0:	6f 91       	pop	r22
    15e2:	5f 91       	pop	r21
    15e4:	4f 91       	pop	r20
    15e6:	3f 91       	pop	r19
    15e8:	2f 91       	pop	r18
    15ea:	0f 90       	pop	r0
    15ec:	0b be       	out	0x3b, r0	; 59
    15ee:	0f 90       	pop	r0
    15f0:	0f be       	out	0x3f, r0	; 63
    15f2:	0f 90       	pop	r0
    15f4:	1f 90       	pop	r1
    15f6:	18 95       	reti

000015f8 <__vector_16>:
    15f8:	1f 92       	push	r1
    15fa:	0f 92       	push	r0
    15fc:	0f b6       	in	r0, 0x3f	; 63
    15fe:	0f 92       	push	r0
    1600:	11 24       	eor	r1, r1
    1602:	0b b6       	in	r0, 0x3b	; 59
    1604:	0f 92       	push	r0
    1606:	2f 93       	push	r18
    1608:	3f 93       	push	r19
    160a:	4f 93       	push	r20
    160c:	5f 93       	push	r21
    160e:	6f 93       	push	r22
    1610:	7f 93       	push	r23
    1612:	8f 93       	push	r24
    1614:	9f 93       	push	r25
    1616:	af 93       	push	r26
    1618:	bf 93       	push	r27
    161a:	ef 93       	push	r30
    161c:	ff 93       	push	r31
    161e:	e0 91 5c 22 	lds	r30, 0x225C	; 0x80225c <tc_tcc0_cca_callback>
    1622:	f0 91 5d 22 	lds	r31, 0x225D	; 0x80225d <tc_tcc0_cca_callback+0x1>
    1626:	30 97       	sbiw	r30, 0x00	; 0
    1628:	09 f0       	breq	.+2      	; 0x162c <__vector_16+0x34>
    162a:	19 95       	eicall
    162c:	ff 91       	pop	r31
    162e:	ef 91       	pop	r30
    1630:	bf 91       	pop	r27
    1632:	af 91       	pop	r26
    1634:	9f 91       	pop	r25
    1636:	8f 91       	pop	r24
    1638:	7f 91       	pop	r23
    163a:	6f 91       	pop	r22
    163c:	5f 91       	pop	r21
    163e:	4f 91       	pop	r20
    1640:	3f 91       	pop	r19
    1642:	2f 91       	pop	r18
    1644:	0f 90       	pop	r0
    1646:	0b be       	out	0x3b, r0	; 59
    1648:	0f 90       	pop	r0
    164a:	0f be       	out	0x3f, r0	; 63
    164c:	0f 90       	pop	r0
    164e:	1f 90       	pop	r1
    1650:	18 95       	reti

00001652 <__vector_17>:
    1652:	1f 92       	push	r1
    1654:	0f 92       	push	r0
    1656:	0f b6       	in	r0, 0x3f	; 63
    1658:	0f 92       	push	r0
    165a:	11 24       	eor	r1, r1
    165c:	0b b6       	in	r0, 0x3b	; 59
    165e:	0f 92       	push	r0
    1660:	2f 93       	push	r18
    1662:	3f 93       	push	r19
    1664:	4f 93       	push	r20
    1666:	5f 93       	push	r21
    1668:	6f 93       	push	r22
    166a:	7f 93       	push	r23
    166c:	8f 93       	push	r24
    166e:	9f 93       	push	r25
    1670:	af 93       	push	r26
    1672:	bf 93       	push	r27
    1674:	ef 93       	push	r30
    1676:	ff 93       	push	r31
    1678:	e0 91 5a 22 	lds	r30, 0x225A	; 0x80225a <tc_tcc0_ccb_callback>
    167c:	f0 91 5b 22 	lds	r31, 0x225B	; 0x80225b <tc_tcc0_ccb_callback+0x1>
    1680:	30 97       	sbiw	r30, 0x00	; 0
    1682:	09 f0       	breq	.+2      	; 0x1686 <__vector_17+0x34>
    1684:	19 95       	eicall
    1686:	ff 91       	pop	r31
    1688:	ef 91       	pop	r30
    168a:	bf 91       	pop	r27
    168c:	af 91       	pop	r26
    168e:	9f 91       	pop	r25
    1690:	8f 91       	pop	r24
    1692:	7f 91       	pop	r23
    1694:	6f 91       	pop	r22
    1696:	5f 91       	pop	r21
    1698:	4f 91       	pop	r20
    169a:	3f 91       	pop	r19
    169c:	2f 91       	pop	r18
    169e:	0f 90       	pop	r0
    16a0:	0b be       	out	0x3b, r0	; 59
    16a2:	0f 90       	pop	r0
    16a4:	0f be       	out	0x3f, r0	; 63
    16a6:	0f 90       	pop	r0
    16a8:	1f 90       	pop	r1
    16aa:	18 95       	reti

000016ac <__vector_18>:
    16ac:	1f 92       	push	r1
    16ae:	0f 92       	push	r0
    16b0:	0f b6       	in	r0, 0x3f	; 63
    16b2:	0f 92       	push	r0
    16b4:	11 24       	eor	r1, r1
    16b6:	0b b6       	in	r0, 0x3b	; 59
    16b8:	0f 92       	push	r0
    16ba:	2f 93       	push	r18
    16bc:	3f 93       	push	r19
    16be:	4f 93       	push	r20
    16c0:	5f 93       	push	r21
    16c2:	6f 93       	push	r22
    16c4:	7f 93       	push	r23
    16c6:	8f 93       	push	r24
    16c8:	9f 93       	push	r25
    16ca:	af 93       	push	r26
    16cc:	bf 93       	push	r27
    16ce:	ef 93       	push	r30
    16d0:	ff 93       	push	r31
    16d2:	e0 91 58 22 	lds	r30, 0x2258	; 0x802258 <tc_tcc0_ccc_callback>
    16d6:	f0 91 59 22 	lds	r31, 0x2259	; 0x802259 <tc_tcc0_ccc_callback+0x1>
    16da:	30 97       	sbiw	r30, 0x00	; 0
    16dc:	09 f0       	breq	.+2      	; 0x16e0 <__vector_18+0x34>
    16de:	19 95       	eicall
    16e0:	ff 91       	pop	r31
    16e2:	ef 91       	pop	r30
    16e4:	bf 91       	pop	r27
    16e6:	af 91       	pop	r26
    16e8:	9f 91       	pop	r25
    16ea:	8f 91       	pop	r24
    16ec:	7f 91       	pop	r23
    16ee:	6f 91       	pop	r22
    16f0:	5f 91       	pop	r21
    16f2:	4f 91       	pop	r20
    16f4:	3f 91       	pop	r19
    16f6:	2f 91       	pop	r18
    16f8:	0f 90       	pop	r0
    16fa:	0b be       	out	0x3b, r0	; 59
    16fc:	0f 90       	pop	r0
    16fe:	0f be       	out	0x3f, r0	; 63
    1700:	0f 90       	pop	r0
    1702:	1f 90       	pop	r1
    1704:	18 95       	reti

00001706 <__vector_19>:
    1706:	1f 92       	push	r1
    1708:	0f 92       	push	r0
    170a:	0f b6       	in	r0, 0x3f	; 63
    170c:	0f 92       	push	r0
    170e:	11 24       	eor	r1, r1
    1710:	0b b6       	in	r0, 0x3b	; 59
    1712:	0f 92       	push	r0
    1714:	2f 93       	push	r18
    1716:	3f 93       	push	r19
    1718:	4f 93       	push	r20
    171a:	5f 93       	push	r21
    171c:	6f 93       	push	r22
    171e:	7f 93       	push	r23
    1720:	8f 93       	push	r24
    1722:	9f 93       	push	r25
    1724:	af 93       	push	r26
    1726:	bf 93       	push	r27
    1728:	ef 93       	push	r30
    172a:	ff 93       	push	r31
    172c:	e0 91 56 22 	lds	r30, 0x2256	; 0x802256 <tc_tcc0_ccd_callback>
    1730:	f0 91 57 22 	lds	r31, 0x2257	; 0x802257 <tc_tcc0_ccd_callback+0x1>
    1734:	30 97       	sbiw	r30, 0x00	; 0
    1736:	09 f0       	breq	.+2      	; 0x173a <__vector_19+0x34>
    1738:	19 95       	eicall
    173a:	ff 91       	pop	r31
    173c:	ef 91       	pop	r30
    173e:	bf 91       	pop	r27
    1740:	af 91       	pop	r26
    1742:	9f 91       	pop	r25
    1744:	8f 91       	pop	r24
    1746:	7f 91       	pop	r23
    1748:	6f 91       	pop	r22
    174a:	5f 91       	pop	r21
    174c:	4f 91       	pop	r20
    174e:	3f 91       	pop	r19
    1750:	2f 91       	pop	r18
    1752:	0f 90       	pop	r0
    1754:	0b be       	out	0x3b, r0	; 59
    1756:	0f 90       	pop	r0
    1758:	0f be       	out	0x3f, r0	; 63
    175a:	0f 90       	pop	r0
    175c:	1f 90       	pop	r1
    175e:	18 95       	reti

00001760 <__vector_20>:
    1760:	1f 92       	push	r1
    1762:	0f 92       	push	r0
    1764:	0f b6       	in	r0, 0x3f	; 63
    1766:	0f 92       	push	r0
    1768:	11 24       	eor	r1, r1
    176a:	0b b6       	in	r0, 0x3b	; 59
    176c:	0f 92       	push	r0
    176e:	2f 93       	push	r18
    1770:	3f 93       	push	r19
    1772:	4f 93       	push	r20
    1774:	5f 93       	push	r21
    1776:	6f 93       	push	r22
    1778:	7f 93       	push	r23
    177a:	8f 93       	push	r24
    177c:	9f 93       	push	r25
    177e:	af 93       	push	r26
    1780:	bf 93       	push	r27
    1782:	ef 93       	push	r30
    1784:	ff 93       	push	r31
    1786:	e0 91 54 22 	lds	r30, 0x2254	; 0x802254 <tc_tcc1_ovf_callback>
    178a:	f0 91 55 22 	lds	r31, 0x2255	; 0x802255 <tc_tcc1_ovf_callback+0x1>
    178e:	30 97       	sbiw	r30, 0x00	; 0
    1790:	09 f0       	breq	.+2      	; 0x1794 <__vector_20+0x34>
    1792:	19 95       	eicall
    1794:	ff 91       	pop	r31
    1796:	ef 91       	pop	r30
    1798:	bf 91       	pop	r27
    179a:	af 91       	pop	r26
    179c:	9f 91       	pop	r25
    179e:	8f 91       	pop	r24
    17a0:	7f 91       	pop	r23
    17a2:	6f 91       	pop	r22
    17a4:	5f 91       	pop	r21
    17a6:	4f 91       	pop	r20
    17a8:	3f 91       	pop	r19
    17aa:	2f 91       	pop	r18
    17ac:	0f 90       	pop	r0
    17ae:	0b be       	out	0x3b, r0	; 59
    17b0:	0f 90       	pop	r0
    17b2:	0f be       	out	0x3f, r0	; 63
    17b4:	0f 90       	pop	r0
    17b6:	1f 90       	pop	r1
    17b8:	18 95       	reti

000017ba <__vector_21>:
    17ba:	1f 92       	push	r1
    17bc:	0f 92       	push	r0
    17be:	0f b6       	in	r0, 0x3f	; 63
    17c0:	0f 92       	push	r0
    17c2:	11 24       	eor	r1, r1
    17c4:	0b b6       	in	r0, 0x3b	; 59
    17c6:	0f 92       	push	r0
    17c8:	2f 93       	push	r18
    17ca:	3f 93       	push	r19
    17cc:	4f 93       	push	r20
    17ce:	5f 93       	push	r21
    17d0:	6f 93       	push	r22
    17d2:	7f 93       	push	r23
    17d4:	8f 93       	push	r24
    17d6:	9f 93       	push	r25
    17d8:	af 93       	push	r26
    17da:	bf 93       	push	r27
    17dc:	ef 93       	push	r30
    17de:	ff 93       	push	r31
    17e0:	e0 91 52 22 	lds	r30, 0x2252	; 0x802252 <tc_tcc1_err_callback>
    17e4:	f0 91 53 22 	lds	r31, 0x2253	; 0x802253 <tc_tcc1_err_callback+0x1>
    17e8:	30 97       	sbiw	r30, 0x00	; 0
    17ea:	09 f0       	breq	.+2      	; 0x17ee <__vector_21+0x34>
    17ec:	19 95       	eicall
    17ee:	ff 91       	pop	r31
    17f0:	ef 91       	pop	r30
    17f2:	bf 91       	pop	r27
    17f4:	af 91       	pop	r26
    17f6:	9f 91       	pop	r25
    17f8:	8f 91       	pop	r24
    17fa:	7f 91       	pop	r23
    17fc:	6f 91       	pop	r22
    17fe:	5f 91       	pop	r21
    1800:	4f 91       	pop	r20
    1802:	3f 91       	pop	r19
    1804:	2f 91       	pop	r18
    1806:	0f 90       	pop	r0
    1808:	0b be       	out	0x3b, r0	; 59
    180a:	0f 90       	pop	r0
    180c:	0f be       	out	0x3f, r0	; 63
    180e:	0f 90       	pop	r0
    1810:	1f 90       	pop	r1
    1812:	18 95       	reti

00001814 <__vector_22>:
    1814:	1f 92       	push	r1
    1816:	0f 92       	push	r0
    1818:	0f b6       	in	r0, 0x3f	; 63
    181a:	0f 92       	push	r0
    181c:	11 24       	eor	r1, r1
    181e:	0b b6       	in	r0, 0x3b	; 59
    1820:	0f 92       	push	r0
    1822:	2f 93       	push	r18
    1824:	3f 93       	push	r19
    1826:	4f 93       	push	r20
    1828:	5f 93       	push	r21
    182a:	6f 93       	push	r22
    182c:	7f 93       	push	r23
    182e:	8f 93       	push	r24
    1830:	9f 93       	push	r25
    1832:	af 93       	push	r26
    1834:	bf 93       	push	r27
    1836:	ef 93       	push	r30
    1838:	ff 93       	push	r31
    183a:	e0 91 50 22 	lds	r30, 0x2250	; 0x802250 <tc_tcc1_cca_callback>
    183e:	f0 91 51 22 	lds	r31, 0x2251	; 0x802251 <tc_tcc1_cca_callback+0x1>
    1842:	30 97       	sbiw	r30, 0x00	; 0
    1844:	09 f0       	breq	.+2      	; 0x1848 <__vector_22+0x34>
    1846:	19 95       	eicall
    1848:	ff 91       	pop	r31
    184a:	ef 91       	pop	r30
    184c:	bf 91       	pop	r27
    184e:	af 91       	pop	r26
    1850:	9f 91       	pop	r25
    1852:	8f 91       	pop	r24
    1854:	7f 91       	pop	r23
    1856:	6f 91       	pop	r22
    1858:	5f 91       	pop	r21
    185a:	4f 91       	pop	r20
    185c:	3f 91       	pop	r19
    185e:	2f 91       	pop	r18
    1860:	0f 90       	pop	r0
    1862:	0b be       	out	0x3b, r0	; 59
    1864:	0f 90       	pop	r0
    1866:	0f be       	out	0x3f, r0	; 63
    1868:	0f 90       	pop	r0
    186a:	1f 90       	pop	r1
    186c:	18 95       	reti

0000186e <__vector_23>:
    186e:	1f 92       	push	r1
    1870:	0f 92       	push	r0
    1872:	0f b6       	in	r0, 0x3f	; 63
    1874:	0f 92       	push	r0
    1876:	11 24       	eor	r1, r1
    1878:	0b b6       	in	r0, 0x3b	; 59
    187a:	0f 92       	push	r0
    187c:	2f 93       	push	r18
    187e:	3f 93       	push	r19
    1880:	4f 93       	push	r20
    1882:	5f 93       	push	r21
    1884:	6f 93       	push	r22
    1886:	7f 93       	push	r23
    1888:	8f 93       	push	r24
    188a:	9f 93       	push	r25
    188c:	af 93       	push	r26
    188e:	bf 93       	push	r27
    1890:	ef 93       	push	r30
    1892:	ff 93       	push	r31
    1894:	e0 91 4e 22 	lds	r30, 0x224E	; 0x80224e <tc_tcc1_ccb_callback>
    1898:	f0 91 4f 22 	lds	r31, 0x224F	; 0x80224f <tc_tcc1_ccb_callback+0x1>
    189c:	30 97       	sbiw	r30, 0x00	; 0
    189e:	09 f0       	breq	.+2      	; 0x18a2 <__vector_23+0x34>
    18a0:	19 95       	eicall
    18a2:	ff 91       	pop	r31
    18a4:	ef 91       	pop	r30
    18a6:	bf 91       	pop	r27
    18a8:	af 91       	pop	r26
    18aa:	9f 91       	pop	r25
    18ac:	8f 91       	pop	r24
    18ae:	7f 91       	pop	r23
    18b0:	6f 91       	pop	r22
    18b2:	5f 91       	pop	r21
    18b4:	4f 91       	pop	r20
    18b6:	3f 91       	pop	r19
    18b8:	2f 91       	pop	r18
    18ba:	0f 90       	pop	r0
    18bc:	0b be       	out	0x3b, r0	; 59
    18be:	0f 90       	pop	r0
    18c0:	0f be       	out	0x3f, r0	; 63
    18c2:	0f 90       	pop	r0
    18c4:	1f 90       	pop	r1
    18c6:	18 95       	reti

000018c8 <__vector_77>:
    18c8:	1f 92       	push	r1
    18ca:	0f 92       	push	r0
    18cc:	0f b6       	in	r0, 0x3f	; 63
    18ce:	0f 92       	push	r0
    18d0:	11 24       	eor	r1, r1
    18d2:	0b b6       	in	r0, 0x3b	; 59
    18d4:	0f 92       	push	r0
    18d6:	2f 93       	push	r18
    18d8:	3f 93       	push	r19
    18da:	4f 93       	push	r20
    18dc:	5f 93       	push	r21
    18de:	6f 93       	push	r22
    18e0:	7f 93       	push	r23
    18e2:	8f 93       	push	r24
    18e4:	9f 93       	push	r25
    18e6:	af 93       	push	r26
    18e8:	bf 93       	push	r27
    18ea:	ef 93       	push	r30
    18ec:	ff 93       	push	r31
    18ee:	e0 91 4c 22 	lds	r30, 0x224C	; 0x80224c <tc_tcd0_ovf_callback>
    18f2:	f0 91 4d 22 	lds	r31, 0x224D	; 0x80224d <tc_tcd0_ovf_callback+0x1>
    18f6:	30 97       	sbiw	r30, 0x00	; 0
    18f8:	09 f0       	breq	.+2      	; 0x18fc <__vector_77+0x34>
    18fa:	19 95       	eicall
    18fc:	ff 91       	pop	r31
    18fe:	ef 91       	pop	r30
    1900:	bf 91       	pop	r27
    1902:	af 91       	pop	r26
    1904:	9f 91       	pop	r25
    1906:	8f 91       	pop	r24
    1908:	7f 91       	pop	r23
    190a:	6f 91       	pop	r22
    190c:	5f 91       	pop	r21
    190e:	4f 91       	pop	r20
    1910:	3f 91       	pop	r19
    1912:	2f 91       	pop	r18
    1914:	0f 90       	pop	r0
    1916:	0b be       	out	0x3b, r0	; 59
    1918:	0f 90       	pop	r0
    191a:	0f be       	out	0x3f, r0	; 63
    191c:	0f 90       	pop	r0
    191e:	1f 90       	pop	r1
    1920:	18 95       	reti

00001922 <__vector_78>:
    1922:	1f 92       	push	r1
    1924:	0f 92       	push	r0
    1926:	0f b6       	in	r0, 0x3f	; 63
    1928:	0f 92       	push	r0
    192a:	11 24       	eor	r1, r1
    192c:	0b b6       	in	r0, 0x3b	; 59
    192e:	0f 92       	push	r0
    1930:	2f 93       	push	r18
    1932:	3f 93       	push	r19
    1934:	4f 93       	push	r20
    1936:	5f 93       	push	r21
    1938:	6f 93       	push	r22
    193a:	7f 93       	push	r23
    193c:	8f 93       	push	r24
    193e:	9f 93       	push	r25
    1940:	af 93       	push	r26
    1942:	bf 93       	push	r27
    1944:	ef 93       	push	r30
    1946:	ff 93       	push	r31
    1948:	e0 91 4a 22 	lds	r30, 0x224A	; 0x80224a <tc_tcd0_err_callback>
    194c:	f0 91 4b 22 	lds	r31, 0x224B	; 0x80224b <tc_tcd0_err_callback+0x1>
    1950:	30 97       	sbiw	r30, 0x00	; 0
    1952:	09 f0       	breq	.+2      	; 0x1956 <__vector_78+0x34>
    1954:	19 95       	eicall
    1956:	ff 91       	pop	r31
    1958:	ef 91       	pop	r30
    195a:	bf 91       	pop	r27
    195c:	af 91       	pop	r26
    195e:	9f 91       	pop	r25
    1960:	8f 91       	pop	r24
    1962:	7f 91       	pop	r23
    1964:	6f 91       	pop	r22
    1966:	5f 91       	pop	r21
    1968:	4f 91       	pop	r20
    196a:	3f 91       	pop	r19
    196c:	2f 91       	pop	r18
    196e:	0f 90       	pop	r0
    1970:	0b be       	out	0x3b, r0	; 59
    1972:	0f 90       	pop	r0
    1974:	0f be       	out	0x3f, r0	; 63
    1976:	0f 90       	pop	r0
    1978:	1f 90       	pop	r1
    197a:	18 95       	reti

0000197c <__vector_79>:
    197c:	1f 92       	push	r1
    197e:	0f 92       	push	r0
    1980:	0f b6       	in	r0, 0x3f	; 63
    1982:	0f 92       	push	r0
    1984:	11 24       	eor	r1, r1
    1986:	0b b6       	in	r0, 0x3b	; 59
    1988:	0f 92       	push	r0
    198a:	2f 93       	push	r18
    198c:	3f 93       	push	r19
    198e:	4f 93       	push	r20
    1990:	5f 93       	push	r21
    1992:	6f 93       	push	r22
    1994:	7f 93       	push	r23
    1996:	8f 93       	push	r24
    1998:	9f 93       	push	r25
    199a:	af 93       	push	r26
    199c:	bf 93       	push	r27
    199e:	ef 93       	push	r30
    19a0:	ff 93       	push	r31
    19a2:	e0 91 48 22 	lds	r30, 0x2248	; 0x802248 <tc_tcd0_cca_callback>
    19a6:	f0 91 49 22 	lds	r31, 0x2249	; 0x802249 <tc_tcd0_cca_callback+0x1>
    19aa:	30 97       	sbiw	r30, 0x00	; 0
    19ac:	09 f0       	breq	.+2      	; 0x19b0 <__vector_79+0x34>
    19ae:	19 95       	eicall
    19b0:	ff 91       	pop	r31
    19b2:	ef 91       	pop	r30
    19b4:	bf 91       	pop	r27
    19b6:	af 91       	pop	r26
    19b8:	9f 91       	pop	r25
    19ba:	8f 91       	pop	r24
    19bc:	7f 91       	pop	r23
    19be:	6f 91       	pop	r22
    19c0:	5f 91       	pop	r21
    19c2:	4f 91       	pop	r20
    19c4:	3f 91       	pop	r19
    19c6:	2f 91       	pop	r18
    19c8:	0f 90       	pop	r0
    19ca:	0b be       	out	0x3b, r0	; 59
    19cc:	0f 90       	pop	r0
    19ce:	0f be       	out	0x3f, r0	; 63
    19d0:	0f 90       	pop	r0
    19d2:	1f 90       	pop	r1
    19d4:	18 95       	reti

000019d6 <__vector_80>:
    19d6:	1f 92       	push	r1
    19d8:	0f 92       	push	r0
    19da:	0f b6       	in	r0, 0x3f	; 63
    19dc:	0f 92       	push	r0
    19de:	11 24       	eor	r1, r1
    19e0:	0b b6       	in	r0, 0x3b	; 59
    19e2:	0f 92       	push	r0
    19e4:	2f 93       	push	r18
    19e6:	3f 93       	push	r19
    19e8:	4f 93       	push	r20
    19ea:	5f 93       	push	r21
    19ec:	6f 93       	push	r22
    19ee:	7f 93       	push	r23
    19f0:	8f 93       	push	r24
    19f2:	9f 93       	push	r25
    19f4:	af 93       	push	r26
    19f6:	bf 93       	push	r27
    19f8:	ef 93       	push	r30
    19fa:	ff 93       	push	r31
    19fc:	e0 91 46 22 	lds	r30, 0x2246	; 0x802246 <tc_tcd0_ccb_callback>
    1a00:	f0 91 47 22 	lds	r31, 0x2247	; 0x802247 <tc_tcd0_ccb_callback+0x1>
    1a04:	30 97       	sbiw	r30, 0x00	; 0
    1a06:	09 f0       	breq	.+2      	; 0x1a0a <__vector_80+0x34>
    1a08:	19 95       	eicall
    1a0a:	ff 91       	pop	r31
    1a0c:	ef 91       	pop	r30
    1a0e:	bf 91       	pop	r27
    1a10:	af 91       	pop	r26
    1a12:	9f 91       	pop	r25
    1a14:	8f 91       	pop	r24
    1a16:	7f 91       	pop	r23
    1a18:	6f 91       	pop	r22
    1a1a:	5f 91       	pop	r21
    1a1c:	4f 91       	pop	r20
    1a1e:	3f 91       	pop	r19
    1a20:	2f 91       	pop	r18
    1a22:	0f 90       	pop	r0
    1a24:	0b be       	out	0x3b, r0	; 59
    1a26:	0f 90       	pop	r0
    1a28:	0f be       	out	0x3f, r0	; 63
    1a2a:	0f 90       	pop	r0
    1a2c:	1f 90       	pop	r1
    1a2e:	18 95       	reti

00001a30 <__vector_81>:
    1a30:	1f 92       	push	r1
    1a32:	0f 92       	push	r0
    1a34:	0f b6       	in	r0, 0x3f	; 63
    1a36:	0f 92       	push	r0
    1a38:	11 24       	eor	r1, r1
    1a3a:	0b b6       	in	r0, 0x3b	; 59
    1a3c:	0f 92       	push	r0
    1a3e:	2f 93       	push	r18
    1a40:	3f 93       	push	r19
    1a42:	4f 93       	push	r20
    1a44:	5f 93       	push	r21
    1a46:	6f 93       	push	r22
    1a48:	7f 93       	push	r23
    1a4a:	8f 93       	push	r24
    1a4c:	9f 93       	push	r25
    1a4e:	af 93       	push	r26
    1a50:	bf 93       	push	r27
    1a52:	ef 93       	push	r30
    1a54:	ff 93       	push	r31
    1a56:	e0 91 44 22 	lds	r30, 0x2244	; 0x802244 <tc_tcd0_ccc_callback>
    1a5a:	f0 91 45 22 	lds	r31, 0x2245	; 0x802245 <tc_tcd0_ccc_callback+0x1>
    1a5e:	30 97       	sbiw	r30, 0x00	; 0
    1a60:	09 f0       	breq	.+2      	; 0x1a64 <__vector_81+0x34>
    1a62:	19 95       	eicall
    1a64:	ff 91       	pop	r31
    1a66:	ef 91       	pop	r30
    1a68:	bf 91       	pop	r27
    1a6a:	af 91       	pop	r26
    1a6c:	9f 91       	pop	r25
    1a6e:	8f 91       	pop	r24
    1a70:	7f 91       	pop	r23
    1a72:	6f 91       	pop	r22
    1a74:	5f 91       	pop	r21
    1a76:	4f 91       	pop	r20
    1a78:	3f 91       	pop	r19
    1a7a:	2f 91       	pop	r18
    1a7c:	0f 90       	pop	r0
    1a7e:	0b be       	out	0x3b, r0	; 59
    1a80:	0f 90       	pop	r0
    1a82:	0f be       	out	0x3f, r0	; 63
    1a84:	0f 90       	pop	r0
    1a86:	1f 90       	pop	r1
    1a88:	18 95       	reti

00001a8a <__vector_82>:
    1a8a:	1f 92       	push	r1
    1a8c:	0f 92       	push	r0
    1a8e:	0f b6       	in	r0, 0x3f	; 63
    1a90:	0f 92       	push	r0
    1a92:	11 24       	eor	r1, r1
    1a94:	0b b6       	in	r0, 0x3b	; 59
    1a96:	0f 92       	push	r0
    1a98:	2f 93       	push	r18
    1a9a:	3f 93       	push	r19
    1a9c:	4f 93       	push	r20
    1a9e:	5f 93       	push	r21
    1aa0:	6f 93       	push	r22
    1aa2:	7f 93       	push	r23
    1aa4:	8f 93       	push	r24
    1aa6:	9f 93       	push	r25
    1aa8:	af 93       	push	r26
    1aaa:	bf 93       	push	r27
    1aac:	ef 93       	push	r30
    1aae:	ff 93       	push	r31
    1ab0:	e0 91 42 22 	lds	r30, 0x2242	; 0x802242 <tc_tcd0_ccd_callback>
    1ab4:	f0 91 43 22 	lds	r31, 0x2243	; 0x802243 <tc_tcd0_ccd_callback+0x1>
    1ab8:	30 97       	sbiw	r30, 0x00	; 0
    1aba:	09 f0       	breq	.+2      	; 0x1abe <__vector_82+0x34>
    1abc:	19 95       	eicall
    1abe:	ff 91       	pop	r31
    1ac0:	ef 91       	pop	r30
    1ac2:	bf 91       	pop	r27
    1ac4:	af 91       	pop	r26
    1ac6:	9f 91       	pop	r25
    1ac8:	8f 91       	pop	r24
    1aca:	7f 91       	pop	r23
    1acc:	6f 91       	pop	r22
    1ace:	5f 91       	pop	r21
    1ad0:	4f 91       	pop	r20
    1ad2:	3f 91       	pop	r19
    1ad4:	2f 91       	pop	r18
    1ad6:	0f 90       	pop	r0
    1ad8:	0b be       	out	0x3b, r0	; 59
    1ada:	0f 90       	pop	r0
    1adc:	0f be       	out	0x3f, r0	; 63
    1ade:	0f 90       	pop	r0
    1ae0:	1f 90       	pop	r1
    1ae2:	18 95       	reti

00001ae4 <__vector_47>:
    1ae4:	1f 92       	push	r1
    1ae6:	0f 92       	push	r0
    1ae8:	0f b6       	in	r0, 0x3f	; 63
    1aea:	0f 92       	push	r0
    1aec:	11 24       	eor	r1, r1
    1aee:	0b b6       	in	r0, 0x3b	; 59
    1af0:	0f 92       	push	r0
    1af2:	2f 93       	push	r18
    1af4:	3f 93       	push	r19
    1af6:	4f 93       	push	r20
    1af8:	5f 93       	push	r21
    1afa:	6f 93       	push	r22
    1afc:	7f 93       	push	r23
    1afe:	8f 93       	push	r24
    1b00:	9f 93       	push	r25
    1b02:	af 93       	push	r26
    1b04:	bf 93       	push	r27
    1b06:	ef 93       	push	r30
    1b08:	ff 93       	push	r31
    1b0a:	e0 91 40 22 	lds	r30, 0x2240	; 0x802240 <tc_tce0_ovf_callback>
    1b0e:	f0 91 41 22 	lds	r31, 0x2241	; 0x802241 <tc_tce0_ovf_callback+0x1>
    1b12:	30 97       	sbiw	r30, 0x00	; 0
    1b14:	09 f0       	breq	.+2      	; 0x1b18 <__vector_47+0x34>
    1b16:	19 95       	eicall
    1b18:	ff 91       	pop	r31
    1b1a:	ef 91       	pop	r30
    1b1c:	bf 91       	pop	r27
    1b1e:	af 91       	pop	r26
    1b20:	9f 91       	pop	r25
    1b22:	8f 91       	pop	r24
    1b24:	7f 91       	pop	r23
    1b26:	6f 91       	pop	r22
    1b28:	5f 91       	pop	r21
    1b2a:	4f 91       	pop	r20
    1b2c:	3f 91       	pop	r19
    1b2e:	2f 91       	pop	r18
    1b30:	0f 90       	pop	r0
    1b32:	0b be       	out	0x3b, r0	; 59
    1b34:	0f 90       	pop	r0
    1b36:	0f be       	out	0x3f, r0	; 63
    1b38:	0f 90       	pop	r0
    1b3a:	1f 90       	pop	r1
    1b3c:	18 95       	reti

00001b3e <__vector_48>:
    1b3e:	1f 92       	push	r1
    1b40:	0f 92       	push	r0
    1b42:	0f b6       	in	r0, 0x3f	; 63
    1b44:	0f 92       	push	r0
    1b46:	11 24       	eor	r1, r1
    1b48:	0b b6       	in	r0, 0x3b	; 59
    1b4a:	0f 92       	push	r0
    1b4c:	2f 93       	push	r18
    1b4e:	3f 93       	push	r19
    1b50:	4f 93       	push	r20
    1b52:	5f 93       	push	r21
    1b54:	6f 93       	push	r22
    1b56:	7f 93       	push	r23
    1b58:	8f 93       	push	r24
    1b5a:	9f 93       	push	r25
    1b5c:	af 93       	push	r26
    1b5e:	bf 93       	push	r27
    1b60:	ef 93       	push	r30
    1b62:	ff 93       	push	r31
    1b64:	e0 91 3e 22 	lds	r30, 0x223E	; 0x80223e <tc_tce0_err_callback>
    1b68:	f0 91 3f 22 	lds	r31, 0x223F	; 0x80223f <tc_tce0_err_callback+0x1>
    1b6c:	30 97       	sbiw	r30, 0x00	; 0
    1b6e:	09 f0       	breq	.+2      	; 0x1b72 <__vector_48+0x34>
    1b70:	19 95       	eicall
    1b72:	ff 91       	pop	r31
    1b74:	ef 91       	pop	r30
    1b76:	bf 91       	pop	r27
    1b78:	af 91       	pop	r26
    1b7a:	9f 91       	pop	r25
    1b7c:	8f 91       	pop	r24
    1b7e:	7f 91       	pop	r23
    1b80:	6f 91       	pop	r22
    1b82:	5f 91       	pop	r21
    1b84:	4f 91       	pop	r20
    1b86:	3f 91       	pop	r19
    1b88:	2f 91       	pop	r18
    1b8a:	0f 90       	pop	r0
    1b8c:	0b be       	out	0x3b, r0	; 59
    1b8e:	0f 90       	pop	r0
    1b90:	0f be       	out	0x3f, r0	; 63
    1b92:	0f 90       	pop	r0
    1b94:	1f 90       	pop	r1
    1b96:	18 95       	reti

00001b98 <__vector_49>:
    1b98:	1f 92       	push	r1
    1b9a:	0f 92       	push	r0
    1b9c:	0f b6       	in	r0, 0x3f	; 63
    1b9e:	0f 92       	push	r0
    1ba0:	11 24       	eor	r1, r1
    1ba2:	0b b6       	in	r0, 0x3b	; 59
    1ba4:	0f 92       	push	r0
    1ba6:	2f 93       	push	r18
    1ba8:	3f 93       	push	r19
    1baa:	4f 93       	push	r20
    1bac:	5f 93       	push	r21
    1bae:	6f 93       	push	r22
    1bb0:	7f 93       	push	r23
    1bb2:	8f 93       	push	r24
    1bb4:	9f 93       	push	r25
    1bb6:	af 93       	push	r26
    1bb8:	bf 93       	push	r27
    1bba:	ef 93       	push	r30
    1bbc:	ff 93       	push	r31
    1bbe:	e0 91 3c 22 	lds	r30, 0x223C	; 0x80223c <tc_tce0_cca_callback>
    1bc2:	f0 91 3d 22 	lds	r31, 0x223D	; 0x80223d <tc_tce0_cca_callback+0x1>
    1bc6:	30 97       	sbiw	r30, 0x00	; 0
    1bc8:	09 f0       	breq	.+2      	; 0x1bcc <__vector_49+0x34>
    1bca:	19 95       	eicall
    1bcc:	ff 91       	pop	r31
    1bce:	ef 91       	pop	r30
    1bd0:	bf 91       	pop	r27
    1bd2:	af 91       	pop	r26
    1bd4:	9f 91       	pop	r25
    1bd6:	8f 91       	pop	r24
    1bd8:	7f 91       	pop	r23
    1bda:	6f 91       	pop	r22
    1bdc:	5f 91       	pop	r21
    1bde:	4f 91       	pop	r20
    1be0:	3f 91       	pop	r19
    1be2:	2f 91       	pop	r18
    1be4:	0f 90       	pop	r0
    1be6:	0b be       	out	0x3b, r0	; 59
    1be8:	0f 90       	pop	r0
    1bea:	0f be       	out	0x3f, r0	; 63
    1bec:	0f 90       	pop	r0
    1bee:	1f 90       	pop	r1
    1bf0:	18 95       	reti

00001bf2 <__vector_50>:
    1bf2:	1f 92       	push	r1
    1bf4:	0f 92       	push	r0
    1bf6:	0f b6       	in	r0, 0x3f	; 63
    1bf8:	0f 92       	push	r0
    1bfa:	11 24       	eor	r1, r1
    1bfc:	0b b6       	in	r0, 0x3b	; 59
    1bfe:	0f 92       	push	r0
    1c00:	2f 93       	push	r18
    1c02:	3f 93       	push	r19
    1c04:	4f 93       	push	r20
    1c06:	5f 93       	push	r21
    1c08:	6f 93       	push	r22
    1c0a:	7f 93       	push	r23
    1c0c:	8f 93       	push	r24
    1c0e:	9f 93       	push	r25
    1c10:	af 93       	push	r26
    1c12:	bf 93       	push	r27
    1c14:	ef 93       	push	r30
    1c16:	ff 93       	push	r31
    1c18:	e0 91 3a 22 	lds	r30, 0x223A	; 0x80223a <tc_tce0_ccb_callback>
    1c1c:	f0 91 3b 22 	lds	r31, 0x223B	; 0x80223b <tc_tce0_ccb_callback+0x1>
    1c20:	30 97       	sbiw	r30, 0x00	; 0
    1c22:	09 f0       	breq	.+2      	; 0x1c26 <__vector_50+0x34>
    1c24:	19 95       	eicall
    1c26:	ff 91       	pop	r31
    1c28:	ef 91       	pop	r30
    1c2a:	bf 91       	pop	r27
    1c2c:	af 91       	pop	r26
    1c2e:	9f 91       	pop	r25
    1c30:	8f 91       	pop	r24
    1c32:	7f 91       	pop	r23
    1c34:	6f 91       	pop	r22
    1c36:	5f 91       	pop	r21
    1c38:	4f 91       	pop	r20
    1c3a:	3f 91       	pop	r19
    1c3c:	2f 91       	pop	r18
    1c3e:	0f 90       	pop	r0
    1c40:	0b be       	out	0x3b, r0	; 59
    1c42:	0f 90       	pop	r0
    1c44:	0f be       	out	0x3f, r0	; 63
    1c46:	0f 90       	pop	r0
    1c48:	1f 90       	pop	r1
    1c4a:	18 95       	reti

00001c4c <__vector_51>:
    1c4c:	1f 92       	push	r1
    1c4e:	0f 92       	push	r0
    1c50:	0f b6       	in	r0, 0x3f	; 63
    1c52:	0f 92       	push	r0
    1c54:	11 24       	eor	r1, r1
    1c56:	0b b6       	in	r0, 0x3b	; 59
    1c58:	0f 92       	push	r0
    1c5a:	2f 93       	push	r18
    1c5c:	3f 93       	push	r19
    1c5e:	4f 93       	push	r20
    1c60:	5f 93       	push	r21
    1c62:	6f 93       	push	r22
    1c64:	7f 93       	push	r23
    1c66:	8f 93       	push	r24
    1c68:	9f 93       	push	r25
    1c6a:	af 93       	push	r26
    1c6c:	bf 93       	push	r27
    1c6e:	ef 93       	push	r30
    1c70:	ff 93       	push	r31
    1c72:	e0 91 38 22 	lds	r30, 0x2238	; 0x802238 <tc_tce0_ccc_callback>
    1c76:	f0 91 39 22 	lds	r31, 0x2239	; 0x802239 <tc_tce0_ccc_callback+0x1>
    1c7a:	30 97       	sbiw	r30, 0x00	; 0
    1c7c:	09 f0       	breq	.+2      	; 0x1c80 <__vector_51+0x34>
    1c7e:	19 95       	eicall
    1c80:	ff 91       	pop	r31
    1c82:	ef 91       	pop	r30
    1c84:	bf 91       	pop	r27
    1c86:	af 91       	pop	r26
    1c88:	9f 91       	pop	r25
    1c8a:	8f 91       	pop	r24
    1c8c:	7f 91       	pop	r23
    1c8e:	6f 91       	pop	r22
    1c90:	5f 91       	pop	r21
    1c92:	4f 91       	pop	r20
    1c94:	3f 91       	pop	r19
    1c96:	2f 91       	pop	r18
    1c98:	0f 90       	pop	r0
    1c9a:	0b be       	out	0x3b, r0	; 59
    1c9c:	0f 90       	pop	r0
    1c9e:	0f be       	out	0x3f, r0	; 63
    1ca0:	0f 90       	pop	r0
    1ca2:	1f 90       	pop	r1
    1ca4:	18 95       	reti

00001ca6 <__vector_52>:
    1ca6:	1f 92       	push	r1
    1ca8:	0f 92       	push	r0
    1caa:	0f b6       	in	r0, 0x3f	; 63
    1cac:	0f 92       	push	r0
    1cae:	11 24       	eor	r1, r1
    1cb0:	0b b6       	in	r0, 0x3b	; 59
    1cb2:	0f 92       	push	r0
    1cb4:	2f 93       	push	r18
    1cb6:	3f 93       	push	r19
    1cb8:	4f 93       	push	r20
    1cba:	5f 93       	push	r21
    1cbc:	6f 93       	push	r22
    1cbe:	7f 93       	push	r23
    1cc0:	8f 93       	push	r24
    1cc2:	9f 93       	push	r25
    1cc4:	af 93       	push	r26
    1cc6:	bf 93       	push	r27
    1cc8:	ef 93       	push	r30
    1cca:	ff 93       	push	r31
    1ccc:	e0 91 36 22 	lds	r30, 0x2236	; 0x802236 <tc_tce0_ccd_callback>
    1cd0:	f0 91 37 22 	lds	r31, 0x2237	; 0x802237 <tc_tce0_ccd_callback+0x1>
    1cd4:	30 97       	sbiw	r30, 0x00	; 0
    1cd6:	09 f0       	breq	.+2      	; 0x1cda <__vector_52+0x34>
    1cd8:	19 95       	eicall
    1cda:	ff 91       	pop	r31
    1cdc:	ef 91       	pop	r30
    1cde:	bf 91       	pop	r27
    1ce0:	af 91       	pop	r26
    1ce2:	9f 91       	pop	r25
    1ce4:	8f 91       	pop	r24
    1ce6:	7f 91       	pop	r23
    1ce8:	6f 91       	pop	r22
    1cea:	5f 91       	pop	r21
    1cec:	4f 91       	pop	r20
    1cee:	3f 91       	pop	r19
    1cf0:	2f 91       	pop	r18
    1cf2:	0f 90       	pop	r0
    1cf4:	0b be       	out	0x3b, r0	; 59
    1cf6:	0f 90       	pop	r0
    1cf8:	0f be       	out	0x3f, r0	; 63
    1cfa:	0f 90       	pop	r0
    1cfc:	1f 90       	pop	r1
    1cfe:	18 95       	reti

00001d00 <tc_enable>:
    1d00:	1f 93       	push	r17
    1d02:	cf 93       	push	r28
    1d04:	df 93       	push	r29
    1d06:	ec 01       	movw	r28, r24
    1d08:	10 dc       	rcall	.-2016   	; 0x152a <cpu_irq_save>
    1d0a:	18 2f       	mov	r17, r24
    1d0c:	c1 15       	cp	r28, r1
    1d0e:	88 e0       	ldi	r24, 0x08	; 8
    1d10:	d8 07       	cpc	r29, r24
    1d12:	11 f4       	brne	.+4      	; 0x1d18 <tc_enable+0x18>
    1d14:	61 e0       	ldi	r22, 0x01	; 1
    1d16:	05 c0       	rjmp	.+10     	; 0x1d22 <tc_enable+0x22>
    1d18:	c0 34       	cpi	r28, 0x40	; 64
    1d1a:	88 e0       	ldi	r24, 0x08	; 8
    1d1c:	d8 07       	cpc	r29, r24
    1d1e:	31 f4       	brne	.+12     	; 0x1d2c <tc_enable+0x2c>
    1d20:	62 e0       	ldi	r22, 0x02	; 2
    1d22:	83 e0       	ldi	r24, 0x03	; 3
    1d24:	f1 db       	rcall	.-2078   	; 0x1508 <sysclk_enable_module>
    1d26:	64 e0       	ldi	r22, 0x04	; 4
    1d28:	83 e0       	ldi	r24, 0x03	; 3
    1d2a:	12 c0       	rjmp	.+36     	; 0x1d50 <tc_enable+0x50>
    1d2c:	c1 15       	cp	r28, r1
    1d2e:	89 e0       	ldi	r24, 0x09	; 9
    1d30:	d8 07       	cpc	r29, r24
    1d32:	31 f4       	brne	.+12     	; 0x1d40 <tc_enable+0x40>
    1d34:	61 e0       	ldi	r22, 0x01	; 1
    1d36:	84 e0       	ldi	r24, 0x04	; 4
    1d38:	e7 db       	rcall	.-2098   	; 0x1508 <sysclk_enable_module>
    1d3a:	64 e0       	ldi	r22, 0x04	; 4
    1d3c:	84 e0       	ldi	r24, 0x04	; 4
    1d3e:	08 c0       	rjmp	.+16     	; 0x1d50 <tc_enable+0x50>
    1d40:	c1 15       	cp	r28, r1
    1d42:	da 40       	sbci	r29, 0x0A	; 10
    1d44:	91 f4       	brne	.+36     	; 0x1d6a <tc_enable+0x6a>
    1d46:	61 e0       	ldi	r22, 0x01	; 1
    1d48:	85 e0       	ldi	r24, 0x05	; 5
    1d4a:	de db       	rcall	.-2116   	; 0x1508 <sysclk_enable_module>
    1d4c:	64 e0       	ldi	r22, 0x04	; 4
    1d4e:	85 e0       	ldi	r24, 0x05	; 5
    1d50:	db db       	rcall	.-2122   	; 0x1508 <sysclk_enable_module>
    1d52:	80 91 67 24 	lds	r24, 0x2467	; 0x802467 <sleepmgr_locks+0x1>
    1d56:	8f 3f       	cpi	r24, 0xFF	; 255
    1d58:	09 f4       	brne	.+2      	; 0x1d5c <tc_enable+0x5c>
    1d5a:	ff cf       	rjmp	.-2      	; 0x1d5a <tc_enable+0x5a>
    1d5c:	e6 db       	rcall	.-2100   	; 0x152a <cpu_irq_save>
    1d5e:	90 91 67 24 	lds	r25, 0x2467	; 0x802467 <sleepmgr_locks+0x1>
    1d62:	9f 5f       	subi	r25, 0xFF	; 255
    1d64:	90 93 67 24 	sts	0x2467, r25	; 0x802467 <sleepmgr_locks+0x1>
    1d68:	8f bf       	out	0x3f, r24	; 63
    1d6a:	1f bf       	out	0x3f, r17	; 63
    1d6c:	df 91       	pop	r29
    1d6e:	cf 91       	pop	r28
    1d70:	1f 91       	pop	r17
    1d72:	08 95       	ret

00001d74 <tc_set_overflow_interrupt_callback>:
    1d74:	81 15       	cp	r24, r1
    1d76:	28 e0       	ldi	r18, 0x08	; 8
    1d78:	92 07       	cpc	r25, r18
    1d7a:	29 f4       	brne	.+10     	; 0x1d86 <tc_set_overflow_interrupt_callback+0x12>
    1d7c:	60 93 60 22 	sts	0x2260, r22	; 0x802260 <tc_tcc0_ovf_callback>
    1d80:	70 93 61 22 	sts	0x2261, r23	; 0x802261 <tc_tcc0_ovf_callback+0x1>
    1d84:	08 95       	ret
    1d86:	80 34       	cpi	r24, 0x40	; 64
    1d88:	28 e0       	ldi	r18, 0x08	; 8
    1d8a:	92 07       	cpc	r25, r18
    1d8c:	29 f4       	brne	.+10     	; 0x1d98 <tc_set_overflow_interrupt_callback+0x24>
    1d8e:	60 93 54 22 	sts	0x2254, r22	; 0x802254 <tc_tcc1_ovf_callback>
    1d92:	70 93 55 22 	sts	0x2255, r23	; 0x802255 <tc_tcc1_ovf_callback+0x1>
    1d96:	08 95       	ret
    1d98:	81 15       	cp	r24, r1
    1d9a:	29 e0       	ldi	r18, 0x09	; 9
    1d9c:	92 07       	cpc	r25, r18
    1d9e:	29 f4       	brne	.+10     	; 0x1daa <tc_set_overflow_interrupt_callback+0x36>
    1da0:	60 93 4c 22 	sts	0x224C, r22	; 0x80224c <tc_tcd0_ovf_callback>
    1da4:	70 93 4d 22 	sts	0x224D, r23	; 0x80224d <tc_tcd0_ovf_callback+0x1>
    1da8:	08 95       	ret
    1daa:	81 15       	cp	r24, r1
    1dac:	9a 40       	sbci	r25, 0x0A	; 10
    1dae:	21 f4       	brne	.+8      	; 0x1db8 <tc_set_overflow_interrupt_callback+0x44>
    1db0:	60 93 40 22 	sts	0x2240, r22	; 0x802240 <tc_tce0_ovf_callback>
    1db4:	70 93 41 22 	sts	0x2241, r23	; 0x802241 <tc_tce0_ovf_callback+0x1>
    1db8:	08 95       	ret

00001dba <ccp_write_io>:
    1dba:	1b be       	out	0x3b, r1	; 59
    1dbc:	fc 01       	movw	r30, r24
    1dbe:	28 ed       	ldi	r18, 0xD8	; 216
    1dc0:	24 bf       	out	0x34, r18	; 52
    1dc2:	60 83       	st	Z, r22
    1dc4:	08 95       	ret

00001dc6 <__subsf3>:
    1dc6:	50 58       	subi	r21, 0x80	; 128

00001dc8 <__addsf3>:
    1dc8:	bb 27       	eor	r27, r27
    1dca:	aa 27       	eor	r26, r26
    1dcc:	0e d0       	rcall	.+28     	; 0x1dea <__addsf3x>
    1dce:	70 c1       	rjmp	.+736    	; 0x20b0 <__fp_round>
    1dd0:	61 d1       	rcall	.+706    	; 0x2094 <__fp_pscA>
    1dd2:	30 f0       	brcs	.+12     	; 0x1de0 <__addsf3+0x18>
    1dd4:	66 d1       	rcall	.+716    	; 0x20a2 <__fp_pscB>
    1dd6:	20 f0       	brcs	.+8      	; 0x1de0 <__addsf3+0x18>
    1dd8:	31 f4       	brne	.+12     	; 0x1de6 <__addsf3+0x1e>
    1dda:	9f 3f       	cpi	r25, 0xFF	; 255
    1ddc:	11 f4       	brne	.+4      	; 0x1de2 <__addsf3+0x1a>
    1dde:	1e f4       	brtc	.+6      	; 0x1de6 <__addsf3+0x1e>
    1de0:	56 c1       	rjmp	.+684    	; 0x208e <__fp_nan>
    1de2:	0e f4       	brtc	.+2      	; 0x1de6 <__addsf3+0x1e>
    1de4:	e0 95       	com	r30
    1de6:	e7 fb       	bst	r30, 7
    1de8:	4c c1       	rjmp	.+664    	; 0x2082 <__fp_inf>

00001dea <__addsf3x>:
    1dea:	e9 2f       	mov	r30, r25
    1dec:	72 d1       	rcall	.+740    	; 0x20d2 <__fp_split3>
    1dee:	80 f3       	brcs	.-32     	; 0x1dd0 <__addsf3+0x8>
    1df0:	ba 17       	cp	r27, r26
    1df2:	62 07       	cpc	r22, r18
    1df4:	73 07       	cpc	r23, r19
    1df6:	84 07       	cpc	r24, r20
    1df8:	95 07       	cpc	r25, r21
    1dfa:	18 f0       	brcs	.+6      	; 0x1e02 <__addsf3x+0x18>
    1dfc:	71 f4       	brne	.+28     	; 0x1e1a <__addsf3x+0x30>
    1dfe:	9e f5       	brtc	.+102    	; 0x1e66 <__addsf3x+0x7c>
    1e00:	8a c1       	rjmp	.+788    	; 0x2116 <__fp_zero>
    1e02:	0e f4       	brtc	.+2      	; 0x1e06 <__addsf3x+0x1c>
    1e04:	e0 95       	com	r30
    1e06:	0b 2e       	mov	r0, r27
    1e08:	ba 2f       	mov	r27, r26
    1e0a:	a0 2d       	mov	r26, r0
    1e0c:	0b 01       	movw	r0, r22
    1e0e:	b9 01       	movw	r22, r18
    1e10:	90 01       	movw	r18, r0
    1e12:	0c 01       	movw	r0, r24
    1e14:	ca 01       	movw	r24, r20
    1e16:	a0 01       	movw	r20, r0
    1e18:	11 24       	eor	r1, r1
    1e1a:	ff 27       	eor	r31, r31
    1e1c:	59 1b       	sub	r21, r25
    1e1e:	99 f0       	breq	.+38     	; 0x1e46 <__addsf3x+0x5c>
    1e20:	59 3f       	cpi	r21, 0xF9	; 249
    1e22:	50 f4       	brcc	.+20     	; 0x1e38 <__addsf3x+0x4e>
    1e24:	50 3e       	cpi	r21, 0xE0	; 224
    1e26:	68 f1       	brcs	.+90     	; 0x1e82 <__addsf3x+0x98>
    1e28:	1a 16       	cp	r1, r26
    1e2a:	f0 40       	sbci	r31, 0x00	; 0
    1e2c:	a2 2f       	mov	r26, r18
    1e2e:	23 2f       	mov	r18, r19
    1e30:	34 2f       	mov	r19, r20
    1e32:	44 27       	eor	r20, r20
    1e34:	58 5f       	subi	r21, 0xF8	; 248
    1e36:	f3 cf       	rjmp	.-26     	; 0x1e1e <__addsf3x+0x34>
    1e38:	46 95       	lsr	r20
    1e3a:	37 95       	ror	r19
    1e3c:	27 95       	ror	r18
    1e3e:	a7 95       	ror	r26
    1e40:	f0 40       	sbci	r31, 0x00	; 0
    1e42:	53 95       	inc	r21
    1e44:	c9 f7       	brne	.-14     	; 0x1e38 <__addsf3x+0x4e>
    1e46:	7e f4       	brtc	.+30     	; 0x1e66 <__addsf3x+0x7c>
    1e48:	1f 16       	cp	r1, r31
    1e4a:	ba 0b       	sbc	r27, r26
    1e4c:	62 0b       	sbc	r22, r18
    1e4e:	73 0b       	sbc	r23, r19
    1e50:	84 0b       	sbc	r24, r20
    1e52:	ba f0       	brmi	.+46     	; 0x1e82 <__addsf3x+0x98>
    1e54:	91 50       	subi	r25, 0x01	; 1
    1e56:	a1 f0       	breq	.+40     	; 0x1e80 <__addsf3x+0x96>
    1e58:	ff 0f       	add	r31, r31
    1e5a:	bb 1f       	adc	r27, r27
    1e5c:	66 1f       	adc	r22, r22
    1e5e:	77 1f       	adc	r23, r23
    1e60:	88 1f       	adc	r24, r24
    1e62:	c2 f7       	brpl	.-16     	; 0x1e54 <__addsf3x+0x6a>
    1e64:	0e c0       	rjmp	.+28     	; 0x1e82 <__addsf3x+0x98>
    1e66:	ba 0f       	add	r27, r26
    1e68:	62 1f       	adc	r22, r18
    1e6a:	73 1f       	adc	r23, r19
    1e6c:	84 1f       	adc	r24, r20
    1e6e:	48 f4       	brcc	.+18     	; 0x1e82 <__addsf3x+0x98>
    1e70:	87 95       	ror	r24
    1e72:	77 95       	ror	r23
    1e74:	67 95       	ror	r22
    1e76:	b7 95       	ror	r27
    1e78:	f7 95       	ror	r31
    1e7a:	9e 3f       	cpi	r25, 0xFE	; 254
    1e7c:	08 f0       	brcs	.+2      	; 0x1e80 <__addsf3x+0x96>
    1e7e:	b3 cf       	rjmp	.-154    	; 0x1de6 <__addsf3+0x1e>
    1e80:	93 95       	inc	r25
    1e82:	88 0f       	add	r24, r24
    1e84:	08 f0       	brcs	.+2      	; 0x1e88 <__addsf3x+0x9e>
    1e86:	99 27       	eor	r25, r25
    1e88:	ee 0f       	add	r30, r30
    1e8a:	97 95       	ror	r25
    1e8c:	87 95       	ror	r24
    1e8e:	08 95       	ret

00001e90 <__cmpsf2>:
    1e90:	d4 d0       	rcall	.+424    	; 0x203a <__fp_cmp>
    1e92:	08 f4       	brcc	.+2      	; 0x1e96 <__cmpsf2+0x6>
    1e94:	81 e0       	ldi	r24, 0x01	; 1
    1e96:	08 95       	ret

00001e98 <__divsf3>:
    1e98:	0c d0       	rcall	.+24     	; 0x1eb2 <__divsf3x>
    1e9a:	0a c1       	rjmp	.+532    	; 0x20b0 <__fp_round>
    1e9c:	02 d1       	rcall	.+516    	; 0x20a2 <__fp_pscB>
    1e9e:	40 f0       	brcs	.+16     	; 0x1eb0 <__divsf3+0x18>
    1ea0:	f9 d0       	rcall	.+498    	; 0x2094 <__fp_pscA>
    1ea2:	30 f0       	brcs	.+12     	; 0x1eb0 <__divsf3+0x18>
    1ea4:	21 f4       	brne	.+8      	; 0x1eae <__divsf3+0x16>
    1ea6:	5f 3f       	cpi	r21, 0xFF	; 255
    1ea8:	19 f0       	breq	.+6      	; 0x1eb0 <__divsf3+0x18>
    1eaa:	eb c0       	rjmp	.+470    	; 0x2082 <__fp_inf>
    1eac:	51 11       	cpse	r21, r1
    1eae:	34 c1       	rjmp	.+616    	; 0x2118 <__fp_szero>
    1eb0:	ee c0       	rjmp	.+476    	; 0x208e <__fp_nan>

00001eb2 <__divsf3x>:
    1eb2:	0f d1       	rcall	.+542    	; 0x20d2 <__fp_split3>
    1eb4:	98 f3       	brcs	.-26     	; 0x1e9c <__divsf3+0x4>

00001eb6 <__divsf3_pse>:
    1eb6:	99 23       	and	r25, r25
    1eb8:	c9 f3       	breq	.-14     	; 0x1eac <__divsf3+0x14>
    1eba:	55 23       	and	r21, r21
    1ebc:	b1 f3       	breq	.-20     	; 0x1eaa <__divsf3+0x12>
    1ebe:	95 1b       	sub	r25, r21
    1ec0:	55 0b       	sbc	r21, r21
    1ec2:	bb 27       	eor	r27, r27
    1ec4:	aa 27       	eor	r26, r26
    1ec6:	62 17       	cp	r22, r18
    1ec8:	73 07       	cpc	r23, r19
    1eca:	84 07       	cpc	r24, r20
    1ecc:	38 f0       	brcs	.+14     	; 0x1edc <__divsf3_pse+0x26>
    1ece:	9f 5f       	subi	r25, 0xFF	; 255
    1ed0:	5f 4f       	sbci	r21, 0xFF	; 255
    1ed2:	22 0f       	add	r18, r18
    1ed4:	33 1f       	adc	r19, r19
    1ed6:	44 1f       	adc	r20, r20
    1ed8:	aa 1f       	adc	r26, r26
    1eda:	a9 f3       	breq	.-22     	; 0x1ec6 <__divsf3_pse+0x10>
    1edc:	33 d0       	rcall	.+102    	; 0x1f44 <__divsf3_pse+0x8e>
    1ede:	0e 2e       	mov	r0, r30
    1ee0:	3a f0       	brmi	.+14     	; 0x1ef0 <__divsf3_pse+0x3a>
    1ee2:	e0 e8       	ldi	r30, 0x80	; 128
    1ee4:	30 d0       	rcall	.+96     	; 0x1f46 <__divsf3_pse+0x90>
    1ee6:	91 50       	subi	r25, 0x01	; 1
    1ee8:	50 40       	sbci	r21, 0x00	; 0
    1eea:	e6 95       	lsr	r30
    1eec:	00 1c       	adc	r0, r0
    1eee:	ca f7       	brpl	.-14     	; 0x1ee2 <__divsf3_pse+0x2c>
    1ef0:	29 d0       	rcall	.+82     	; 0x1f44 <__divsf3_pse+0x8e>
    1ef2:	fe 2f       	mov	r31, r30
    1ef4:	27 d0       	rcall	.+78     	; 0x1f44 <__divsf3_pse+0x8e>
    1ef6:	66 0f       	add	r22, r22
    1ef8:	77 1f       	adc	r23, r23
    1efa:	88 1f       	adc	r24, r24
    1efc:	bb 1f       	adc	r27, r27
    1efe:	26 17       	cp	r18, r22
    1f00:	37 07       	cpc	r19, r23
    1f02:	48 07       	cpc	r20, r24
    1f04:	ab 07       	cpc	r26, r27
    1f06:	b0 e8       	ldi	r27, 0x80	; 128
    1f08:	09 f0       	breq	.+2      	; 0x1f0c <__divsf3_pse+0x56>
    1f0a:	bb 0b       	sbc	r27, r27
    1f0c:	80 2d       	mov	r24, r0
    1f0e:	bf 01       	movw	r22, r30
    1f10:	ff 27       	eor	r31, r31
    1f12:	93 58       	subi	r25, 0x83	; 131
    1f14:	5f 4f       	sbci	r21, 0xFF	; 255
    1f16:	2a f0       	brmi	.+10     	; 0x1f22 <__divsf3_pse+0x6c>
    1f18:	9e 3f       	cpi	r25, 0xFE	; 254
    1f1a:	51 05       	cpc	r21, r1
    1f1c:	68 f0       	brcs	.+26     	; 0x1f38 <__divsf3_pse+0x82>
    1f1e:	b1 c0       	rjmp	.+354    	; 0x2082 <__fp_inf>
    1f20:	fb c0       	rjmp	.+502    	; 0x2118 <__fp_szero>
    1f22:	5f 3f       	cpi	r21, 0xFF	; 255
    1f24:	ec f3       	brlt	.-6      	; 0x1f20 <__divsf3_pse+0x6a>
    1f26:	98 3e       	cpi	r25, 0xE8	; 232
    1f28:	dc f3       	brlt	.-10     	; 0x1f20 <__divsf3_pse+0x6a>
    1f2a:	86 95       	lsr	r24
    1f2c:	77 95       	ror	r23
    1f2e:	67 95       	ror	r22
    1f30:	b7 95       	ror	r27
    1f32:	f7 95       	ror	r31
    1f34:	9f 5f       	subi	r25, 0xFF	; 255
    1f36:	c9 f7       	brne	.-14     	; 0x1f2a <__divsf3_pse+0x74>
    1f38:	88 0f       	add	r24, r24
    1f3a:	91 1d       	adc	r25, r1
    1f3c:	96 95       	lsr	r25
    1f3e:	87 95       	ror	r24
    1f40:	97 f9       	bld	r25, 7
    1f42:	08 95       	ret
    1f44:	e1 e0       	ldi	r30, 0x01	; 1
    1f46:	66 0f       	add	r22, r22
    1f48:	77 1f       	adc	r23, r23
    1f4a:	88 1f       	adc	r24, r24
    1f4c:	bb 1f       	adc	r27, r27
    1f4e:	62 17       	cp	r22, r18
    1f50:	73 07       	cpc	r23, r19
    1f52:	84 07       	cpc	r24, r20
    1f54:	ba 07       	cpc	r27, r26
    1f56:	20 f0       	brcs	.+8      	; 0x1f60 <__divsf3_pse+0xaa>
    1f58:	62 1b       	sub	r22, r18
    1f5a:	73 0b       	sbc	r23, r19
    1f5c:	84 0b       	sbc	r24, r20
    1f5e:	ba 0b       	sbc	r27, r26
    1f60:	ee 1f       	adc	r30, r30
    1f62:	88 f7       	brcc	.-30     	; 0x1f46 <__divsf3_pse+0x90>
    1f64:	e0 95       	com	r30
    1f66:	08 95       	ret

00001f68 <__fixunssfsi>:
    1f68:	bc d0       	rcall	.+376    	; 0x20e2 <__fp_splitA>
    1f6a:	88 f0       	brcs	.+34     	; 0x1f8e <__fixunssfsi+0x26>
    1f6c:	9f 57       	subi	r25, 0x7F	; 127
    1f6e:	90 f0       	brcs	.+36     	; 0x1f94 <__fixunssfsi+0x2c>
    1f70:	b9 2f       	mov	r27, r25
    1f72:	99 27       	eor	r25, r25
    1f74:	b7 51       	subi	r27, 0x17	; 23
    1f76:	a0 f0       	brcs	.+40     	; 0x1fa0 <__fixunssfsi+0x38>
    1f78:	d1 f0       	breq	.+52     	; 0x1fae <__fixunssfsi+0x46>
    1f7a:	66 0f       	add	r22, r22
    1f7c:	77 1f       	adc	r23, r23
    1f7e:	88 1f       	adc	r24, r24
    1f80:	99 1f       	adc	r25, r25
    1f82:	1a f0       	brmi	.+6      	; 0x1f8a <__fixunssfsi+0x22>
    1f84:	ba 95       	dec	r27
    1f86:	c9 f7       	brne	.-14     	; 0x1f7a <__fixunssfsi+0x12>
    1f88:	12 c0       	rjmp	.+36     	; 0x1fae <__fixunssfsi+0x46>
    1f8a:	b1 30       	cpi	r27, 0x01	; 1
    1f8c:	81 f0       	breq	.+32     	; 0x1fae <__fixunssfsi+0x46>
    1f8e:	c3 d0       	rcall	.+390    	; 0x2116 <__fp_zero>
    1f90:	b1 e0       	ldi	r27, 0x01	; 1
    1f92:	08 95       	ret
    1f94:	c0 c0       	rjmp	.+384    	; 0x2116 <__fp_zero>
    1f96:	67 2f       	mov	r22, r23
    1f98:	78 2f       	mov	r23, r24
    1f9a:	88 27       	eor	r24, r24
    1f9c:	b8 5f       	subi	r27, 0xF8	; 248
    1f9e:	39 f0       	breq	.+14     	; 0x1fae <__fixunssfsi+0x46>
    1fa0:	b9 3f       	cpi	r27, 0xF9	; 249
    1fa2:	cc f3       	brlt	.-14     	; 0x1f96 <__fixunssfsi+0x2e>
    1fa4:	86 95       	lsr	r24
    1fa6:	77 95       	ror	r23
    1fa8:	67 95       	ror	r22
    1faa:	b3 95       	inc	r27
    1fac:	d9 f7       	brne	.-10     	; 0x1fa4 <__fixunssfsi+0x3c>
    1fae:	3e f4       	brtc	.+14     	; 0x1fbe <__fixunssfsi+0x56>
    1fb0:	90 95       	com	r25
    1fb2:	80 95       	com	r24
    1fb4:	70 95       	com	r23
    1fb6:	61 95       	neg	r22
    1fb8:	7f 4f       	sbci	r23, 0xFF	; 255
    1fba:	8f 4f       	sbci	r24, 0xFF	; 255
    1fbc:	9f 4f       	sbci	r25, 0xFF	; 255
    1fbe:	08 95       	ret

00001fc0 <__floatunsisf>:
    1fc0:	e8 94       	clt
    1fc2:	09 c0       	rjmp	.+18     	; 0x1fd6 <__floatsisf+0x12>

00001fc4 <__floatsisf>:
    1fc4:	97 fb       	bst	r25, 7
    1fc6:	3e f4       	brtc	.+14     	; 0x1fd6 <__floatsisf+0x12>
    1fc8:	90 95       	com	r25
    1fca:	80 95       	com	r24
    1fcc:	70 95       	com	r23
    1fce:	61 95       	neg	r22
    1fd0:	7f 4f       	sbci	r23, 0xFF	; 255
    1fd2:	8f 4f       	sbci	r24, 0xFF	; 255
    1fd4:	9f 4f       	sbci	r25, 0xFF	; 255
    1fd6:	99 23       	and	r25, r25
    1fd8:	a9 f0       	breq	.+42     	; 0x2004 <__floatsisf+0x40>
    1fda:	f9 2f       	mov	r31, r25
    1fdc:	96 e9       	ldi	r25, 0x96	; 150
    1fde:	bb 27       	eor	r27, r27
    1fe0:	93 95       	inc	r25
    1fe2:	f6 95       	lsr	r31
    1fe4:	87 95       	ror	r24
    1fe6:	77 95       	ror	r23
    1fe8:	67 95       	ror	r22
    1fea:	b7 95       	ror	r27
    1fec:	f1 11       	cpse	r31, r1
    1fee:	f8 cf       	rjmp	.-16     	; 0x1fe0 <__floatsisf+0x1c>
    1ff0:	fa f4       	brpl	.+62     	; 0x2030 <__floatsisf+0x6c>
    1ff2:	bb 0f       	add	r27, r27
    1ff4:	11 f4       	brne	.+4      	; 0x1ffa <__floatsisf+0x36>
    1ff6:	60 ff       	sbrs	r22, 0
    1ff8:	1b c0       	rjmp	.+54     	; 0x2030 <__floatsisf+0x6c>
    1ffa:	6f 5f       	subi	r22, 0xFF	; 255
    1ffc:	7f 4f       	sbci	r23, 0xFF	; 255
    1ffe:	8f 4f       	sbci	r24, 0xFF	; 255
    2000:	9f 4f       	sbci	r25, 0xFF	; 255
    2002:	16 c0       	rjmp	.+44     	; 0x2030 <__floatsisf+0x6c>
    2004:	88 23       	and	r24, r24
    2006:	11 f0       	breq	.+4      	; 0x200c <__floatsisf+0x48>
    2008:	96 e9       	ldi	r25, 0x96	; 150
    200a:	11 c0       	rjmp	.+34     	; 0x202e <__floatsisf+0x6a>
    200c:	77 23       	and	r23, r23
    200e:	21 f0       	breq	.+8      	; 0x2018 <__floatsisf+0x54>
    2010:	9e e8       	ldi	r25, 0x8E	; 142
    2012:	87 2f       	mov	r24, r23
    2014:	76 2f       	mov	r23, r22
    2016:	05 c0       	rjmp	.+10     	; 0x2022 <__floatsisf+0x5e>
    2018:	66 23       	and	r22, r22
    201a:	71 f0       	breq	.+28     	; 0x2038 <__floatsisf+0x74>
    201c:	96 e8       	ldi	r25, 0x86	; 134
    201e:	86 2f       	mov	r24, r22
    2020:	70 e0       	ldi	r23, 0x00	; 0
    2022:	60 e0       	ldi	r22, 0x00	; 0
    2024:	2a f0       	brmi	.+10     	; 0x2030 <__floatsisf+0x6c>
    2026:	9a 95       	dec	r25
    2028:	66 0f       	add	r22, r22
    202a:	77 1f       	adc	r23, r23
    202c:	88 1f       	adc	r24, r24
    202e:	da f7       	brpl	.-10     	; 0x2026 <__floatsisf+0x62>
    2030:	88 0f       	add	r24, r24
    2032:	96 95       	lsr	r25
    2034:	87 95       	ror	r24
    2036:	97 f9       	bld	r25, 7
    2038:	08 95       	ret

0000203a <__fp_cmp>:
    203a:	99 0f       	add	r25, r25
    203c:	00 08       	sbc	r0, r0
    203e:	55 0f       	add	r21, r21
    2040:	aa 0b       	sbc	r26, r26
    2042:	e0 e8       	ldi	r30, 0x80	; 128
    2044:	fe ef       	ldi	r31, 0xFE	; 254
    2046:	16 16       	cp	r1, r22
    2048:	17 06       	cpc	r1, r23
    204a:	e8 07       	cpc	r30, r24
    204c:	f9 07       	cpc	r31, r25
    204e:	c0 f0       	brcs	.+48     	; 0x2080 <__fp_cmp+0x46>
    2050:	12 16       	cp	r1, r18
    2052:	13 06       	cpc	r1, r19
    2054:	e4 07       	cpc	r30, r20
    2056:	f5 07       	cpc	r31, r21
    2058:	98 f0       	brcs	.+38     	; 0x2080 <__fp_cmp+0x46>
    205a:	62 1b       	sub	r22, r18
    205c:	73 0b       	sbc	r23, r19
    205e:	84 0b       	sbc	r24, r20
    2060:	95 0b       	sbc	r25, r21
    2062:	39 f4       	brne	.+14     	; 0x2072 <__fp_cmp+0x38>
    2064:	0a 26       	eor	r0, r26
    2066:	61 f0       	breq	.+24     	; 0x2080 <__fp_cmp+0x46>
    2068:	23 2b       	or	r18, r19
    206a:	24 2b       	or	r18, r20
    206c:	25 2b       	or	r18, r21
    206e:	21 f4       	brne	.+8      	; 0x2078 <__fp_cmp+0x3e>
    2070:	08 95       	ret
    2072:	0a 26       	eor	r0, r26
    2074:	09 f4       	brne	.+2      	; 0x2078 <__fp_cmp+0x3e>
    2076:	a1 40       	sbci	r26, 0x01	; 1
    2078:	a6 95       	lsr	r26
    207a:	8f ef       	ldi	r24, 0xFF	; 255
    207c:	81 1d       	adc	r24, r1
    207e:	81 1d       	adc	r24, r1
    2080:	08 95       	ret

00002082 <__fp_inf>:
    2082:	97 f9       	bld	r25, 7
    2084:	9f 67       	ori	r25, 0x7F	; 127
    2086:	80 e8       	ldi	r24, 0x80	; 128
    2088:	70 e0       	ldi	r23, 0x00	; 0
    208a:	60 e0       	ldi	r22, 0x00	; 0
    208c:	08 95       	ret

0000208e <__fp_nan>:
    208e:	9f ef       	ldi	r25, 0xFF	; 255
    2090:	80 ec       	ldi	r24, 0xC0	; 192
    2092:	08 95       	ret

00002094 <__fp_pscA>:
    2094:	00 24       	eor	r0, r0
    2096:	0a 94       	dec	r0
    2098:	16 16       	cp	r1, r22
    209a:	17 06       	cpc	r1, r23
    209c:	18 06       	cpc	r1, r24
    209e:	09 06       	cpc	r0, r25
    20a0:	08 95       	ret

000020a2 <__fp_pscB>:
    20a2:	00 24       	eor	r0, r0
    20a4:	0a 94       	dec	r0
    20a6:	12 16       	cp	r1, r18
    20a8:	13 06       	cpc	r1, r19
    20aa:	14 06       	cpc	r1, r20
    20ac:	05 06       	cpc	r0, r21
    20ae:	08 95       	ret

000020b0 <__fp_round>:
    20b0:	09 2e       	mov	r0, r25
    20b2:	03 94       	inc	r0
    20b4:	00 0c       	add	r0, r0
    20b6:	11 f4       	brne	.+4      	; 0x20bc <__fp_round+0xc>
    20b8:	88 23       	and	r24, r24
    20ba:	52 f0       	brmi	.+20     	; 0x20d0 <__fp_round+0x20>
    20bc:	bb 0f       	add	r27, r27
    20be:	40 f4       	brcc	.+16     	; 0x20d0 <__fp_round+0x20>
    20c0:	bf 2b       	or	r27, r31
    20c2:	11 f4       	brne	.+4      	; 0x20c8 <__fp_round+0x18>
    20c4:	60 ff       	sbrs	r22, 0
    20c6:	04 c0       	rjmp	.+8      	; 0x20d0 <__fp_round+0x20>
    20c8:	6f 5f       	subi	r22, 0xFF	; 255
    20ca:	7f 4f       	sbci	r23, 0xFF	; 255
    20cc:	8f 4f       	sbci	r24, 0xFF	; 255
    20ce:	9f 4f       	sbci	r25, 0xFF	; 255
    20d0:	08 95       	ret

000020d2 <__fp_split3>:
    20d2:	57 fd       	sbrc	r21, 7
    20d4:	90 58       	subi	r25, 0x80	; 128
    20d6:	44 0f       	add	r20, r20
    20d8:	55 1f       	adc	r21, r21
    20da:	59 f0       	breq	.+22     	; 0x20f2 <__fp_splitA+0x10>
    20dc:	5f 3f       	cpi	r21, 0xFF	; 255
    20de:	71 f0       	breq	.+28     	; 0x20fc <__fp_splitA+0x1a>
    20e0:	47 95       	ror	r20

000020e2 <__fp_splitA>:
    20e2:	88 0f       	add	r24, r24
    20e4:	97 fb       	bst	r25, 7
    20e6:	99 1f       	adc	r25, r25
    20e8:	61 f0       	breq	.+24     	; 0x2102 <__fp_splitA+0x20>
    20ea:	9f 3f       	cpi	r25, 0xFF	; 255
    20ec:	79 f0       	breq	.+30     	; 0x210c <__fp_splitA+0x2a>
    20ee:	87 95       	ror	r24
    20f0:	08 95       	ret
    20f2:	12 16       	cp	r1, r18
    20f4:	13 06       	cpc	r1, r19
    20f6:	14 06       	cpc	r1, r20
    20f8:	55 1f       	adc	r21, r21
    20fa:	f2 cf       	rjmp	.-28     	; 0x20e0 <__fp_split3+0xe>
    20fc:	46 95       	lsr	r20
    20fe:	f1 df       	rcall	.-30     	; 0x20e2 <__fp_splitA>
    2100:	08 c0       	rjmp	.+16     	; 0x2112 <__fp_splitA+0x30>
    2102:	16 16       	cp	r1, r22
    2104:	17 06       	cpc	r1, r23
    2106:	18 06       	cpc	r1, r24
    2108:	99 1f       	adc	r25, r25
    210a:	f1 cf       	rjmp	.-30     	; 0x20ee <__fp_splitA+0xc>
    210c:	86 95       	lsr	r24
    210e:	71 05       	cpc	r23, r1
    2110:	61 05       	cpc	r22, r1
    2112:	08 94       	sec
    2114:	08 95       	ret

00002116 <__fp_zero>:
    2116:	e8 94       	clt

00002118 <__fp_szero>:
    2118:	bb 27       	eor	r27, r27
    211a:	66 27       	eor	r22, r22
    211c:	77 27       	eor	r23, r23
    211e:	cb 01       	movw	r24, r22
    2120:	97 f9       	bld	r25, 7
    2122:	08 95       	ret

00002124 <__gesf2>:
    2124:	8a df       	rcall	.-236    	; 0x203a <__fp_cmp>
    2126:	08 f4       	brcc	.+2      	; 0x212a <__gesf2+0x6>
    2128:	8f ef       	ldi	r24, 0xFF	; 255
    212a:	08 95       	ret

0000212c <__mulsf3>:
    212c:	0b d0       	rcall	.+22     	; 0x2144 <__mulsf3x>
    212e:	c0 cf       	rjmp	.-128    	; 0x20b0 <__fp_round>
    2130:	b1 df       	rcall	.-158    	; 0x2094 <__fp_pscA>
    2132:	28 f0       	brcs	.+10     	; 0x213e <__mulsf3+0x12>
    2134:	b6 df       	rcall	.-148    	; 0x20a2 <__fp_pscB>
    2136:	18 f0       	brcs	.+6      	; 0x213e <__mulsf3+0x12>
    2138:	95 23       	and	r25, r21
    213a:	09 f0       	breq	.+2      	; 0x213e <__mulsf3+0x12>
    213c:	a2 cf       	rjmp	.-188    	; 0x2082 <__fp_inf>
    213e:	a7 cf       	rjmp	.-178    	; 0x208e <__fp_nan>
    2140:	11 24       	eor	r1, r1
    2142:	ea cf       	rjmp	.-44     	; 0x2118 <__fp_szero>

00002144 <__mulsf3x>:
    2144:	c6 df       	rcall	.-116    	; 0x20d2 <__fp_split3>
    2146:	a0 f3       	brcs	.-24     	; 0x2130 <__mulsf3+0x4>

00002148 <__mulsf3_pse>:
    2148:	95 9f       	mul	r25, r21
    214a:	d1 f3       	breq	.-12     	; 0x2140 <__mulsf3+0x14>
    214c:	95 0f       	add	r25, r21
    214e:	50 e0       	ldi	r21, 0x00	; 0
    2150:	55 1f       	adc	r21, r21
    2152:	62 9f       	mul	r22, r18
    2154:	f0 01       	movw	r30, r0
    2156:	72 9f       	mul	r23, r18
    2158:	bb 27       	eor	r27, r27
    215a:	f0 0d       	add	r31, r0
    215c:	b1 1d       	adc	r27, r1
    215e:	63 9f       	mul	r22, r19
    2160:	aa 27       	eor	r26, r26
    2162:	f0 0d       	add	r31, r0
    2164:	b1 1d       	adc	r27, r1
    2166:	aa 1f       	adc	r26, r26
    2168:	64 9f       	mul	r22, r20
    216a:	66 27       	eor	r22, r22
    216c:	b0 0d       	add	r27, r0
    216e:	a1 1d       	adc	r26, r1
    2170:	66 1f       	adc	r22, r22
    2172:	82 9f       	mul	r24, r18
    2174:	22 27       	eor	r18, r18
    2176:	b0 0d       	add	r27, r0
    2178:	a1 1d       	adc	r26, r1
    217a:	62 1f       	adc	r22, r18
    217c:	73 9f       	mul	r23, r19
    217e:	b0 0d       	add	r27, r0
    2180:	a1 1d       	adc	r26, r1
    2182:	62 1f       	adc	r22, r18
    2184:	83 9f       	mul	r24, r19
    2186:	a0 0d       	add	r26, r0
    2188:	61 1d       	adc	r22, r1
    218a:	22 1f       	adc	r18, r18
    218c:	74 9f       	mul	r23, r20
    218e:	33 27       	eor	r19, r19
    2190:	a0 0d       	add	r26, r0
    2192:	61 1d       	adc	r22, r1
    2194:	23 1f       	adc	r18, r19
    2196:	84 9f       	mul	r24, r20
    2198:	60 0d       	add	r22, r0
    219a:	21 1d       	adc	r18, r1
    219c:	82 2f       	mov	r24, r18
    219e:	76 2f       	mov	r23, r22
    21a0:	6a 2f       	mov	r22, r26
    21a2:	11 24       	eor	r1, r1
    21a4:	9f 57       	subi	r25, 0x7F	; 127
    21a6:	50 40       	sbci	r21, 0x00	; 0
    21a8:	8a f0       	brmi	.+34     	; 0x21cc <__mulsf3_pse+0x84>
    21aa:	e1 f0       	breq	.+56     	; 0x21e4 <__mulsf3_pse+0x9c>
    21ac:	88 23       	and	r24, r24
    21ae:	4a f0       	brmi	.+18     	; 0x21c2 <__mulsf3_pse+0x7a>
    21b0:	ee 0f       	add	r30, r30
    21b2:	ff 1f       	adc	r31, r31
    21b4:	bb 1f       	adc	r27, r27
    21b6:	66 1f       	adc	r22, r22
    21b8:	77 1f       	adc	r23, r23
    21ba:	88 1f       	adc	r24, r24
    21bc:	91 50       	subi	r25, 0x01	; 1
    21be:	50 40       	sbci	r21, 0x00	; 0
    21c0:	a9 f7       	brne	.-22     	; 0x21ac <__mulsf3_pse+0x64>
    21c2:	9e 3f       	cpi	r25, 0xFE	; 254
    21c4:	51 05       	cpc	r21, r1
    21c6:	70 f0       	brcs	.+28     	; 0x21e4 <__mulsf3_pse+0x9c>
    21c8:	5c cf       	rjmp	.-328    	; 0x2082 <__fp_inf>
    21ca:	a6 cf       	rjmp	.-180    	; 0x2118 <__fp_szero>
    21cc:	5f 3f       	cpi	r21, 0xFF	; 255
    21ce:	ec f3       	brlt	.-6      	; 0x21ca <__mulsf3_pse+0x82>
    21d0:	98 3e       	cpi	r25, 0xE8	; 232
    21d2:	dc f3       	brlt	.-10     	; 0x21ca <__mulsf3_pse+0x82>
    21d4:	86 95       	lsr	r24
    21d6:	77 95       	ror	r23
    21d8:	67 95       	ror	r22
    21da:	b7 95       	ror	r27
    21dc:	f7 95       	ror	r31
    21de:	e7 95       	ror	r30
    21e0:	9f 5f       	subi	r25, 0xFF	; 255
    21e2:	c1 f7       	brne	.-16     	; 0x21d4 <__mulsf3_pse+0x8c>
    21e4:	fe 2b       	or	r31, r30
    21e6:	88 0f       	add	r24, r24
    21e8:	91 1d       	adc	r25, r1
    21ea:	96 95       	lsr	r25
    21ec:	87 95       	ror	r24
    21ee:	97 f9       	bld	r25, 7
    21f0:	08 95       	ret

000021f2 <__udivmodqi4>:
    21f2:	99 1b       	sub	r25, r25
    21f4:	79 e0       	ldi	r23, 0x09	; 9
    21f6:	04 c0       	rjmp	.+8      	; 0x2200 <__udivmodqi4_ep>

000021f8 <__udivmodqi4_loop>:
    21f8:	99 1f       	adc	r25, r25
    21fa:	96 17       	cp	r25, r22
    21fc:	08 f0       	brcs	.+2      	; 0x2200 <__udivmodqi4_ep>
    21fe:	96 1b       	sub	r25, r22

00002200 <__udivmodqi4_ep>:
    2200:	88 1f       	adc	r24, r24
    2202:	7a 95       	dec	r23
    2204:	c9 f7       	brne	.-14     	; 0x21f8 <__udivmodqi4_loop>
    2206:	80 95       	com	r24
    2208:	08 95       	ret

0000220a <__udivmodhi4>:
    220a:	aa 1b       	sub	r26, r26
    220c:	bb 1b       	sub	r27, r27
    220e:	51 e1       	ldi	r21, 0x11	; 17
    2210:	07 c0       	rjmp	.+14     	; 0x2220 <__udivmodhi4_ep>

00002212 <__udivmodhi4_loop>:
    2212:	aa 1f       	adc	r26, r26
    2214:	bb 1f       	adc	r27, r27
    2216:	a6 17       	cp	r26, r22
    2218:	b7 07       	cpc	r27, r23
    221a:	10 f0       	brcs	.+4      	; 0x2220 <__udivmodhi4_ep>
    221c:	a6 1b       	sub	r26, r22
    221e:	b7 0b       	sbc	r27, r23

00002220 <__udivmodhi4_ep>:
    2220:	88 1f       	adc	r24, r24
    2222:	99 1f       	adc	r25, r25
    2224:	5a 95       	dec	r21
    2226:	a9 f7       	brne	.-22     	; 0x2212 <__udivmodhi4_loop>
    2228:	80 95       	com	r24
    222a:	90 95       	com	r25
    222c:	bc 01       	movw	r22, r24
    222e:	cd 01       	movw	r24, r26
    2230:	08 95       	ret

00002232 <__udivmodsi4>:
    2232:	a1 e2       	ldi	r26, 0x21	; 33
    2234:	1a 2e       	mov	r1, r26
    2236:	aa 1b       	sub	r26, r26
    2238:	bb 1b       	sub	r27, r27
    223a:	fd 01       	movw	r30, r26
    223c:	0d c0       	rjmp	.+26     	; 0x2258 <__udivmodsi4_ep>

0000223e <__udivmodsi4_loop>:
    223e:	aa 1f       	adc	r26, r26
    2240:	bb 1f       	adc	r27, r27
    2242:	ee 1f       	adc	r30, r30
    2244:	ff 1f       	adc	r31, r31
    2246:	a2 17       	cp	r26, r18
    2248:	b3 07       	cpc	r27, r19
    224a:	e4 07       	cpc	r30, r20
    224c:	f5 07       	cpc	r31, r21
    224e:	20 f0       	brcs	.+8      	; 0x2258 <__udivmodsi4_ep>
    2250:	a2 1b       	sub	r26, r18
    2252:	b3 0b       	sbc	r27, r19
    2254:	e4 0b       	sbc	r30, r20
    2256:	f5 0b       	sbc	r31, r21

00002258 <__udivmodsi4_ep>:
    2258:	66 1f       	adc	r22, r22
    225a:	77 1f       	adc	r23, r23
    225c:	88 1f       	adc	r24, r24
    225e:	99 1f       	adc	r25, r25
    2260:	1a 94       	dec	r1
    2262:	69 f7       	brne	.-38     	; 0x223e <__udivmodsi4_loop>
    2264:	60 95       	com	r22
    2266:	70 95       	com	r23
    2268:	80 95       	com	r24
    226a:	90 95       	com	r25
    226c:	9b 01       	movw	r18, r22
    226e:	ac 01       	movw	r20, r24
    2270:	bd 01       	movw	r22, r26
    2272:	cf 01       	movw	r24, r30
    2274:	08 95       	ret

00002276 <__tablejump2__>:
    2276:	ee 0f       	add	r30, r30
    2278:	ff 1f       	adc	r31, r31
    227a:	88 1f       	adc	r24, r24
    227c:	8b bf       	out	0x3b, r24	; 59
    227e:	07 90       	elpm	r0, Z+
    2280:	f6 91       	elpm	r31, Z
    2282:	e0 2d       	mov	r30, r0
    2284:	19 94       	eijmp

00002286 <malloc>:
    2286:	0f 93       	push	r16
    2288:	1f 93       	push	r17
    228a:	cf 93       	push	r28
    228c:	df 93       	push	r29
    228e:	82 30       	cpi	r24, 0x02	; 2
    2290:	91 05       	cpc	r25, r1
    2292:	10 f4       	brcc	.+4      	; 0x2298 <malloc+0x12>
    2294:	82 e0       	ldi	r24, 0x02	; 2
    2296:	90 e0       	ldi	r25, 0x00	; 0
    2298:	e0 91 6e 24 	lds	r30, 0x246E	; 0x80246e <__flp>
    229c:	f0 91 6f 24 	lds	r31, 0x246F	; 0x80246f <__flp+0x1>
    22a0:	20 e0       	ldi	r18, 0x00	; 0
    22a2:	30 e0       	ldi	r19, 0x00	; 0
    22a4:	a0 e0       	ldi	r26, 0x00	; 0
    22a6:	b0 e0       	ldi	r27, 0x00	; 0
    22a8:	30 97       	sbiw	r30, 0x00	; 0
    22aa:	19 f1       	breq	.+70     	; 0x22f2 <malloc+0x6c>
    22ac:	40 81       	ld	r20, Z
    22ae:	51 81       	ldd	r21, Z+1	; 0x01
    22b0:	02 81       	ldd	r16, Z+2	; 0x02
    22b2:	13 81       	ldd	r17, Z+3	; 0x03
    22b4:	48 17       	cp	r20, r24
    22b6:	59 07       	cpc	r21, r25
    22b8:	c8 f0       	brcs	.+50     	; 0x22ec <malloc+0x66>
    22ba:	84 17       	cp	r24, r20
    22bc:	95 07       	cpc	r25, r21
    22be:	69 f4       	brne	.+26     	; 0x22da <malloc+0x54>
    22c0:	10 97       	sbiw	r26, 0x00	; 0
    22c2:	31 f0       	breq	.+12     	; 0x22d0 <malloc+0x4a>
    22c4:	12 96       	adiw	r26, 0x02	; 2
    22c6:	0c 93       	st	X, r16
    22c8:	12 97       	sbiw	r26, 0x02	; 2
    22ca:	13 96       	adiw	r26, 0x03	; 3
    22cc:	1c 93       	st	X, r17
    22ce:	27 c0       	rjmp	.+78     	; 0x231e <malloc+0x98>
    22d0:	00 93 6e 24 	sts	0x246E, r16	; 0x80246e <__flp>
    22d4:	10 93 6f 24 	sts	0x246F, r17	; 0x80246f <__flp+0x1>
    22d8:	22 c0       	rjmp	.+68     	; 0x231e <malloc+0x98>
    22da:	21 15       	cp	r18, r1
    22dc:	31 05       	cpc	r19, r1
    22de:	19 f0       	breq	.+6      	; 0x22e6 <malloc+0x60>
    22e0:	42 17       	cp	r20, r18
    22e2:	53 07       	cpc	r21, r19
    22e4:	18 f4       	brcc	.+6      	; 0x22ec <malloc+0x66>
    22e6:	9a 01       	movw	r18, r20
    22e8:	bd 01       	movw	r22, r26
    22ea:	ef 01       	movw	r28, r30
    22ec:	df 01       	movw	r26, r30
    22ee:	f8 01       	movw	r30, r16
    22f0:	db cf       	rjmp	.-74     	; 0x22a8 <malloc+0x22>
    22f2:	21 15       	cp	r18, r1
    22f4:	31 05       	cpc	r19, r1
    22f6:	f9 f0       	breq	.+62     	; 0x2336 <malloc+0xb0>
    22f8:	28 1b       	sub	r18, r24
    22fa:	39 0b       	sbc	r19, r25
    22fc:	24 30       	cpi	r18, 0x04	; 4
    22fe:	31 05       	cpc	r19, r1
    2300:	80 f4       	brcc	.+32     	; 0x2322 <malloc+0x9c>
    2302:	8a 81       	ldd	r24, Y+2	; 0x02
    2304:	9b 81       	ldd	r25, Y+3	; 0x03
    2306:	61 15       	cp	r22, r1
    2308:	71 05       	cpc	r23, r1
    230a:	21 f0       	breq	.+8      	; 0x2314 <malloc+0x8e>
    230c:	fb 01       	movw	r30, r22
    230e:	82 83       	std	Z+2, r24	; 0x02
    2310:	93 83       	std	Z+3, r25	; 0x03
    2312:	04 c0       	rjmp	.+8      	; 0x231c <malloc+0x96>
    2314:	80 93 6e 24 	sts	0x246E, r24	; 0x80246e <__flp>
    2318:	90 93 6f 24 	sts	0x246F, r25	; 0x80246f <__flp+0x1>
    231c:	fe 01       	movw	r30, r28
    231e:	32 96       	adiw	r30, 0x02	; 2
    2320:	44 c0       	rjmp	.+136    	; 0x23aa <malloc+0x124>
    2322:	fe 01       	movw	r30, r28
    2324:	e2 0f       	add	r30, r18
    2326:	f3 1f       	adc	r31, r19
    2328:	81 93       	st	Z+, r24
    232a:	91 93       	st	Z+, r25
    232c:	22 50       	subi	r18, 0x02	; 2
    232e:	31 09       	sbc	r19, r1
    2330:	28 83       	st	Y, r18
    2332:	39 83       	std	Y+1, r19	; 0x01
    2334:	3a c0       	rjmp	.+116    	; 0x23aa <malloc+0x124>
    2336:	20 91 6c 24 	lds	r18, 0x246C	; 0x80246c <__brkval>
    233a:	30 91 6d 24 	lds	r19, 0x246D	; 0x80246d <__brkval+0x1>
    233e:	23 2b       	or	r18, r19
    2340:	41 f4       	brne	.+16     	; 0x2352 <malloc+0xcc>
    2342:	20 91 02 20 	lds	r18, 0x2002	; 0x802002 <__malloc_heap_start>
    2346:	30 91 03 20 	lds	r19, 0x2003	; 0x802003 <__malloc_heap_start+0x1>
    234a:	20 93 6c 24 	sts	0x246C, r18	; 0x80246c <__brkval>
    234e:	30 93 6d 24 	sts	0x246D, r19	; 0x80246d <__brkval+0x1>
    2352:	20 91 00 20 	lds	r18, 0x2000	; 0x802000 <__data_start>
    2356:	30 91 01 20 	lds	r19, 0x2001	; 0x802001 <__data_start+0x1>
    235a:	21 15       	cp	r18, r1
    235c:	31 05       	cpc	r19, r1
    235e:	41 f4       	brne	.+16     	; 0x2370 <malloc+0xea>
    2360:	2d b7       	in	r18, 0x3d	; 61
    2362:	3e b7       	in	r19, 0x3e	; 62
    2364:	40 91 04 20 	lds	r20, 0x2004	; 0x802004 <__malloc_margin>
    2368:	50 91 05 20 	lds	r21, 0x2005	; 0x802005 <__malloc_margin+0x1>
    236c:	24 1b       	sub	r18, r20
    236e:	35 0b       	sbc	r19, r21
    2370:	e0 91 6c 24 	lds	r30, 0x246C	; 0x80246c <__brkval>
    2374:	f0 91 6d 24 	lds	r31, 0x246D	; 0x80246d <__brkval+0x1>
    2378:	e2 17       	cp	r30, r18
    237a:	f3 07       	cpc	r31, r19
    237c:	a0 f4       	brcc	.+40     	; 0x23a6 <malloc+0x120>
    237e:	2e 1b       	sub	r18, r30
    2380:	3f 0b       	sbc	r19, r31
    2382:	28 17       	cp	r18, r24
    2384:	39 07       	cpc	r19, r25
    2386:	78 f0       	brcs	.+30     	; 0x23a6 <malloc+0x120>
    2388:	ac 01       	movw	r20, r24
    238a:	4e 5f       	subi	r20, 0xFE	; 254
    238c:	5f 4f       	sbci	r21, 0xFF	; 255
    238e:	24 17       	cp	r18, r20
    2390:	35 07       	cpc	r19, r21
    2392:	48 f0       	brcs	.+18     	; 0x23a6 <malloc+0x120>
    2394:	4e 0f       	add	r20, r30
    2396:	5f 1f       	adc	r21, r31
    2398:	40 93 6c 24 	sts	0x246C, r20	; 0x80246c <__brkval>
    239c:	50 93 6d 24 	sts	0x246D, r21	; 0x80246d <__brkval+0x1>
    23a0:	81 93       	st	Z+, r24
    23a2:	91 93       	st	Z+, r25
    23a4:	02 c0       	rjmp	.+4      	; 0x23aa <malloc+0x124>
    23a6:	e0 e0       	ldi	r30, 0x00	; 0
    23a8:	f0 e0       	ldi	r31, 0x00	; 0
    23aa:	cf 01       	movw	r24, r30
    23ac:	df 91       	pop	r29
    23ae:	cf 91       	pop	r28
    23b0:	1f 91       	pop	r17
    23b2:	0f 91       	pop	r16
    23b4:	08 95       	ret

000023b6 <free>:
    23b6:	cf 93       	push	r28
    23b8:	df 93       	push	r29
    23ba:	00 97       	sbiw	r24, 0x00	; 0
    23bc:	09 f4       	brne	.+2      	; 0x23c0 <free+0xa>
    23be:	81 c0       	rjmp	.+258    	; 0x24c2 <free+0x10c>
    23c0:	fc 01       	movw	r30, r24
    23c2:	32 97       	sbiw	r30, 0x02	; 2
    23c4:	12 82       	std	Z+2, r1	; 0x02
    23c6:	13 82       	std	Z+3, r1	; 0x03
    23c8:	a0 91 6e 24 	lds	r26, 0x246E	; 0x80246e <__flp>
    23cc:	b0 91 6f 24 	lds	r27, 0x246F	; 0x80246f <__flp+0x1>
    23d0:	10 97       	sbiw	r26, 0x00	; 0
    23d2:	81 f4       	brne	.+32     	; 0x23f4 <free+0x3e>
    23d4:	20 81       	ld	r18, Z
    23d6:	31 81       	ldd	r19, Z+1	; 0x01
    23d8:	82 0f       	add	r24, r18
    23da:	93 1f       	adc	r25, r19
    23dc:	20 91 6c 24 	lds	r18, 0x246C	; 0x80246c <__brkval>
    23e0:	30 91 6d 24 	lds	r19, 0x246D	; 0x80246d <__brkval+0x1>
    23e4:	28 17       	cp	r18, r24
    23e6:	39 07       	cpc	r19, r25
    23e8:	51 f5       	brne	.+84     	; 0x243e <free+0x88>
    23ea:	e0 93 6c 24 	sts	0x246C, r30	; 0x80246c <__brkval>
    23ee:	f0 93 6d 24 	sts	0x246D, r31	; 0x80246d <__brkval+0x1>
    23f2:	67 c0       	rjmp	.+206    	; 0x24c2 <free+0x10c>
    23f4:	ed 01       	movw	r28, r26
    23f6:	20 e0       	ldi	r18, 0x00	; 0
    23f8:	30 e0       	ldi	r19, 0x00	; 0
    23fa:	ce 17       	cp	r28, r30
    23fc:	df 07       	cpc	r29, r31
    23fe:	40 f4       	brcc	.+16     	; 0x2410 <free+0x5a>
    2400:	4a 81       	ldd	r20, Y+2	; 0x02
    2402:	5b 81       	ldd	r21, Y+3	; 0x03
    2404:	9e 01       	movw	r18, r28
    2406:	41 15       	cp	r20, r1
    2408:	51 05       	cpc	r21, r1
    240a:	f1 f0       	breq	.+60     	; 0x2448 <free+0x92>
    240c:	ea 01       	movw	r28, r20
    240e:	f5 cf       	rjmp	.-22     	; 0x23fa <free+0x44>
    2410:	c2 83       	std	Z+2, r28	; 0x02
    2412:	d3 83       	std	Z+3, r29	; 0x03
    2414:	40 81       	ld	r20, Z
    2416:	51 81       	ldd	r21, Z+1	; 0x01
    2418:	84 0f       	add	r24, r20
    241a:	95 1f       	adc	r25, r21
    241c:	c8 17       	cp	r28, r24
    241e:	d9 07       	cpc	r29, r25
    2420:	59 f4       	brne	.+22     	; 0x2438 <free+0x82>
    2422:	88 81       	ld	r24, Y
    2424:	99 81       	ldd	r25, Y+1	; 0x01
    2426:	84 0f       	add	r24, r20
    2428:	95 1f       	adc	r25, r21
    242a:	02 96       	adiw	r24, 0x02	; 2
    242c:	80 83       	st	Z, r24
    242e:	91 83       	std	Z+1, r25	; 0x01
    2430:	8a 81       	ldd	r24, Y+2	; 0x02
    2432:	9b 81       	ldd	r25, Y+3	; 0x03
    2434:	82 83       	std	Z+2, r24	; 0x02
    2436:	93 83       	std	Z+3, r25	; 0x03
    2438:	21 15       	cp	r18, r1
    243a:	31 05       	cpc	r19, r1
    243c:	29 f4       	brne	.+10     	; 0x2448 <free+0x92>
    243e:	e0 93 6e 24 	sts	0x246E, r30	; 0x80246e <__flp>
    2442:	f0 93 6f 24 	sts	0x246F, r31	; 0x80246f <__flp+0x1>
    2446:	3d c0       	rjmp	.+122    	; 0x24c2 <free+0x10c>
    2448:	e9 01       	movw	r28, r18
    244a:	ea 83       	std	Y+2, r30	; 0x02
    244c:	fb 83       	std	Y+3, r31	; 0x03
    244e:	49 91       	ld	r20, Y+
    2450:	59 91       	ld	r21, Y+
    2452:	c4 0f       	add	r28, r20
    2454:	d5 1f       	adc	r29, r21
    2456:	ec 17       	cp	r30, r28
    2458:	fd 07       	cpc	r31, r29
    245a:	61 f4       	brne	.+24     	; 0x2474 <free+0xbe>
    245c:	80 81       	ld	r24, Z
    245e:	91 81       	ldd	r25, Z+1	; 0x01
    2460:	84 0f       	add	r24, r20
    2462:	95 1f       	adc	r25, r21
    2464:	02 96       	adiw	r24, 0x02	; 2
    2466:	e9 01       	movw	r28, r18
    2468:	88 83       	st	Y, r24
    246a:	99 83       	std	Y+1, r25	; 0x01
    246c:	82 81       	ldd	r24, Z+2	; 0x02
    246e:	93 81       	ldd	r25, Z+3	; 0x03
    2470:	8a 83       	std	Y+2, r24	; 0x02
    2472:	9b 83       	std	Y+3, r25	; 0x03
    2474:	e0 e0       	ldi	r30, 0x00	; 0
    2476:	f0 e0       	ldi	r31, 0x00	; 0
    2478:	12 96       	adiw	r26, 0x02	; 2
    247a:	8d 91       	ld	r24, X+
    247c:	9c 91       	ld	r25, X
    247e:	13 97       	sbiw	r26, 0x03	; 3
    2480:	00 97       	sbiw	r24, 0x00	; 0
    2482:	19 f0       	breq	.+6      	; 0x248a <free+0xd4>
    2484:	fd 01       	movw	r30, r26
    2486:	dc 01       	movw	r26, r24
    2488:	f7 cf       	rjmp	.-18     	; 0x2478 <free+0xc2>
    248a:	8d 91       	ld	r24, X+
    248c:	9c 91       	ld	r25, X
    248e:	11 97       	sbiw	r26, 0x01	; 1
    2490:	9d 01       	movw	r18, r26
    2492:	2e 5f       	subi	r18, 0xFE	; 254
    2494:	3f 4f       	sbci	r19, 0xFF	; 255
    2496:	82 0f       	add	r24, r18
    2498:	93 1f       	adc	r25, r19
    249a:	20 91 6c 24 	lds	r18, 0x246C	; 0x80246c <__brkval>
    249e:	30 91 6d 24 	lds	r19, 0x246D	; 0x80246d <__brkval+0x1>
    24a2:	28 17       	cp	r18, r24
    24a4:	39 07       	cpc	r19, r25
    24a6:	69 f4       	brne	.+26     	; 0x24c2 <free+0x10c>
    24a8:	30 97       	sbiw	r30, 0x00	; 0
    24aa:	29 f4       	brne	.+10     	; 0x24b6 <free+0x100>
    24ac:	10 92 6e 24 	sts	0x246E, r1	; 0x80246e <__flp>
    24b0:	10 92 6f 24 	sts	0x246F, r1	; 0x80246f <__flp+0x1>
    24b4:	02 c0       	rjmp	.+4      	; 0x24ba <free+0x104>
    24b6:	12 82       	std	Z+2, r1	; 0x02
    24b8:	13 82       	std	Z+3, r1	; 0x03
    24ba:	a0 93 6c 24 	sts	0x246C, r26	; 0x80246c <__brkval>
    24be:	b0 93 6d 24 	sts	0x246D, r27	; 0x80246d <__brkval+0x1>
    24c2:	df 91       	pop	r29
    24c4:	cf 91       	pop	r28
    24c6:	08 95       	ret

000024c8 <_exit>:
    24c8:	f8 94       	cli

000024ca <__stop_program>:
    24ca:	ff cf       	rjmp	.-2      	; 0x24ca <__stop_program>
