
CWMaskAndRandChaotic.elf:     file format elf32-avr

Sections:
Idx Name          Size      VMA       LMA       File off  Algn
  0 .text         0000396e  00000000  00000000  00000094  2**1
                  CONTENTS, ALLOC, LOAD, READONLY, CODE
  1 .data         0000021e  00802000  0000396e  00003a02  2**0
                  CONTENTS, ALLOC, LOAD, DATA
  2 .bss          00000252  0080221e  0080221e  00003c20  2**0
                  ALLOC
  3 .comment      00000030  00000000  00000000  00003c20  2**0
                  CONTENTS, READONLY
  4 .note.gnu.avr.deviceinfo 00000040  00000000  00000000  00003c50  2**2
                  CONTENTS, READONLY
  5 .debug_aranges 000002b8  00000000  00000000  00003c90  2**3
                  CONTENTS, READONLY, DEBUGGING
  6 .debug_info   000095a5  00000000  00000000  00003f48  2**0
                  CONTENTS, READONLY, DEBUGGING
  7 .debug_abbrev 0000319d  00000000  00000000  0000d4ed  2**0
                  CONTENTS, READONLY, DEBUGGING
  8 .debug_line   0000429c  00000000  00000000  0001068a  2**0
                  CONTENTS, READONLY, DEBUGGING
  9 .debug_frame  00000e38  00000000  00000000  00014928  2**2
                  CONTENTS, READONLY, DEBUGGING
 10 .debug_str    000273e6  00000000  00000000  00015760  2**0
                  CONTENTS, READONLY, DEBUGGING
 11 .debug_loc    00007f20  00000000  00000000  0003cb46  2**0
                  CONTENTS, READONLY, DEBUGGING
 12 .debug_ranges 000007e8  00000000  00000000  00044a66  2**0
                  CONTENTS, READONLY, DEBUGGING
 13 .debug_macro  00007e78  00000000  00000000  0004524e  2**0
                  CONTENTS, READONLY, DEBUGGING

Disassembly of section .text:

00000000 <__vectors>:
       0:	b5 c0       	rjmp	.+362    	; 0x16c <__ctors_end>
       2:	00 00       	nop
       4:	d3 c0       	rjmp	.+422    	; 0x1ac <__bad_interrupt>
       6:	00 00       	nop
       8:	d1 c0       	rjmp	.+418    	; 0x1ac <__bad_interrupt>
       a:	00 00       	nop
       c:	cf c0       	rjmp	.+414    	; 0x1ac <__bad_interrupt>
       e:	00 00       	nop
      10:	cd c0       	rjmp	.+410    	; 0x1ac <__bad_interrupt>
      12:	00 00       	nop
      14:	cb c0       	rjmp	.+406    	; 0x1ac <__bad_interrupt>
      16:	00 00       	nop
      18:	c9 c0       	rjmp	.+402    	; 0x1ac <__bad_interrupt>
      1a:	00 00       	nop
      1c:	c7 c0       	rjmp	.+398    	; 0x1ac <__bad_interrupt>
      1e:	00 00       	nop
      20:	c5 c0       	rjmp	.+394    	; 0x1ac <__bad_interrupt>
      22:	00 00       	nop
      24:	c3 c0       	rjmp	.+390    	; 0x1ac <__bad_interrupt>
      26:	00 00       	nop
      28:	c1 c0       	rjmp	.+386    	; 0x1ac <__bad_interrupt>
      2a:	00 00       	nop
      2c:	bf c0       	rjmp	.+382    	; 0x1ac <__bad_interrupt>
      2e:	00 00       	nop
      30:	bd c0       	rjmp	.+378    	; 0x1ac <__bad_interrupt>
      32:	00 00       	nop
      34:	bb c0       	rjmp	.+374    	; 0x1ac <__bad_interrupt>
      36:	00 00       	nop
      38:	0c 94 e5 14 	jmp	0x29ca	; 0x29ca <__vector_14>
      3c:	0c 94 12 15 	jmp	0x2a24	; 0x2a24 <__vector_15>
      40:	0c 94 3f 15 	jmp	0x2a7e	; 0x2a7e <__vector_16>
      44:	0c 94 6c 15 	jmp	0x2ad8	; 0x2ad8 <__vector_17>
      48:	0c 94 99 15 	jmp	0x2b32	; 0x2b32 <__vector_18>
      4c:	0c 94 c6 15 	jmp	0x2b8c	; 0x2b8c <__vector_19>
      50:	0c 94 f3 15 	jmp	0x2be6	; 0x2be6 <__vector_20>
      54:	0c 94 20 16 	jmp	0x2c40	; 0x2c40 <__vector_21>
      58:	0c 94 4d 16 	jmp	0x2c9a	; 0x2c9a <__vector_22>
      5c:	0c 94 7a 16 	jmp	0x2cf4	; 0x2cf4 <__vector_23>
      60:	a5 c0       	rjmp	.+330    	; 0x1ac <__bad_interrupt>
      62:	00 00       	nop
      64:	a3 c0       	rjmp	.+326    	; 0x1ac <__bad_interrupt>
      66:	00 00       	nop
      68:	a1 c0       	rjmp	.+322    	; 0x1ac <__bad_interrupt>
      6a:	00 00       	nop
      6c:	9f c0       	rjmp	.+318    	; 0x1ac <__bad_interrupt>
      6e:	00 00       	nop
      70:	9d c0       	rjmp	.+314    	; 0x1ac <__bad_interrupt>
      72:	00 00       	nop
      74:	9b c0       	rjmp	.+310    	; 0x1ac <__bad_interrupt>
      76:	00 00       	nop
      78:	99 c0       	rjmp	.+306    	; 0x1ac <__bad_interrupt>
      7a:	00 00       	nop
      7c:	97 c0       	rjmp	.+302    	; 0x1ac <__bad_interrupt>
      7e:	00 00       	nop
      80:	95 c0       	rjmp	.+298    	; 0x1ac <__bad_interrupt>
      82:	00 00       	nop
      84:	93 c0       	rjmp	.+294    	; 0x1ac <__bad_interrupt>
      86:	00 00       	nop
      88:	91 c0       	rjmp	.+290    	; 0x1ac <__bad_interrupt>
      8a:	00 00       	nop
      8c:	8f c0       	rjmp	.+286    	; 0x1ac <__bad_interrupt>
      8e:	00 00       	nop
      90:	8d c0       	rjmp	.+282    	; 0x1ac <__bad_interrupt>
      92:	00 00       	nop
      94:	8b c0       	rjmp	.+278    	; 0x1ac <__bad_interrupt>
      96:	00 00       	nop
      98:	89 c0       	rjmp	.+274    	; 0x1ac <__bad_interrupt>
      9a:	00 00       	nop
      9c:	87 c0       	rjmp	.+270    	; 0x1ac <__bad_interrupt>
      9e:	00 00       	nop
      a0:	85 c0       	rjmp	.+266    	; 0x1ac <__bad_interrupt>
      a2:	00 00       	nop
      a4:	83 c0       	rjmp	.+262    	; 0x1ac <__bad_interrupt>
      a6:	00 00       	nop
      a8:	81 c0       	rjmp	.+258    	; 0x1ac <__bad_interrupt>
      aa:	00 00       	nop
      ac:	7f c0       	rjmp	.+254    	; 0x1ac <__bad_interrupt>
      ae:	00 00       	nop
      b0:	7d c0       	rjmp	.+250    	; 0x1ac <__bad_interrupt>
      b2:	00 00       	nop
      b4:	7b c0       	rjmp	.+246    	; 0x1ac <__bad_interrupt>
      b6:	00 00       	nop
      b8:	79 c0       	rjmp	.+242    	; 0x1ac <__bad_interrupt>
      ba:	00 00       	nop
      bc:	0c 94 b5 17 	jmp	0x2f6a	; 0x2f6a <__vector_47>
      c0:	0c 94 e2 17 	jmp	0x2fc4	; 0x2fc4 <__vector_48>
      c4:	0c 94 0f 18 	jmp	0x301e	; 0x301e <__vector_49>
      c8:	0c 94 3c 18 	jmp	0x3078	; 0x3078 <__vector_50>
      cc:	0c 94 69 18 	jmp	0x30d2	; 0x30d2 <__vector_51>
      d0:	0c 94 96 18 	jmp	0x312c	; 0x312c <__vector_52>
      d4:	6b c0       	rjmp	.+214    	; 0x1ac <__bad_interrupt>
      d6:	00 00       	nop
      d8:	69 c0       	rjmp	.+210    	; 0x1ac <__bad_interrupt>
      da:	00 00       	nop
      dc:	67 c0       	rjmp	.+206    	; 0x1ac <__bad_interrupt>
      de:	00 00       	nop
      e0:	65 c0       	rjmp	.+202    	; 0x1ac <__bad_interrupt>
      e2:	00 00       	nop
      e4:	63 c0       	rjmp	.+198    	; 0x1ac <__bad_interrupt>
      e6:	00 00       	nop
      e8:	61 c0       	rjmp	.+194    	; 0x1ac <__bad_interrupt>
      ea:	00 00       	nop
      ec:	5f c0       	rjmp	.+190    	; 0x1ac <__bad_interrupt>
      ee:	00 00       	nop
      f0:	5d c0       	rjmp	.+186    	; 0x1ac <__bad_interrupt>
      f2:	00 00       	nop
      f4:	5b c0       	rjmp	.+182    	; 0x1ac <__bad_interrupt>
      f6:	00 00       	nop
      f8:	59 c0       	rjmp	.+178    	; 0x1ac <__bad_interrupt>
      fa:	00 00       	nop
      fc:	57 c0       	rjmp	.+174    	; 0x1ac <__bad_interrupt>
      fe:	00 00       	nop
     100:	55 c0       	rjmp	.+170    	; 0x1ac <__bad_interrupt>
     102:	00 00       	nop
     104:	53 c0       	rjmp	.+166    	; 0x1ac <__bad_interrupt>
     106:	00 00       	nop
     108:	51 c0       	rjmp	.+162    	; 0x1ac <__bad_interrupt>
     10a:	00 00       	nop
     10c:	4f c0       	rjmp	.+158    	; 0x1ac <__bad_interrupt>
     10e:	00 00       	nop
     110:	4d c0       	rjmp	.+154    	; 0x1ac <__bad_interrupt>
     112:	00 00       	nop
     114:	4b c0       	rjmp	.+150    	; 0x1ac <__bad_interrupt>
     116:	00 00       	nop
     118:	49 c0       	rjmp	.+146    	; 0x1ac <__bad_interrupt>
     11a:	00 00       	nop
     11c:	47 c0       	rjmp	.+142    	; 0x1ac <__bad_interrupt>
     11e:	00 00       	nop
     120:	45 c0       	rjmp	.+138    	; 0x1ac <__bad_interrupt>
     122:	00 00       	nop
     124:	43 c0       	rjmp	.+134    	; 0x1ac <__bad_interrupt>
     126:	00 00       	nop
     128:	41 c0       	rjmp	.+130    	; 0x1ac <__bad_interrupt>
     12a:	00 00       	nop
     12c:	3f c0       	rjmp	.+126    	; 0x1ac <__bad_interrupt>
     12e:	00 00       	nop
     130:	3d c0       	rjmp	.+122    	; 0x1ac <__bad_interrupt>
     132:	00 00       	nop
     134:	0c 94 a7 16 	jmp	0x2d4e	; 0x2d4e <__vector_77>
     138:	0c 94 d4 16 	jmp	0x2da8	; 0x2da8 <__vector_78>
     13c:	0c 94 01 17 	jmp	0x2e02	; 0x2e02 <__vector_79>
     140:	0c 94 2e 17 	jmp	0x2e5c	; 0x2e5c <__vector_80>
     144:	0c 94 5b 17 	jmp	0x2eb6	; 0x2eb6 <__vector_81>
     148:	0c 94 88 17 	jmp	0x2f10	; 0x2f10 <__vector_82>
     14c:	2f c0       	rjmp	.+94     	; 0x1ac <__bad_interrupt>
     14e:	00 00       	nop
     150:	2d c0       	rjmp	.+90     	; 0x1ac <__bad_interrupt>
     152:	00 00       	nop
     154:	2b c0       	rjmp	.+86     	; 0x1ac <__bad_interrupt>
     156:	00 00       	nop
     158:	29 c0       	rjmp	.+82     	; 0x1ac <__bad_interrupt>
     15a:	00 00       	nop
     15c:	27 c0       	rjmp	.+78     	; 0x1ac <__bad_interrupt>
     15e:	00 00       	nop
     160:	25 c0       	rjmp	.+74     	; 0x1ac <__bad_interrupt>
     162:	00 00       	nop
     164:	23 c0       	rjmp	.+70     	; 0x1ac <__bad_interrupt>
     166:	00 00       	nop
     168:	21 c0       	rjmp	.+66     	; 0x1ac <__bad_interrupt>
	...

0000016c <__ctors_end>:
     16c:	11 24       	eor	r1, r1
     16e:	1f be       	out	0x3f, r1	; 63
     170:	cf ef       	ldi	r28, 0xFF	; 255
     172:	cd bf       	out	0x3d, r28	; 61
     174:	df e3       	ldi	r29, 0x3F	; 63
     176:	de bf       	out	0x3e, r29	; 62
     178:	00 e0       	ldi	r16, 0x00	; 0
     17a:	0c bf       	out	0x3c, r16	; 60

0000017c <__do_copy_data>:
     17c:	12 e2       	ldi	r17, 0x22	; 34
     17e:	a0 e0       	ldi	r26, 0x00	; 0
     180:	b0 e2       	ldi	r27, 0x20	; 32
     182:	ee e6       	ldi	r30, 0x6E	; 110
     184:	f9 e3       	ldi	r31, 0x39	; 57
     186:	00 e0       	ldi	r16, 0x00	; 0
     188:	0b bf       	out	0x3b, r16	; 59
     18a:	02 c0       	rjmp	.+4      	; 0x190 <__do_copy_data+0x14>
     18c:	07 90       	elpm	r0, Z+
     18e:	0d 92       	st	X+, r0
     190:	ae 31       	cpi	r26, 0x1E	; 30
     192:	b1 07       	cpc	r27, r17
     194:	d9 f7       	brne	.-10     	; 0x18c <__do_copy_data+0x10>

00000196 <__do_clear_bss>:
     196:	24 e2       	ldi	r18, 0x24	; 36
     198:	ae e1       	ldi	r26, 0x1E	; 30
     19a:	b2 e2       	ldi	r27, 0x22	; 34
     19c:	01 c0       	rjmp	.+2      	; 0x1a0 <.do_clear_bss_start>

0000019e <.do_clear_bss_loop>:
     19e:	1d 92       	st	X+, r1

000001a0 <.do_clear_bss_start>:
     1a0:	a0 37       	cpi	r26, 0x70	; 112
     1a2:	b2 07       	cpc	r27, r18
     1a4:	e1 f7       	brne	.-8      	; 0x19e <.do_clear_bss_loop>
     1a6:	fc d2       	rcall	.+1528   	; 0x7a0 <main>
     1a8:	0c 94 b5 1c 	jmp	0x396a	; 0x396a <_exit>

000001ac <__bad_interrupt>:
     1ac:	29 cf       	rjmp	.-430    	; 0x0 <__vectors>

000001ae <usart_init_rs232>:
		sysclk_enable_module(SYSCLK_PORT_C, SYSCLK_SPI);
	}
#endif
#ifdef SPID
	else if (module == &SPID) {
		sysclk_enable_module(SYSCLK_PORT_D, SYSCLK_SPI);
     1ae:	8f 92       	push	r8
     1b0:	9f 92       	push	r9
     1b2:	af 92       	push	r10
     1b4:	bf 92       	push	r11
     1b6:	cf 92       	push	r12
     1b8:	df 92       	push	r13
     1ba:	ef 92       	push	r14
     1bc:	ff 92       	push	r15
     1be:	0f 93       	push	r16
     1c0:	1f 93       	push	r17
     1c2:	cf 93       	push	r28
     1c4:	df 93       	push	r29
     1c6:	ec 01       	movw	r28, r24
     1c8:	8b 01       	movw	r16, r22
     1ca:	00 97       	sbiw	r24, 0x00	; 0
     1cc:	09 f4       	brne	.+2      	; 0x1d0 <usart_init_rs232+0x22>
     1ce:	4a c0       	rjmp	.+148    	; 0x264 <usart_init_rs232+0xb6>
     1d0:	81 15       	cp	r24, r1
     1d2:	24 e0       	ldi	r18, 0x04	; 4
     1d4:	92 07       	cpc	r25, r18
     1d6:	09 f4       	brne	.+2      	; 0x1da <usart_init_rs232+0x2c>
     1d8:	29 c1       	rjmp	.+594    	; 0x42c <__LOCK_REGION_LENGTH__+0x2c>
     1da:	80 38       	cpi	r24, 0x80	; 128
     1dc:	41 e0       	ldi	r20, 0x01	; 1
     1de:	94 07       	cpc	r25, r20
     1e0:	09 f4       	brne	.+2      	; 0x1e4 <usart_init_rs232+0x36>
     1e2:	29 c1       	rjmp	.+594    	; 0x436 <__LOCK_REGION_LENGTH__+0x36>
     1e4:	80 38       	cpi	r24, 0x80	; 128
     1e6:	93 40       	sbci	r25, 0x03	; 3
     1e8:	09 f4       	brne	.+2      	; 0x1ec <usart_init_rs232+0x3e>
     1ea:	2a c1       	rjmp	.+596    	; 0x440 <__LOCK_REGION_LENGTH__+0x40>
     1ec:	c1 15       	cp	r28, r1
     1ee:	82 e0       	ldi	r24, 0x02	; 2
     1f0:	d8 07       	cpc	r29, r24
     1f2:	09 f4       	brne	.+2      	; 0x1f6 <usart_init_rs232+0x48>
     1f4:	2a c1       	rjmp	.+596    	; 0x44a <__LOCK_REGION_LENGTH__+0x4a>
     1f6:	c1 15       	cp	r28, r1
     1f8:	98 e0       	ldi	r25, 0x08	; 8
     1fa:	d9 07       	cpc	r29, r25
     1fc:	09 f4       	brne	.+2      	; 0x200 <usart_init_rs232+0x52>
     1fe:	2a c1       	rjmp	.+596    	; 0x454 <__LOCK_REGION_LENGTH__+0x54>
     200:	c1 15       	cp	r28, r1
     202:	a9 e0       	ldi	r26, 0x09	; 9
     204:	da 07       	cpc	r29, r26
     206:	09 f4       	brne	.+2      	; 0x20a <usart_init_rs232+0x5c>
     208:	2a c1       	rjmp	.+596    	; 0x45e <__LOCK_REGION_LENGTH__+0x5e>
     20a:	c1 15       	cp	r28, r1
     20c:	ba e0       	ldi	r27, 0x0A	; 10
     20e:	db 07       	cpc	r29, r27
     210:	09 f4       	brne	.+2      	; 0x214 <usart_init_rs232+0x66>
     212:	2a c1       	rjmp	.+596    	; 0x468 <__LOCK_REGION_LENGTH__+0x68>
     214:	c0 34       	cpi	r28, 0x40	; 64
     216:	e8 e0       	ldi	r30, 0x08	; 8
     218:	de 07       	cpc	r29, r30
     21a:	09 f4       	brne	.+2      	; 0x21e <usart_init_rs232+0x70>
     21c:	2a c1       	rjmp	.+596    	; 0x472 <__LOCK_REGION_LENGTH__+0x72>
     21e:	c0 39       	cpi	r28, 0x90	; 144
     220:	f8 e0       	ldi	r31, 0x08	; 8
     222:	df 07       	cpc	r29, r31
     224:	09 f4       	brne	.+2      	; 0x228 <usart_init_rs232+0x7a>
     226:	2a c1       	rjmp	.+596    	; 0x47c <__LOCK_REGION_LENGTH__+0x7c>
     228:	c0 3c       	cpi	r28, 0xC0	; 192
     22a:	28 e0       	ldi	r18, 0x08	; 8
     22c:	d2 07       	cpc	r29, r18
     22e:	09 f4       	brne	.+2      	; 0x232 <usart_init_rs232+0x84>
     230:	2a c1       	rjmp	.+596    	; 0x486 <__LOCK_REGION_LENGTH__+0x86>
     232:	c0 3c       	cpi	r28, 0xC0	; 192
     234:	49 e0       	ldi	r20, 0x09	; 9
     236:	d4 07       	cpc	r29, r20
     238:	09 f4       	brne	.+2      	; 0x23c <usart_init_rs232+0x8e>
     23a:	2a c1       	rjmp	.+596    	; 0x490 <__LOCK_REGION_LENGTH__+0x90>
     23c:	c0 3a       	cpi	r28, 0xA0	; 160
     23e:	58 e0       	ldi	r21, 0x08	; 8
     240:	d5 07       	cpc	r29, r21
     242:	09 f4       	brne	.+2      	; 0x246 <usart_init_rs232+0x98>
     244:	2a c1       	rjmp	.+596    	; 0x49a <__LOCK_REGION_LENGTH__+0x9a>
     246:	c0 3a       	cpi	r28, 0xA0	; 160
     248:	89 e0       	ldi	r24, 0x09	; 9
     24a:	d8 07       	cpc	r29, r24
     24c:	09 f4       	brne	.+2      	; 0x250 <usart_init_rs232+0xa2>
     24e:	2a c1       	rjmp	.+596    	; 0x4a4 <__LOCK_REGION_LENGTH__+0xa4>
     250:	c0 38       	cpi	r28, 0x80	; 128
     252:	94 e0       	ldi	r25, 0x04	; 4
     254:	d9 07       	cpc	r29, r25
     256:	09 f4       	brne	.+2      	; 0x25a <usart_init_rs232+0xac>
     258:	e4 c0       	rjmp	.+456    	; 0x422 <__LOCK_REGION_LENGTH__+0x22>
     25a:	c0 3a       	cpi	r28, 0xA0	; 160
     25c:	a4 e0       	ldi	r26, 0x04	; 4
     25e:	da 07       	cpc	r29, r26
     260:	09 f4       	brne	.+2      	; 0x264 <usart_init_rs232+0xb6>
     262:	da c0       	rjmp	.+436    	; 0x418 <__LOCK_REGION_LENGTH__+0x18>
     264:	8d 81       	ldd	r24, Y+5	; 0x05
     266:	8f 73       	andi	r24, 0x3F	; 63
     268:	8d 83       	std	Y+5, r24	; 0x05
     26a:	f8 01       	movw	r30, r16
     26c:	95 81       	ldd	r25, Z+5	; 0x05
     26e:	84 81       	ldd	r24, Z+4	; 0x04
     270:	89 2b       	or	r24, r25
     272:	96 81       	ldd	r25, Z+6	; 0x06
     274:	91 11       	cpse	r25, r1
     276:	c9 c0       	rjmp	.+402    	; 0x40a <__LOCK_REGION_LENGTH__+0xa>
     278:	90 e0       	ldi	r25, 0x00	; 0
     27a:	89 2b       	or	r24, r25
     27c:	8d 83       	std	Y+5, r24	; 0x05
     27e:	d8 01       	movw	r26, r16
     280:	cd 90       	ld	r12, X+
     282:	dd 90       	ld	r13, X+
     284:	ed 90       	ld	r14, X+
     286:	fc 90       	ld	r15, X
     288:	8c 81       	ldd	r24, Y+4	; 0x04
     28a:	82 ff       	sbrs	r24, 2
     28c:	1e c0       	rjmp	.+60     	; 0x2ca <usart_init_rs232+0x11c>
     28e:	d7 01       	movw	r26, r14
     290:	c6 01       	movw	r24, r12
     292:	01 97       	sbiw	r24, 0x01	; 1
     294:	a1 09       	sbc	r26, r1
     296:	b1 09       	sbc	r27, r1
     298:	82 3a       	cpi	r24, 0xA2	; 162
     29a:	9e 40       	sbci	r25, 0x0E	; 14
     29c:	ae 40       	sbci	r26, 0x0E	; 14
     29e:	b1 05       	cpc	r27, r1
     2a0:	d8 f0       	brcs	.+54     	; 0x2d8 <usart_init_rs232+0x12a>
     2a2:	80 e0       	ldi	r24, 0x00	; 0
     2a4:	9c 81       	ldd	r25, Y+4	; 0x04
     2a6:	98 60       	ori	r25, 0x08	; 8
     2a8:	9c 83       	std	Y+4, r25	; 0x04
     2aa:	9c 81       	ldd	r25, Y+4	; 0x04
     2ac:	90 61       	ori	r25, 0x10	; 16
     2ae:	9c 83       	std	Y+4, r25	; 0x04
     2b0:	df 91       	pop	r29
     2b2:	cf 91       	pop	r28
     2b4:	1f 91       	pop	r17
     2b6:	0f 91       	pop	r16
     2b8:	ff 90       	pop	r15
     2ba:	ef 90       	pop	r14
     2bc:	df 90       	pop	r13
     2be:	cf 90       	pop	r12
     2c0:	bf 90       	pop	r11
     2c2:	af 90       	pop	r10
     2c4:	9f 90       	pop	r9
     2c6:	8f 90       	pop	r8
     2c8:	08 95       	ret
     2ca:	92 e5       	ldi	r25, 0x52	; 82
     2cc:	c9 16       	cp	r12, r25
     2ce:	97 e0       	ldi	r25, 0x07	; 7
     2d0:	d9 06       	cpc	r13, r25
     2d2:	e9 06       	cpc	r14, r25
     2d4:	f1 04       	cpc	r15, r1
     2d6:	28 f7       	brcc	.-54     	; 0x2a2 <usart_init_rs232+0xf4>
     2d8:	8c 81       	ldd	r24, Y+4	; 0x04
     2da:	82 ff       	sbrs	r24, 2
     2dc:	98 c0       	rjmp	.+304    	; 0x40e <__LOCK_REGION_LENGTH__+0xe>
     2de:	e0 e1       	ldi	r30, 0x10	; 16
     2e0:	8e 2e       	mov	r8, r30
     2e2:	e5 e7       	ldi	r30, 0x75	; 117
     2e4:	9e 2e       	mov	r9, r30
     2e6:	e0 e7       	ldi	r30, 0x70	; 112
     2e8:	ae 2e       	mov	r10, r30
     2ea:	b1 2c       	mov	r11, r1
     2ec:	c5 01       	movw	r24, r10
     2ee:	b4 01       	movw	r22, r8
     2f0:	a7 01       	movw	r20, r14
     2f2:	96 01       	movw	r18, r12
     2f4:	0e 94 51 1b 	call	0x36a2	; 0x36a2 <__udivmodsi4>
     2f8:	2f 3f       	cpi	r18, 0xFF	; 255
     2fa:	31 05       	cpc	r19, r1
     2fc:	41 05       	cpc	r20, r1
     2fe:	51 05       	cpc	r21, r1
     300:	08 f4       	brcc	.+2      	; 0x304 <usart_init_rs232+0x156>
     302:	d5 c0       	rjmp	.+426    	; 0x4ae <__LOCK_REGION_LENGTH__+0xae>
     304:	2f 3f       	cpi	r18, 0xFF	; 255
     306:	f1 e0       	ldi	r31, 0x01	; 1
     308:	3f 07       	cpc	r19, r31
     30a:	41 05       	cpc	r20, r1
     30c:	51 05       	cpc	r21, r1
     30e:	08 f4       	brcc	.+2      	; 0x312 <usart_init_rs232+0x164>
     310:	00 c1       	rjmp	.+512    	; 0x512 <__LOCK_REGION_LENGTH__+0x112>
     312:	2f 3f       	cpi	r18, 0xFF	; 255
     314:	83 e0       	ldi	r24, 0x03	; 3
     316:	38 07       	cpc	r19, r24
     318:	41 05       	cpc	r20, r1
     31a:	51 05       	cpc	r21, r1
     31c:	08 f4       	brcc	.+2      	; 0x320 <usart_init_rs232+0x172>
     31e:	36 c1       	rjmp	.+620    	; 0x58c <__LOCK_REGION_LENGTH__+0x18c>
     320:	2f 3f       	cpi	r18, 0xFF	; 255
     322:	97 e0       	ldi	r25, 0x07	; 7
     324:	39 07       	cpc	r19, r25
     326:	41 05       	cpc	r20, r1
     328:	51 05       	cpc	r21, r1
     32a:	08 f4       	brcc	.+2      	; 0x32e <usart_init_rs232+0x180>
     32c:	31 c1       	rjmp	.+610    	; 0x590 <__LOCK_REGION_LENGTH__+0x190>
     32e:	2f 3f       	cpi	r18, 0xFF	; 255
     330:	af e0       	ldi	r26, 0x0F	; 15
     332:	3a 07       	cpc	r19, r26
     334:	41 05       	cpc	r20, r1
     336:	51 05       	cpc	r21, r1
     338:	08 f4       	brcc	.+2      	; 0x33c <usart_init_rs232+0x18e>
     33a:	2c c1       	rjmp	.+600    	; 0x594 <__LOCK_REGION_LENGTH__+0x194>
     33c:	2e 3f       	cpi	r18, 0xFE	; 254
     33e:	bf e1       	ldi	r27, 0x1F	; 31
     340:	3b 07       	cpc	r19, r27
     342:	41 05       	cpc	r20, r1
     344:	51 05       	cpc	r21, r1
     346:	08 f4       	brcc	.+2      	; 0x34a <usart_init_rs232+0x19c>
     348:	27 c1       	rjmp	.+590    	; 0x598 <__LOCK_REGION_LENGTH__+0x198>
     34a:	2c 3f       	cpi	r18, 0xFC	; 252
     34c:	ef e3       	ldi	r30, 0x3F	; 63
     34e:	3e 07       	cpc	r19, r30
     350:	41 05       	cpc	r20, r1
     352:	51 05       	cpc	r21, r1
     354:	08 f4       	brcc	.+2      	; 0x358 <usart_init_rs232+0x1aa>
     356:	22 c1       	rjmp	.+580    	; 0x59c <__LOCK_REGION_LENGTH__+0x19c>
     358:	28 3f       	cpi	r18, 0xF8	; 248
     35a:	ff e7       	ldi	r31, 0x7F	; 127
     35c:	3f 07       	cpc	r19, r31
     35e:	41 05       	cpc	r20, r1
     360:	51 05       	cpc	r21, r1
     362:	08 f4       	brcc	.+2      	; 0x366 <usart_init_rs232+0x1b8>
     364:	1d c1       	rjmp	.+570    	; 0x5a0 <__LOCK_REGION_LENGTH__+0x1a0>
     366:	20 3f       	cpi	r18, 0xF0	; 240
     368:	8f ef       	ldi	r24, 0xFF	; 255
     36a:	38 07       	cpc	r19, r24
     36c:	41 05       	cpc	r20, r1
     36e:	51 05       	cpc	r21, r1
     370:	08 f4       	brcc	.+2      	; 0x374 <usart_init_rs232+0x1c6>
     372:	21 c1       	rjmp	.+578    	; 0x5b6 <__LOCK_REGION_LENGTH__+0x1b6>
     374:	20 3e       	cpi	r18, 0xE0	; 224
     376:	9f ef       	ldi	r25, 0xFF	; 255
     378:	39 07       	cpc	r19, r25
     37a:	91 e0       	ldi	r25, 0x01	; 1
     37c:	49 07       	cpc	r20, r25
     37e:	51 05       	cpc	r21, r1
     380:	08 f4       	brcc	.+2      	; 0x384 <usart_init_rs232+0x1d6>
     382:	1b c1       	rjmp	.+566    	; 0x5ba <__LOCK_REGION_LENGTH__+0x1ba>
     384:	20 3c       	cpi	r18, 0xC0	; 192
     386:	af ef       	ldi	r26, 0xFF	; 255
     388:	3a 07       	cpc	r19, r26
     38a:	a3 e0       	ldi	r26, 0x03	; 3
     38c:	4a 07       	cpc	r20, r26
     38e:	51 05       	cpc	r21, r1
     390:	08 f4       	brcc	.+2      	; 0x394 <usart_init_rs232+0x1e6>
     392:	15 c1       	rjmp	.+554    	; 0x5be <__LOCK_REGION_LENGTH__+0x1be>
     394:	20 38       	cpi	r18, 0x80	; 128
     396:	bf ef       	ldi	r27, 0xFF	; 255
     398:	3b 07       	cpc	r19, r27
     39a:	b7 e0       	ldi	r27, 0x07	; 7
     39c:	4b 07       	cpc	r20, r27
     39e:	51 05       	cpc	r21, r1
     3a0:	08 f4       	brcc	.+2      	; 0x3a4 <usart_init_rs232+0x1f6>
     3a2:	0f c1       	rjmp	.+542    	; 0x5c2 <__LOCK_REGION_LENGTH__+0x1c2>
     3a4:	21 15       	cp	r18, r1
     3a6:	ef ef       	ldi	r30, 0xFF	; 255
     3a8:	3e 07       	cpc	r19, r30
     3aa:	ef e0       	ldi	r30, 0x0F	; 15
     3ac:	4e 07       	cpc	r20, r30
     3ae:	51 05       	cpc	r21, r1
     3b0:	08 f4       	brcc	.+2      	; 0x3b4 <usart_init_rs232+0x206>
     3b2:	09 c1       	rjmp	.+530    	; 0x5c6 <__LOCK_REGION_LENGTH__+0x1c6>
     3b4:	21 15       	cp	r18, r1
     3b6:	3e 4f       	sbci	r19, 0xFE	; 254
     3b8:	4f 41       	sbci	r20, 0x1F	; 31
     3ba:	51 05       	cpc	r21, r1
     3bc:	08 f4       	brcc	.+2      	; 0x3c0 <usart_init_rs232+0x212>
     3be:	05 c1       	rjmp	.+522    	; 0x5ca <__LOCK_REGION_LENGTH__+0x1ca>
     3c0:	10 e7       	ldi	r17, 0x70	; 112
     3c2:	2a e0       	ldi	r18, 0x0A	; 10
     3c4:	30 e0       	ldi	r19, 0x00	; 0
     3c6:	d7 01       	movw	r26, r14
     3c8:	c6 01       	movw	r24, r12
     3ca:	04 c0       	rjmp	.+8      	; 0x3d4 <usart_init_rs232+0x226>
     3cc:	88 0f       	add	r24, r24
     3ce:	99 1f       	adc	r25, r25
     3d0:	aa 1f       	adc	r26, r26
     3d2:	bb 1f       	adc	r27, r27
     3d4:	2a 95       	dec	r18
     3d6:	d2 f7       	brpl	.-12     	; 0x3cc <usart_init_rs232+0x21e>
     3d8:	9c 01       	movw	r18, r24
     3da:	ad 01       	movw	r20, r26
     3dc:	b6 95       	lsr	r27
     3de:	a7 95       	ror	r26
     3e0:	97 95       	ror	r25
     3e2:	87 95       	ror	r24
     3e4:	bc 01       	movw	r22, r24
     3e6:	cd 01       	movw	r24, r26
     3e8:	60 5f       	subi	r22, 0xF0	; 240
     3ea:	7a 48       	sbci	r23, 0x8A	; 138
     3ec:	8f 48       	sbci	r24, 0x8F	; 143
     3ee:	9f 4f       	sbci	r25, 0xFF	; 255
     3f0:	0e 94 51 1b 	call	0x36a2	; 0x36a2 <__udivmodsi4>
     3f4:	21 50       	subi	r18, 0x01	; 1
     3f6:	31 09       	sbc	r19, r1
     3f8:	41 09       	sbc	r20, r1
     3fa:	51 09       	sbc	r21, r1
     3fc:	83 2f       	mov	r24, r19
     3fe:	8f 70       	andi	r24, 0x0F	; 15
     400:	81 2b       	or	r24, r17
     402:	8f 83       	std	Y+7, r24	; 0x07
     404:	2e 83       	std	Y+6, r18	; 0x06
     406:	81 e0       	ldi	r24, 0x01	; 1
     408:	4d cf       	rjmp	.-358    	; 0x2a4 <usart_init_rs232+0xf6>
     40a:	98 e0       	ldi	r25, 0x08	; 8
     40c:	36 cf       	rjmp	.-404    	; 0x27a <usart_init_rs232+0xcc>
     40e:	cc 0c       	add	r12, r12
     410:	dd 1c       	adc	r13, r13
     412:	ee 1c       	adc	r14, r14
     414:	ff 1c       	adc	r15, r15
     416:	63 cf       	rjmp	.-314    	; 0x2de <usart_init_rs232+0x130>
     418:	60 e4       	ldi	r22, 0x40	; 64
     41a:	85 e0       	ldi	r24, 0x05	; 5
     41c:	0e 94 cf 14 	call	0x299e	; 0x299e <sysclk_enable_module>
     420:	21 cf       	rjmp	.-446    	; 0x264 <usart_init_rs232+0xb6>
     422:	60 e4       	ldi	r22, 0x40	; 64
     424:	83 e0       	ldi	r24, 0x03	; 3
     426:	0e 94 cf 14 	call	0x299e	; 0x299e <sysclk_enable_module>
     42a:	1c cf       	rjmp	.-456    	; 0x264 <usart_init_rs232+0xb6>
     42c:	64 e0       	ldi	r22, 0x04	; 4
     42e:	80 e0       	ldi	r24, 0x00	; 0
     430:	0e 94 cf 14 	call	0x299e	; 0x299e <sysclk_enable_module>
     434:	17 cf       	rjmp	.-466    	; 0x264 <usart_init_rs232+0xb6>
     436:	62 e0       	ldi	r22, 0x02	; 2
     438:	80 e0       	ldi	r24, 0x00	; 0
     43a:	0e 94 cf 14 	call	0x299e	; 0x299e <sysclk_enable_module>
     43e:	12 cf       	rjmp	.-476    	; 0x264 <usart_init_rs232+0xb6>
     440:	61 e0       	ldi	r22, 0x01	; 1
     442:	81 e0       	ldi	r24, 0x01	; 1
     444:	0e 94 cf 14 	call	0x299e	; 0x299e <sysclk_enable_module>
     448:	0d cf       	rjmp	.-486    	; 0x264 <usart_init_rs232+0xb6>
     44a:	62 e0       	ldi	r22, 0x02	; 2
     44c:	81 e0       	ldi	r24, 0x01	; 1
     44e:	0e 94 cf 14 	call	0x299e	; 0x299e <sysclk_enable_module>
     452:	08 cf       	rjmp	.-496    	; 0x264 <usart_init_rs232+0xb6>
     454:	61 e0       	ldi	r22, 0x01	; 1
     456:	83 e0       	ldi	r24, 0x03	; 3
     458:	0e 94 cf 14 	call	0x299e	; 0x299e <sysclk_enable_module>
     45c:	03 cf       	rjmp	.-506    	; 0x264 <usart_init_rs232+0xb6>
     45e:	61 e0       	ldi	r22, 0x01	; 1
     460:	84 e0       	ldi	r24, 0x04	; 4
     462:	0e 94 cf 14 	call	0x299e	; 0x299e <sysclk_enable_module>
     466:	fe ce       	rjmp	.-516    	; 0x264 <usart_init_rs232+0xb6>
     468:	61 e0       	ldi	r22, 0x01	; 1
     46a:	85 e0       	ldi	r24, 0x05	; 5
     46c:	0e 94 cf 14 	call	0x299e	; 0x299e <sysclk_enable_module>
     470:	f9 ce       	rjmp	.-526    	; 0x264 <usart_init_rs232+0xb6>
     472:	62 e0       	ldi	r22, 0x02	; 2
     474:	83 e0       	ldi	r24, 0x03	; 3
     476:	0e 94 cf 14 	call	0x299e	; 0x299e <sysclk_enable_module>
     47a:	f4 ce       	rjmp	.-536    	; 0x264 <usart_init_rs232+0xb6>
     47c:	64 e0       	ldi	r22, 0x04	; 4
     47e:	83 e0       	ldi	r24, 0x03	; 3
     480:	0e 94 cf 14 	call	0x299e	; 0x299e <sysclk_enable_module>
     484:	ef ce       	rjmp	.-546    	; 0x264 <usart_init_rs232+0xb6>
     486:	68 e0       	ldi	r22, 0x08	; 8
     488:	83 e0       	ldi	r24, 0x03	; 3
     48a:	0e 94 cf 14 	call	0x299e	; 0x299e <sysclk_enable_module>
     48e:	ea ce       	rjmp	.-556    	; 0x264 <usart_init_rs232+0xb6>
     490:	68 e0       	ldi	r22, 0x08	; 8
     492:	84 e0       	ldi	r24, 0x04	; 4
     494:	0e 94 cf 14 	call	0x299e	; 0x299e <sysclk_enable_module>
     498:	e5 ce       	rjmp	.-566    	; 0x264 <usart_init_rs232+0xb6>
     49a:	60 e1       	ldi	r22, 0x10	; 16
     49c:	83 e0       	ldi	r24, 0x03	; 3
     49e:	0e 94 cf 14 	call	0x299e	; 0x299e <sysclk_enable_module>
     4a2:	e0 ce       	rjmp	.-576    	; 0x264 <usart_init_rs232+0xb6>
     4a4:	60 e1       	ldi	r22, 0x10	; 16
     4a6:	84 e0       	ldi	r24, 0x04	; 4
     4a8:	0e 94 cf 14 	call	0x299e	; 0x299e <sysclk_enable_module>
     4ac:	db ce       	rjmp	.-586    	; 0x264 <usart_init_rs232+0xb6>
     4ae:	d7 01       	movw	r26, r14
     4b0:	c6 01       	movw	r24, r12
     4b2:	88 0f       	add	r24, r24
     4b4:	99 1f       	adc	r25, r25
     4b6:	aa 1f       	adc	r26, r26
     4b8:	bb 1f       	adc	r27, r27
     4ba:	88 0f       	add	r24, r24
     4bc:	99 1f       	adc	r25, r25
     4be:	aa 1f       	adc	r26, r26
     4c0:	bb 1f       	adc	r27, r27
     4c2:	88 0f       	add	r24, r24
     4c4:	99 1f       	adc	r25, r25
     4c6:	aa 1f       	adc	r26, r26
     4c8:	bb 1f       	adc	r27, r27
     4ca:	88 1a       	sub	r8, r24
     4cc:	99 0a       	sbc	r9, r25
     4ce:	aa 0a       	sbc	r10, r26
     4d0:	bb 0a       	sbc	r11, r27
     4d2:	10 e9       	ldi	r17, 0x90	; 144
     4d4:	89 ef       	ldi	r24, 0xF9	; 249
     4d6:	9f ef       	ldi	r25, 0xFF	; 255
     4d8:	2d ef       	ldi	r18, 0xFD	; 253
     4da:	3f ef       	ldi	r19, 0xFF	; 255
     4dc:	a9 01       	movw	r20, r18
     4de:	48 1b       	sub	r20, r24
     4e0:	59 0b       	sbc	r21, r25
     4e2:	04 c0       	rjmp	.+8      	; 0x4ec <__LOCK_REGION_LENGTH__+0xec>
     4e4:	88 0c       	add	r8, r8
     4e6:	99 1c       	adc	r9, r9
     4e8:	aa 1c       	adc	r10, r10
     4ea:	bb 1c       	adc	r11, r11
     4ec:	4a 95       	dec	r20
     4ee:	d2 f7       	brpl	.-12     	; 0x4e4 <__LOCK_REGION_LENGTH__+0xe4>
     4f0:	d7 01       	movw	r26, r14
     4f2:	c6 01       	movw	r24, r12
     4f4:	b6 95       	lsr	r27
     4f6:	a7 95       	ror	r26
     4f8:	97 95       	ror	r25
     4fa:	87 95       	ror	r24
     4fc:	bc 01       	movw	r22, r24
     4fe:	cd 01       	movw	r24, r26
     500:	68 0d       	add	r22, r8
     502:	79 1d       	adc	r23, r9
     504:	8a 1d       	adc	r24, r10
     506:	9b 1d       	adc	r25, r11
     508:	a7 01       	movw	r20, r14
     50a:	96 01       	movw	r18, r12
     50c:	0e 94 51 1b 	call	0x36a2	; 0x36a2 <__udivmodsi4>
     510:	75 cf       	rjmp	.-278    	; 0x3fc <usart_init_rs232+0x24e>
     512:	2a ef       	ldi	r18, 0xFA	; 250
     514:	82 2f       	mov	r24, r18
     516:	02 2e       	mov	r0, r18
     518:	00 0c       	add	r0, r0
     51a:	99 0b       	sbc	r25, r25
     51c:	12 2f       	mov	r17, r18
     51e:	12 95       	swap	r17
     520:	10 7f       	andi	r17, 0xF0	; 240
     522:	b7 01       	movw	r22, r14
     524:	a6 01       	movw	r20, r12
     526:	44 0f       	add	r20, r20
     528:	55 1f       	adc	r21, r21
     52a:	66 1f       	adc	r22, r22
     52c:	77 1f       	adc	r23, r23
     52e:	44 0f       	add	r20, r20
     530:	55 1f       	adc	r21, r21
     532:	66 1f       	adc	r22, r22
     534:	77 1f       	adc	r23, r23
     536:	44 0f       	add	r20, r20
     538:	55 1f       	adc	r21, r21
     53a:	66 1f       	adc	r22, r22
     53c:	77 1f       	adc	r23, r23
     53e:	a0 e1       	ldi	r26, 0x10	; 16
     540:	8a 2e       	mov	r8, r26
     542:	a5 e7       	ldi	r26, 0x75	; 117
     544:	9a 2e       	mov	r9, r26
     546:	a0 e7       	ldi	r26, 0x70	; 112
     548:	aa 2e       	mov	r10, r26
     54a:	b1 2c       	mov	r11, r1
     54c:	84 1a       	sub	r8, r20
     54e:	95 0a       	sbc	r9, r21
     550:	a6 0a       	sbc	r10, r22
     552:	b7 0a       	sbc	r11, r23
     554:	2e 3f       	cpi	r18, 0xFE	; 254
     556:	0c f4       	brge	.+2      	; 0x55a <__LOCK_REGION_LENGTH__+0x15a>
     558:	bf cf       	rjmp	.-130    	; 0x4d8 <__LOCK_REGION_LENGTH__+0xd8>
     55a:	03 96       	adiw	r24, 0x03	; 3
     55c:	a7 01       	movw	r20, r14
     55e:	96 01       	movw	r18, r12
     560:	04 c0       	rjmp	.+8      	; 0x56a <__LOCK_REGION_LENGTH__+0x16a>
     562:	22 0f       	add	r18, r18
     564:	33 1f       	adc	r19, r19
     566:	44 1f       	adc	r20, r20
     568:	55 1f       	adc	r21, r21
     56a:	8a 95       	dec	r24
     56c:	d2 f7       	brpl	.-12     	; 0x562 <__LOCK_REGION_LENGTH__+0x162>
     56e:	da 01       	movw	r26, r20
     570:	c9 01       	movw	r24, r18
     572:	b6 95       	lsr	r27
     574:	a7 95       	ror	r26
     576:	97 95       	ror	r25
     578:	87 95       	ror	r24
     57a:	bc 01       	movw	r22, r24
     57c:	cd 01       	movw	r24, r26
     57e:	68 0d       	add	r22, r8
     580:	79 1d       	adc	r23, r9
     582:	8a 1d       	adc	r24, r10
     584:	9b 1d       	adc	r25, r11
     586:	0e 94 51 1b 	call	0x36a2	; 0x36a2 <__udivmodsi4>
     58a:	38 cf       	rjmp	.-400    	; 0x3fc <usart_init_rs232+0x24e>
     58c:	2b ef       	ldi	r18, 0xFB	; 251
     58e:	c2 cf       	rjmp	.-124    	; 0x514 <__LOCK_REGION_LENGTH__+0x114>
     590:	2c ef       	ldi	r18, 0xFC	; 252
     592:	c0 cf       	rjmp	.-128    	; 0x514 <__LOCK_REGION_LENGTH__+0x114>
     594:	2d ef       	ldi	r18, 0xFD	; 253
     596:	be cf       	rjmp	.-132    	; 0x514 <__LOCK_REGION_LENGTH__+0x114>
     598:	2e ef       	ldi	r18, 0xFE	; 254
     59a:	bc cf       	rjmp	.-136    	; 0x514 <__LOCK_REGION_LENGTH__+0x114>
     59c:	2f ef       	ldi	r18, 0xFF	; 255
     59e:	ba cf       	rjmp	.-140    	; 0x514 <__LOCK_REGION_LENGTH__+0x114>
     5a0:	80 e0       	ldi	r24, 0x00	; 0
     5a2:	28 2f       	mov	r18, r24
     5a4:	08 2e       	mov	r0, r24
     5a6:	00 0c       	add	r0, r0
     5a8:	33 0b       	sbc	r19, r19
     5aa:	2d 5f       	subi	r18, 0xFD	; 253
     5ac:	3f 4f       	sbci	r19, 0xFF	; 255
     5ae:	18 2f       	mov	r17, r24
     5b0:	12 95       	swap	r17
     5b2:	10 7f       	andi	r17, 0xF0	; 240
     5b4:	08 cf       	rjmp	.-496    	; 0x3c6 <usart_init_rs232+0x218>
     5b6:	81 e0       	ldi	r24, 0x01	; 1
     5b8:	f4 cf       	rjmp	.-24     	; 0x5a2 <__LOCK_REGION_LENGTH__+0x1a2>
     5ba:	82 e0       	ldi	r24, 0x02	; 2
     5bc:	f2 cf       	rjmp	.-28     	; 0x5a2 <__LOCK_REGION_LENGTH__+0x1a2>
     5be:	83 e0       	ldi	r24, 0x03	; 3
     5c0:	f0 cf       	rjmp	.-32     	; 0x5a2 <__LOCK_REGION_LENGTH__+0x1a2>
     5c2:	84 e0       	ldi	r24, 0x04	; 4
     5c4:	ee cf       	rjmp	.-36     	; 0x5a2 <__LOCK_REGION_LENGTH__+0x1a2>
     5c6:	85 e0       	ldi	r24, 0x05	; 5
     5c8:	ec cf       	rjmp	.-40     	; 0x5a2 <__LOCK_REGION_LENGTH__+0x1a2>
     5ca:	86 e0       	ldi	r24, 0x06	; 6
     5cc:	ea cf       	rjmp	.-44     	; 0x5a2 <__LOCK_REGION_LENGTH__+0x1a2>

000005ce <usart_putchar>:
 * \param c The data to send.
 *
 * \return STATUS_OK
 */
enum status_code usart_putchar(USART_t *usart, uint8_t c)
{
     5ce:	fc 01       	movw	r30, r24
 *
 * \param usart The USART module.
 */
static inline bool usart_data_register_is_empty(USART_t * usart)
{
	return (usart)->STATUS & USART_DREIF_bm;
     5d0:	91 81       	ldd	r25, Z+1	; 0x01
	while (usart_data_register_is_empty(usart) == false) {
     5d2:	95 ff       	sbrs	r25, 5
     5d4:	fd cf       	rjmp	.-6      	; 0x5d0 <usart_putchar+0x2>
	}
	
	(usart)->DATA = c;
     5d6:	60 83       	st	Z, r22
	return STATUS_OK;
}
     5d8:	80 e0       	ldi	r24, 0x00	; 0
     5da:	90 e0       	ldi	r25, 0x00	; 0
     5dc:	08 95       	ret

000005de <usart_getchar>:
 * \param usart The USART module.
 *
 * \return The received data.
 */
uint8_t usart_getchar(USART_t *usart)
{
     5de:	fc 01       	movw	r30, r24
 *
 * \param usart The USART module.
 */
static inline bool usart_rx_is_complete(USART_t * usart)
{
	return (usart)->STATUS & USART_RXCIF_bm;
     5e0:	91 81       	ldd	r25, Z+1	; 0x01
	while (usart_rx_is_complete(usart) == false) {
     5e2:	97 ff       	sbrs	r25, 7
     5e4:	fd cf       	rjmp	.-6      	; 0x5e0 <usart_getchar+0x2>
	}
	
	return ((uint8_t)(usart)->DATA);
     5e6:	80 81       	ld	r24, Z
}
     5e8:	08 95       	ret

000005ea <hex_decode>:
 */ 
#include <stdint-gcc.h>
char hex_lookup[16] = {'0', '1', '2', '3', '4', '5', '6', '7', '8', '9', 'A', 'B', 'C', 'D', 'E', 'F'};

uint8_t* hex_decode(const char *in, int len,uint8_t *out)//将ASCII数据转化为真实的数字
{
     5ea:	0f 93       	push	r16
     5ec:	1f 93       	push	r17
     5ee:	cf 93       	push	r28
     5f0:	df 93       	push	r29
	unsigned int i, t, hn, ln;

	for (t = 0,i = 0; i < len; i+=2,++t)
     5f2:	61 15       	cp	r22, r1
     5f4:	71 05       	cpc	r23, r1
     5f6:	91 f1       	breq	.+100    	; 0x65c <hex_decode+0x72>
     5f8:	dc 01       	movw	r26, r24
     5fa:	8a 01       	movw	r16, r20
     5fc:	c0 e0       	ldi	r28, 0x00	; 0
     5fe:	d0 e0       	ldi	r29, 0x00	; 0
     600:	19 c0       	rjmp	.+50     	; 0x634 <hex_decode+0x4a>
	{
		hn = in[i] > '9' ? (in[i]|32) - 'a' + 10 : in[i] - '0';//将16进制转化为10进制，并且忽略大小写的区别比如A和a
		ln = in[i+1] > '9' ? (in[i+1]|32) - 'a' + 10 : in[i+1] - '0';
		out[t] = (hn << 4 ) | ln;
     602:	e0 62       	ori	r30, 0x20	; 32
     604:	0e 2e       	mov	r0, r30
     606:	00 0c       	add	r0, r0
     608:	ff 0b       	sbc	r31, r31
     60a:	e7 55       	subi	r30, 0x57	; 87
     60c:	f1 09       	sbc	r31, r1
     60e:	e2 95       	swap	r30
     610:	e0 7f       	andi	r30, 0xF0	; 240
     612:	2a 33       	cpi	r18, 0x3A	; 58
     614:	ec f0       	brlt	.+58     	; 0x650 <hex_decode+0x66>
     616:	20 62       	ori	r18, 0x20	; 32
     618:	02 2e       	mov	r0, r18
     61a:	00 0c       	add	r0, r0
     61c:	33 0b       	sbc	r19, r19
     61e:	27 55       	subi	r18, 0x57	; 87
     620:	31 09       	sbc	r19, r1
     622:	2e 2b       	or	r18, r30
     624:	f8 01       	movw	r30, r16
     626:	21 93       	st	Z+, r18
     628:	8f 01       	movw	r16, r30

uint8_t* hex_decode(const char *in, int len,uint8_t *out)//将ASCII数据转化为真实的数字
{
	unsigned int i, t, hn, ln;

	for (t = 0,i = 0; i < len; i+=2,++t)
     62a:	22 96       	adiw	r28, 0x02	; 2
     62c:	12 96       	adiw	r26, 0x02	; 2
     62e:	c6 17       	cp	r28, r22
     630:	d7 07       	cpc	r29, r23
     632:	a0 f4       	brcc	.+40     	; 0x65c <hex_decode+0x72>
	{
		hn = in[i] > '9' ? (in[i]|32) - 'a' + 10 : in[i] - '0';//将16进制转化为10进制，并且忽略大小写的区别比如A和a
     634:	ec 91       	ld	r30, X
		ln = in[i+1] > '9' ? (in[i+1]|32) - 'a' + 10 : in[i+1] - '0';
     636:	11 96       	adiw	r26, 0x01	; 1
     638:	2c 91       	ld	r18, X
     63a:	11 97       	sbiw	r26, 0x01	; 1
		out[t] = (hn << 4 ) | ln;
     63c:	ea 33       	cpi	r30, 0x3A	; 58
     63e:	0c f7       	brge	.-62     	; 0x602 <hex_decode+0x18>
     640:	0e 2e       	mov	r0, r30
     642:	00 0c       	add	r0, r0
     644:	ff 0b       	sbc	r31, r31
     646:	f0 97       	sbiw	r30, 0x30	; 48
     648:	e2 95       	swap	r30
     64a:	e0 7f       	andi	r30, 0xF0	; 240
     64c:	2a 33       	cpi	r18, 0x3A	; 58
     64e:	1c f7       	brge	.-58     	; 0x616 <hex_decode+0x2c>
     650:	02 2e       	mov	r0, r18
     652:	00 0c       	add	r0, r0
     654:	33 0b       	sbc	r19, r19
     656:	20 53       	subi	r18, 0x30	; 48
     658:	31 09       	sbc	r19, r1
     65a:	e3 cf       	rjmp	.-58     	; 0x622 <hex_decode+0x38>
	}
	return out;
}
     65c:	ca 01       	movw	r24, r20
     65e:	df 91       	pop	r29
     660:	cf 91       	pop	r28
     662:	1f 91       	pop	r17
     664:	0f 91       	pop	r16
     666:	08 95       	ret

00000668 <hex_print>:

void hex_print(const uint8_t *in, int len, char *out)//将数字转化为ASCII
{
     668:	cf 93       	push	r28
     66a:	df 93       	push	r29
	unsigned int i,j;
	j=0;
	for (i=0; i < len; i++)
     66c:	61 15       	cp	r22, r1
     66e:	71 05       	cpc	r23, r1
     670:	19 f1       	breq	.+70     	; 0x6b8 <hex_print+0x50>
     672:	ea 01       	movw	r28, r20
     674:	dc 01       	movw	r26, r24
     676:	86 0f       	add	r24, r22
     678:	97 1f       	adc	r25, r23
     67a:	9d 01       	movw	r18, r26
	{
		out[j++] = hex_lookup[in[i] >> 4];
     67c:	ed 91       	ld	r30, X+
     67e:	e2 95       	swap	r30
     680:	ef 70       	andi	r30, 0x0F	; 15
     682:	f0 e0       	ldi	r31, 0x00	; 0
     684:	ea 5f       	subi	r30, 0xFA	; 250
     686:	ff 4d       	sbci	r31, 0xDF	; 223
     688:	e0 81       	ld	r30, Z
     68a:	e8 83       	st	Y, r30
		out[j++] = hex_lookup[in[i] & 0x0F];
     68c:	f9 01       	movw	r30, r18
     68e:	20 81       	ld	r18, Z
     690:	e2 2f       	mov	r30, r18
     692:	ef 70       	andi	r30, 0x0F	; 15
     694:	f0 e0       	ldi	r31, 0x00	; 0
     696:	ea 5f       	subi	r30, 0xFA	; 250
     698:	ff 4d       	sbci	r31, 0xDF	; 223
     69a:	20 81       	ld	r18, Z
     69c:	29 83       	std	Y+1, r18	; 0x01
     69e:	22 96       	adiw	r28, 0x02	; 2

void hex_print(const uint8_t *in, int len, char *out)//将数字转化为ASCII
{
	unsigned int i,j;
	j=0;
	for (i=0; i < len; i++)
     6a0:	a8 17       	cp	r26, r24
     6a2:	b9 07       	cpc	r27, r25
     6a4:	51 f7       	brne	.-44     	; 0x67a <hex_print+0x12>
     6a6:	66 0f       	add	r22, r22
     6a8:	77 1f       	adc	r23, r23
	{
		out[j++] = hex_lookup[in[i] >> 4];
		out[j++] = hex_lookup[in[i] & 0x0F];
	}
	out[j] = 0;
     6aa:	fa 01       	movw	r30, r20
     6ac:	e6 0f       	add	r30, r22
     6ae:	f7 1f       	adc	r31, r23
     6b0:	10 82       	st	Z, r1
}
     6b2:	df 91       	pop	r29
     6b4:	cf 91       	pop	r28
     6b6:	08 95       	ret
}

void hex_print(const uint8_t *in, int len, char *out)//将数字转化为ASCII
{
	unsigned int i,j;
	j=0;
     6b8:	60 e0       	ldi	r22, 0x00	; 0
     6ba:	70 e0       	ldi	r23, 0x00	; 0
     6bc:	f6 cf       	rjmp	.-20     	; 0x6aa <hex_print+0x42>

000006be <timeConsum>:
	//tc_write_clock_source(&TCC0,TC_CLKSEL_DIV1_gc);//开始计时
}

static void timeConsum(void)
{
	timeCount++;
     6be:	80 91 20 22 	lds	r24, 0x2220	; 0x802220 <timeCount>
     6c2:	90 91 21 22 	lds	r25, 0x2221	; 0x802221 <timeCount+0x1>
     6c6:	01 96       	adiw	r24, 0x01	; 1
     6c8:	80 93 20 22 	sts	0x2220, r24	; 0x802220 <timeCount>
     6cc:	90 93 21 22 	sts	0x2221, r25	; 0x802221 <timeCount+0x1>
	clkCount++;
     6d0:	80 91 1e 22 	lds	r24, 0x221E	; 0x80221e <__data_end>
     6d4:	90 91 1f 22 	lds	r25, 0x221F	; 0x80221f <__data_end+0x1>
     6d8:	01 96       	adiw	r24, 0x01	; 1
     6da:	80 93 1e 22 	sts	0x221E, r24	; 0x80221e <__data_end>
     6de:	90 93 1f 22 	sts	0x221F, r25	; 0x80221f <__data_end+0x1>
 * \param tc Pointer to TC module.
 * \note  OVFIF is cleared
 */
static inline void tc_clear_overflow(volatile void *tc)
{
	((TC0_t *)tc)->INTFLAGS |= TC0_OVFIF_bm;
     6e2:	e0 e0       	ldi	r30, 0x00	; 0
     6e4:	f8 e0       	ldi	r31, 0x08	; 8
     6e6:	84 85       	ldd	r24, Z+12	; 0x0c
     6e8:	81 60       	ori	r24, 0x01	; 1
     6ea:	84 87       	std	Z+12, r24	; 0x0c
     6ec:	08 95       	ret

000006ee <CWPlatInit>:
	}
	return 1;
}

void CWPlatInit( void )
{
     6ee:	cf 93       	push	r28
     6f0:	df 93       	push	r29
     6f2:	cd b7       	in	r28, 0x3d	; 61
     6f4:	de b7       	in	r29, 0x3e	; 62
     6f6:	27 97       	sbiw	r28, 0x07	; 7
     6f8:	cd bf       	out	0x3d, r28	; 61
     6fa:	de bf       	out	0x3e, r29	; 62
	//时钟初始化,使用外部时钟，7370000 hz
	sysclk_init();
     6fc:	0e 94 9e 14 	call	0x293c	; 0x293c <sysclk_init>
		enum ioport_direction dir)
{
	PORT_t *base = arch_ioport_pin_to_base(pin);

	if (dir == IOPORT_DIR_OUTPUT) {
		base->DIRSET = arch_ioport_pin_to_mask(pin);
     700:	e0 e4       	ldi	r30, 0x40	; 64
     702:	f6 e0       	ldi	r31, 0x06	; 6
     704:	88 e0       	ldi	r24, 0x08	; 8
     706:	81 83       	std	Z+1, r24	; 0x01
	} else if (dir == IOPORT_DIR_INPUT) {
		base->DIRCLR = arch_ioport_pin_to_mask(pin);
     708:	84 e0       	ldi	r24, 0x04	; 4
     70a:	82 83       	std	Z+2, r24	; 0x02
		enum ioport_direction dir)
{
	PORT_t *base = arch_ioport_pin_to_base(pin);

	if (dir == IOPORT_DIR_OUTPUT) {
		base->DIRSET = arch_ioport_pin_to_mask(pin);
     70c:	e0 e0       	ldi	r30, 0x00	; 0
     70e:	f6 e0       	ldi	r31, 0x06	; 6
     710:	81 e0       	ldi	r24, 0x01	; 1
     712:	81 83       	std	Z+1, r24	; 0x01
     714:	80 e2       	ldi	r24, 0x20	; 32
     716:	81 83       	std	Z+1, r24	; 0x01
	PORT_t *base = arch_ioport_pin_to_base(pin);

	if (level) {
		base->OUTSET = arch_ioport_pin_to_mask(pin);
	} else {
		base->OUTCLR = arch_ioport_pin_to_mask(pin);
     718:	86 83       	std	Z+6, r24	; 0x06
		enum ioport_direction dir)
{
	PORT_t *base = arch_ioport_pin_to_base(pin);

	if (dir == IOPORT_DIR_OUTPUT) {
		base->DIRSET = arch_ioport_pin_to_mask(pin);
     71a:	80 e4       	ldi	r24, 0x40	; 64
     71c:	81 83       	std	Z+1, r24	; 0x01
		bool level)
{
	PORT_t *base = arch_ioport_pin_to_base(pin);

	if (level) {
		base->OUTSET = arch_ioport_pin_to_mask(pin);
     71e:	85 83       	std	Z+5, r24	; 0x05
static inline bool usart_serial_init(usart_if usart, const
		usart_serial_options_t *options)
{
	// USART options.
	usart_rs232_options_t usart_rs232_options;
	usart_rs232_options.charlength   = options->charlength;
     720:	e6 e1       	ldi	r30, 0x16	; 22
     722:	f0 e2       	ldi	r31, 0x20	; 32
     724:	84 81       	ldd	r24, Z+4	; 0x04
     726:	8d 83       	std	Y+5, r24	; 0x05
	usart_rs232_options.paritytype   = options->paritytype;
     728:	85 81       	ldd	r24, Z+5	; 0x05
     72a:	8e 83       	std	Y+6, r24	; 0x06
	usart_rs232_options.stopbits     = options->stopbits;
     72c:	86 81       	ldd	r24, Z+6	; 0x06
     72e:	8f 83       	std	Y+7, r24	; 0x07
	usart_rs232_options.baudrate     = options->baudrate;
     730:	80 81       	ld	r24, Z
     732:	91 81       	ldd	r25, Z+1	; 0x01
     734:	a2 81       	ldd	r26, Z+2	; 0x02
     736:	b3 81       	ldd	r27, Z+3	; 0x03
     738:	89 83       	std	Y+1, r24	; 0x01
     73a:	9a 83       	std	Y+2, r25	; 0x02
     73c:	ab 83       	std	Y+3, r26	; 0x03
     73e:	bc 83       	std	Y+4, r27	; 0x04

#ifdef USARTC0
	if((uint16_t)usart == (uint16_t)&USARTC0) {
		sysclk_enable_module(SYSCLK_PORT_C,PR_USART0_bm);
     740:	60 e1       	ldi	r22, 0x10	; 16
     742:	83 e0       	ldi	r24, 0x03	; 3
     744:	0e 94 cf 14 	call	0x299e	; 0x299e <sysclk_enable_module>
#ifdef USARTF1
	if((uint16_t)usart == (uint16_t)&USARTF1) {
		sysclk_enable_module(SYSCLK_PORT_F,PR_USART1_bm);
	}
#endif
	if (usart_init_rs232(usart, &usart_rs232_options)) {
     748:	be 01       	movw	r22, r28
     74a:	6f 5f       	subi	r22, 0xFF	; 255
     74c:	7f 4f       	sbci	r23, 0xFF	; 255
     74e:	80 ea       	ldi	r24, 0xA0	; 160
     750:	98 e0       	ldi	r25, 0x08	; 8
     752:	2d dd       	rcall	.-1446   	; 0x1ae <usart_init_rs232>
 * Enables all interrupt levels, with vectors located in the application section
 * and fixed priority scheduling.
 */
static inline void pmic_init(void)
{
	PMIC.CTRL = PMIC_LVL_LOW | PMIC_LVL_MEDIUM |
     754:	87 e0       	ldi	r24, 0x07	; 7
     756:	80 93 a2 00 	sts	0x00A2, r24	; 0x8000a2 <__TEXT_REGION_LENGTH__+0x7000a2>
	};
	usart_serial_init(USART_SERIAL, &usart_options);
	
	//定时器初始化设置
	pmic_init();
	tc_enable(&TCC0);
     75a:	80 e0       	ldi	r24, 0x00	; 0
     75c:	98 e0       	ldi	r25, 0x08	; 8
     75e:	0e 94 c3 18 	call	0x3186	; 0x3186 <tc_enable>
	tc_set_overflow_interrupt_callback(&TCC0, timeConsum);
     762:	6f e5       	ldi	r22, 0x5F	; 95
     764:	73 e0       	ldi	r23, 0x03	; 3
     766:	80 e0       	ldi	r24, 0x00	; 0
     768:	98 e0       	ldi	r25, 0x08	; 8
     76a:	0e 94 11 19 	call	0x3222	; 0x3222 <tc_set_overflow_interrupt_callback>
 * \param tc Pointer to TC module.
 * \param wgm : waveform generator
 */
static inline void tc_set_wgm(volatile void *tc, enum tc_wg_mode_t wgm)
{
	((TC0_t *)tc)->CTRLB = (((TC0_t *)tc)->CTRLB & ~TC0_WGMODE_gm) | wgm;
     76e:	e0 e0       	ldi	r30, 0x00	; 0
     770:	f8 e0       	ldi	r31, 0x08	; 8
     772:	81 81       	ldd	r24, Z+1	; 0x01
     774:	88 7f       	andi	r24, 0xF8	; 248
     776:	81 83       	std	Z+1, r24	; 0x01
 * \param tc Pointer to TC module.
 * \param per_value Period value : PER
 */
static inline void tc_write_period(volatile void *tc, uint16_t per_value)
{
	((TC0_t *)tc)->PER = per_value;
     778:	81 ee       	ldi	r24, 0xE1	; 225
     77a:	92 e0       	ldi	r25, 0x02	; 2
     77c:	86 a3       	std	Z+38, r24	; 0x26
     77e:	97 a3       	std	Z+39, r25	; 0x27
 * \note  Configures OVFINTLVL in INTCTRLA
 */
static inline void tc_set_overflow_interrupt_level(volatile void *tc,
		enum TC_INT_LEVEL_t level)
{
	((TC0_t *)tc)->INTCTRLA = ((TC0_t *)tc)->INTCTRLA & ~TC0_OVFINTLVL_gm;
     780:	86 81       	ldd	r24, Z+6	; 0x06
     782:	8c 7f       	andi	r24, 0xFC	; 252
     784:	86 83       	std	Z+6, r24	; 0x06
	((TC0_t *)tc)->INTCTRLA =
			((TC0_t *)tc)->INTCTRLA | (level << TC0_OVFINTLVL_gp);
     786:	86 81       	ldd	r24, Z+6	; 0x06
 */
static inline void tc_set_overflow_interrupt_level(volatile void *tc,
		enum TC_INT_LEVEL_t level)
{
	((TC0_t *)tc)->INTCTRLA = ((TC0_t *)tc)->INTCTRLA & ~TC0_OVFINTLVL_gm;
	((TC0_t *)tc)->INTCTRLA =
     788:	81 60       	ori	r24, 0x01	; 1
     78a:	86 83       	std	Z+6, r24	; 0x06
	tc_set_wgm(&TCC0,TC_WG_NORMAL);
	tc_write_period(&TCC0, BOARD_XOSC_HZ/10000);//0.1ms
	tc_set_overflow_interrupt_level(&TCC0, TC_INT_LVL_LO);
	cpu_irq_enable();
     78c:	78 94       	sei
 * \param dir Timer direction :
 */
static inline void tc_set_direction(volatile void *tc, enum tc_dir_t dir)
{
	if (dir == TC_UP) {
		((TC0_t *)tc)->CTRLFCLR |= ~TC0_DIR_bm;
     78e:	80 85       	ldd	r24, Z+8	; 0x08
     790:	8e 6f       	ori	r24, 0xFE	; 254
     792:	80 87       	std	Z+8, r24	; 0x08
	tc_set_direction(&TCC0,TC_UP);
	//tc_write_clock_source(&TCC0,TC_CLKSEL_DIV1_gc);//开始计时
}
     794:	27 96       	adiw	r28, 0x07	; 7
     796:	cd bf       	out	0x3d, r28	; 61
     798:	de bf       	out	0x3e, r29	; 62
     79a:	df 91       	pop	r29
     79c:	cf 91       	pop	r28
     79e:	08 95       	ret

000007a0 <main>:

int main (void)
{
	uint16_t restClk=0;
	//初始化平台
	CWPlatInit();
     7a0:	a6 df       	rcall	.-180    	; 0x6ee <CWPlatInit>
	
	//加密程序
	uint8_t received_byte; 
	uint8_t ptr=0;
	enum statesel{IDLE,KEY,PLAIN}state;
	state=IDLE;
     7a2:	c0 e0       	ldi	r28, 0x00	; 0
	//初始化平台
	CWPlatInit();
	
	//加密程序
	uint8_t received_byte; 
	uint8_t ptr=0;
     7a4:	10 e0       	ldi	r17, 0x00	; 0
     7a6:	82 e8       	ldi	r24, 0x82	; 130
     7a8:	e8 2e       	mov	r14, r24
     7aa:	82 e2       	ldi	r24, 0x22	; 34
     7ac:	f8 2e       	mov	r15, r24
 * \param data   Data to read
 *
 */
static inline void usart_serial_getchar(usart_if usart, uint8_t *data)
{
	*data = usart_getchar(usart);
     7ae:	80 ea       	ldi	r24, 0xA0	; 160
     7b0:	98 e0       	ldi	r25, 0x08	; 8
     7b2:	15 df       	rcall	.-470    	; 0x5de <usart_getchar>
	state=IDLE;
	
	while(1)
	{
		usart_serial_getchar(USART_SERIAL, &received_byte);
		if (received_byte=='x')
     7b4:	88 37       	cpi	r24, 0x78	; 120
     7b6:	a1 f0       	breq	.+40     	; 0x7e0 <main+0x40>
		{
			ptr=0;
			state=IDLE;
			continue;
		}
		else if (received_byte=='k')
     7b8:	8b 36       	cpi	r24, 0x6B	; 107
     7ba:	a9 f0       	breq	.+42     	; 0x7e6 <main+0x46>
		{
			ptr=0;
			state=KEY;
			continue;
		}
		else if (received_byte=='p')
     7bc:	80 37       	cpi	r24, 0x70	; 112
     7be:	b1 f0       	breq	.+44     	; 0x7ec <main+0x4c>
		{
			ptr=0;
			state=PLAIN;
			continue;
		}
		else if (state==KEY)
     7c0:	c1 30       	cpi	r28, 0x01	; 1
     7c2:	b9 f0       	breq	.+46     	; 0x7f2 <main+0x52>
			else
			{
				asciibuf[ptr++]=received_byte;
			}
		}
		else if (state==PLAIN)
     7c4:	c2 30       	cpi	r28, 0x02	; 2
     7c6:	99 f7       	brne	.-26     	; 0x7ae <main+0xe>
		{
			if ((received_byte=='\n')||(received_byte=='\r'))
     7c8:	8a 30       	cpi	r24, 0x0A	; 10
     7ca:	59 f1       	breq	.+86     	; 0x822 <main+0x82>
     7cc:	8d 30       	cpi	r24, 0x0D	; 13
     7ce:	49 f1       	breq	.+82     	; 0x822 <main+0x82>
				timeCount=0;
				state=IDLE;
			}
			else
			{
				if (ptr>=BUFLEN)
     7d0:	10 34       	cpi	r17, 0x40	; 64
     7d2:	98 f0       	brcs	.+38     	; 0x7fa <main+0x5a>
				{
					state=IDLE;
     7d4:	c0 e0       	ldi	r28, 0x00	; 0
     7d6:	80 ea       	ldi	r24, 0xA0	; 160
     7d8:	98 e0       	ldi	r25, 0x08	; 8
     7da:	01 df       	rcall	.-510    	; 0x5de <usart_getchar>
	state=IDLE;
	
	while(1)
	{
		usart_serial_getchar(USART_SERIAL, &received_byte);
		if (received_byte=='x')
     7dc:	88 37       	cpi	r24, 0x78	; 120
     7de:	61 f7       	brne	.-40     	; 0x7b8 <main+0x18>
		{
			ptr=0;
			state=IDLE;
     7e0:	c0 e0       	ldi	r28, 0x00	; 0
	while(1)
	{
		usart_serial_getchar(USART_SERIAL, &received_byte);
		if (received_byte=='x')
		{
			ptr=0;
     7e2:	10 e0       	ldi	r17, 0x00	; 0
     7e4:	e4 cf       	rjmp	.-56     	; 0x7ae <main+0xe>
			continue;
		}
		else if (received_byte=='k')
		{
			ptr=0;
			state=KEY;
     7e6:	c1 e0       	ldi	r28, 0x01	; 1
			state=IDLE;
			continue;
		}
		else if (received_byte=='k')
		{
			ptr=0;
     7e8:	10 e0       	ldi	r17, 0x00	; 0
     7ea:	e1 cf       	rjmp	.-62     	; 0x7ae <main+0xe>
			continue;
		}
		else if (received_byte=='p')
		{
			ptr=0;
			state=PLAIN;
     7ec:	c2 e0       	ldi	r28, 0x02	; 2
			state=KEY;
			continue;
		}
		else if (received_byte=='p')
		{
			ptr=0;
     7ee:	10 e0       	ldi	r17, 0x00	; 0
     7f0:	de cf       	rjmp	.-68     	; 0x7ae <main+0xe>
			state=PLAIN;
			continue;
		}
		else if (state==KEY)
		{
			if ((received_byte=='\n')||(received_byte=='\r'))
     7f2:	8a 30       	cpi	r24, 0x0A	; 10
     7f4:	49 f0       	breq	.+18     	; 0x808 <main+0x68>
     7f6:	8d 30       	cpi	r24, 0x0D	; 13
     7f8:	39 f0       	breq	.+14     	; 0x808 <main+0x68>
				{
					state=IDLE;
				}
				else
				{
					asciibuf[ptr++]=received_byte;
     7fa:	e1 2f       	mov	r30, r17
     7fc:	f0 e0       	ldi	r31, 0x00	; 0
     7fe:	ee 59       	subi	r30, 0x9E	; 158
     800:	fd 4d       	sbci	r31, 0xDD	; 221
     802:	80 83       	st	Z, r24
     804:	1f 5f       	subi	r17, 0xFF	; 255
     806:	d3 cf       	rjmp	.-90     	; 0x7ae <main+0xe>
		}
		else if (state==KEY)
		{
			if ((received_byte=='\n')||(received_byte=='\r'))
			{
				asciibuf[ptr]=0;
     808:	61 2f       	mov	r22, r17
     80a:	70 e0       	ldi	r23, 0x00	; 0
     80c:	fb 01       	movw	r30, r22
     80e:	ee 59       	subi	r30, 0x9E	; 158
     810:	fd 4d       	sbci	r31, 0xDD	; 221
     812:	10 82       	st	Z, r1
				hex_decode(asciibuf,ptr,key);
     814:	42 e0       	ldi	r20, 0x02	; 2
     816:	53 e2       	ldi	r21, 0x23	; 35
     818:	82 e6       	ldi	r24, 0x62	; 98
     81a:	92 e2       	ldi	r25, 0x22	; 34
     81c:	e6 de       	rcall	.-564    	; 0x5ea <hex_decode>
				state=IDLE;
     81e:	c0 e0       	ldi	r28, 0x00	; 0
     820:	c6 cf       	rjmp	.-116    	; 0x7ae <main+0xe>
		}
		else if (state==PLAIN)
		{
			if ((received_byte=='\n')||(received_byte=='\r'))
			{
				asciibuf[ptr]=0;
     822:	61 2f       	mov	r22, r17
     824:	70 e0       	ldi	r23, 0x00	; 0
     826:	fb 01       	movw	r30, r22
     828:	ee 59       	subi	r30, 0x9E	; 158
     82a:	fd 4d       	sbci	r31, 0xDD	; 221
     82c:	10 82       	st	Z, r1
				hex_decode(asciibuf,ptr,pt);
     82e:	42 ea       	ldi	r20, 0xA2	; 162
     830:	52 e2       	ldi	r21, 0x22	; 34
     832:	82 e6       	ldi	r24, 0x62	; 98
     834:	92 e2       	ldi	r25, 0x22	; 34
     836:	d9 de       	rcall	.-590    	; 0x5ea <hex_decode>
 * \param tc Pointer to TC module.
 * \param cnt_value Counter value :
 */
static inline void tc_write_count(volatile void *tc, uint16_t cnt_value)
{
	((TC0_t *)tc)->CNT = cnt_value;
     838:	10 92 20 08 	sts	0x0820, r1	; 0x800820 <__TEXT_REGION_LENGTH__+0x700820>
     83c:	10 92 21 08 	sts	0x0821, r1	; 0x800821 <__TEXT_REGION_LENGTH__+0x700821>
 */
static inline void tc_write_clock_source(volatile void *tc,
		TC_CLKSEL_t TC_CLKSEL_enum)
{
	((TC0_t *)tc)->CTRLA =
			(((TC0_t *)tc)->CTRLA & ~TC0_CLKSEL_gm) |
     840:	80 91 00 08 	lds	r24, 0x0800	; 0x800800 <__TEXT_REGION_LENGTH__+0x700800>
 * \note Configuring the clock also starts the timer
 */
static inline void tc_write_clock_source(volatile void *tc,
		TC_CLKSEL_t TC_CLKSEL_enum)
{
	((TC0_t *)tc)->CTRLA =
     844:	80 7f       	andi	r24, 0xF0	; 240
     846:	81 60       	ori	r24, 0x01	; 1
     848:	80 93 00 08 	sts	0x0800, r24	; 0x800800 <__TEXT_REGION_LENGTH__+0x700800>
				#ifdef CIPHERLUO
				encLuo(cip,pt);
				#endif
				
				#ifdef CIPHERLUOMASKED
				encLuoMasked(cip,pt);
     84c:	62 ea       	ldi	r22, 0xA2	; 162
     84e:	72 e2       	ldi	r23, 0x22	; 34
     850:	82 ef       	ldi	r24, 0xF2	; 242
     852:	92 e2       	ldi	r25, 0x22	; 34
     854:	0e 94 50 11 	call	0x22a0	; 0x22a0 <encLuoMasked>
 * \param tc Pointer to TC module.
 * \note Output the Counter value CNT
 */
static inline uint16_t tc_read_count(volatile void *tc)
{
	return (((TC0_t *)tc)->CNT);
     858:	80 91 20 08 	lds	r24, 0x0820	; 0x800820 <__TEXT_REGION_LENGTH__+0x700820>
     85c:	90 91 21 08 	lds	r25, 0x0821	; 0x800821 <__TEXT_REGION_LENGTH__+0x700821>
 */
static inline void tc_write_clock_source(volatile void *tc,
		TC_CLKSEL_t TC_CLKSEL_enum)
{
	((TC0_t *)tc)->CTRLA =
			(((TC0_t *)tc)->CTRLA & ~TC0_CLKSEL_gm) |
     860:	80 91 00 08 	lds	r24, 0x0800	; 0x800800 <__TEXT_REGION_LENGTH__+0x700800>
 * \note Configuring the clock also starts the timer
 */
static inline void tc_write_clock_source(volatile void *tc,
		TC_CLKSEL_t TC_CLKSEL_enum)
{
	((TC0_t *)tc)->CTRLA =
     864:	80 7f       	andi	r24, 0xF0	; 240
     866:	80 93 00 08 	sts	0x0800, r24	; 0x800800 <__TEXT_REGION_LENGTH__+0x700800>
				//tc_set_overflow_interrupt_level(&TCC0, TC_INT_LVL_OFF);//停止中断
				tc_write_clock_source(&TCC0,TC_CLKSEL_OFF_gc);//停止计时器
				//ioport_set_pin_low(TRIGGER);//置零 PA0，结束能耗统计
				
				//***********将密文转化为字符*********//
				hex_print(cip,16,asciibuf);
     86a:	42 e6       	ldi	r20, 0x62	; 98
     86c:	52 e2       	ldi	r21, 0x22	; 34
     86e:	60 e1       	ldi	r22, 0x10	; 16
     870:	70 e0       	ldi	r23, 0x00	; 0
     872:	82 ef       	ldi	r24, 0xF2	; 242
     874:	92 e2       	ldi	r25, 0x22	; 34
 *
 * \return Status code
 */
static inline enum status_code usart_serial_putchar(usart_if usart, uint8_t c)
{
	return usart_putchar(usart, c);
     876:	f8 de       	rcall	.-528    	; 0x668 <hex_print>
     878:	62 e7       	ldi	r22, 0x72	; 114
     87a:	80 ea       	ldi	r24, 0xA0	; 160
     87c:	98 e0       	ldi	r25, 0x08	; 8
     87e:	a7 de       	rcall	.-690    	; 0x5ce <usart_putchar>
     880:	c2 e6       	ldi	r28, 0x62	; 98
				//*************串口发送密文***********//
				usart_serial_putchar(USART_SERIAL,'r');
				for(uint8_t i=0;i<32;i++)
				{
					usart_serial_putchar(USART_SERIAL,asciibuf[i]);
     882:	d2 e2       	ldi	r29, 0x22	; 34
     884:	69 91       	ld	r22, Y+
     886:	80 ea       	ldi	r24, 0xA0	; 160
     888:	98 e0       	ldi	r25, 0x08	; 8
				
				//***********将密文转化为字符*********//
				hex_print(cip,16,asciibuf);
				//*************串口发送密文***********//
				usart_serial_putchar(USART_SERIAL,'r');
				for(uint8_t i=0;i<32;i++)
     88a:	a1 de       	rcall	.-702    	; 0x5ce <usart_putchar>
     88c:	ec 16       	cp	r14, r28
     88e:	fd 06       	cpc	r15, r29
     890:	c9 f7       	brne	.-14     	; 0x884 <main+0xe4>
     892:	6a e0       	ldi	r22, 0x0A	; 10
     894:	80 ea       	ldi	r24, 0xA0	; 160
     896:	98 e0       	ldi	r25, 0x08	; 8
     898:	9a de       	rcall	.-716    	; 0x5ce <usart_putchar>
				usart_serial_putchar(USART_SERIAL,'\n');
				
				//sendUint16(timeCount);//返回时间消耗
				//sendUint16(restClk);//返回时间消耗
				//sendUint8(mul_mask_2);
				timeCount=0;
     89a:	10 92 20 22 	sts	0x2220, r1	; 0x802220 <timeCount>
     89e:	10 92 21 22 	sts	0x2221, r1	; 0x802221 <timeCount+0x1>
				state=IDLE;
     8a2:	c0 e0       	ldi	r28, 0x00	; 0
     8a4:	84 cf       	rjmp	.-248    	; 0x7ae <main+0xe>

000008a6 <roundKeyGen>:
	tempmultiply = (b & 0x01)*a;
	for (int i = 1; i < 8; i++)
	{
		tempmultiply ^= (((b >> i) & 0x01)*temp[i]);
	}
	return tempmultiply;
     8a6:	6f 92       	push	r6
     8a8:	7f 92       	push	r7
     8aa:	8f 92       	push	r8
     8ac:	9f 92       	push	r9
     8ae:	af 92       	push	r10
     8b0:	bf 92       	push	r11
     8b2:	cf 92       	push	r12
     8b4:	df 92       	push	r13
     8b6:	ef 92       	push	r14
     8b8:	ff 92       	push	r15
     8ba:	0f 93       	push	r16
     8bc:	1f 93       	push	r17
     8be:	cf 93       	push	r28
     8c0:	df 93       	push	r29
     8c2:	6b 01       	movw	r12, r22
     8c4:	7c 01       	movw	r14, r24
     8c6:	3a 01       	movw	r6, r20
     8c8:	02 e0       	ldi	r16, 0x02	; 2
     8ca:	13 e2       	ldi	r17, 0x23	; 35
     8cc:	f8 01       	movw	r30, r16
     8ce:	61 91       	ld	r22, Z+
     8d0:	8f 01       	movw	r16, r30
     8d2:	70 e0       	ldi	r23, 0x00	; 0
     8d4:	80 e0       	ldi	r24, 0x00	; 0
     8d6:	90 e0       	ldi	r25, 0x00	; 0
     8d8:	0e 94 38 1a 	call	0x3470	; 0x3470 <__floatunsisf>
     8dc:	20 e0       	ldi	r18, 0x00	; 0
     8de:	30 e0       	ldi	r19, 0x00	; 0
     8e0:	4a e7       	ldi	r20, 0x7A	; 122
     8e2:	54 e4       	ldi	r21, 0x44	; 68
     8e4:	0e 94 a4 19 	call	0x3348	; 0x3348 <__divsf3>
     8e8:	2c e5       	ldi	r18, 0x5C	; 92
     8ea:	3f e8       	ldi	r19, 0x8F	; 143
     8ec:	42 e0       	ldi	r20, 0x02	; 2
     8ee:	5f e3       	ldi	r21, 0x3F	; 63
     8f0:	0e 94 3c 19 	call	0x3278	; 0x3278 <__addsf3>
     8f4:	4b 01       	movw	r8, r22
     8f6:	5c 01       	movw	r10, r24
     8f8:	c4 e1       	ldi	r28, 0x14	; 20
     8fa:	0a c0       	rjmp	.+20     	; 0x910 <roundKeyGen+0x6a>
     8fc:	a5 01       	movw	r20, r10
     8fe:	94 01       	movw	r18, r8
     900:	c7 01       	movw	r24, r14
     902:	b6 01       	movw	r22, r12
     904:	0e 94 a4 19 	call	0x3348	; 0x3348 <__divsf3>
     908:	6b 01       	movw	r12, r22
     90a:	7c 01       	movw	r14, r24
     90c:	c1 50       	subi	r28, 0x01	; 1
     90e:	21 f1       	breq	.+72     	; 0x958 <roundKeyGen+0xb2>
     910:	a7 01       	movw	r20, r14
     912:	96 01       	movw	r18, r12
     914:	c5 01       	movw	r24, r10
     916:	b4 01       	movw	r22, r8
     918:	0e 94 ea 1a 	call	0x35d4	; 0x35d4 <__gesf2>
     91c:	18 16       	cp	r1, r24
     91e:	74 f3       	brlt	.-36     	; 0x8fc <roundKeyGen+0x56>
     920:	a7 01       	movw	r20, r14
     922:	96 01       	movw	r18, r12
     924:	60 e0       	ldi	r22, 0x00	; 0
     926:	70 e0       	ldi	r23, 0x00	; 0
     928:	80 e8       	ldi	r24, 0x80	; 128
     92a:	9f e3       	ldi	r25, 0x3F	; 63
     92c:	0e 94 3b 19 	call	0x3276	; 0x3276 <__subsf3>
     930:	6b 01       	movw	r12, r22
     932:	7c 01       	movw	r14, r24
     934:	a5 01       	movw	r20, r10
     936:	94 01       	movw	r18, r8
     938:	60 e0       	ldi	r22, 0x00	; 0
     93a:	70 e0       	ldi	r23, 0x00	; 0
     93c:	80 e8       	ldi	r24, 0x80	; 128
     93e:	9f e3       	ldi	r25, 0x3F	; 63
     940:	0e 94 3b 19 	call	0x3276	; 0x3276 <__subsf3>
     944:	9b 01       	movw	r18, r22
     946:	ac 01       	movw	r20, r24
     948:	c7 01       	movw	r24, r14
     94a:	b6 01       	movw	r22, r12
     94c:	0e 94 a4 19 	call	0x3348	; 0x3348 <__divsf3>
     950:	6b 01       	movw	r12, r22
     952:	7c 01       	movw	r14, r24
     954:	c1 50       	subi	r28, 0x01	; 1
     956:	e1 f6       	brne	.-72     	; 0x910 <roundKeyGen+0x6a>
     958:	f3 e2       	ldi	r31, 0x23	; 35
     95a:	02 31       	cpi	r16, 0x12	; 18
     95c:	1f 07       	cpc	r17, r31
     95e:	09 f0       	breq	.+2      	; 0x962 <roundKeyGen+0xbc>
     960:	b5 cf       	rjmp	.-150    	; 0x8cc <roundKeyGen+0x26>
     962:	c4 e6       	ldi	r28, 0x64	; 100
     964:	0a c0       	rjmp	.+20     	; 0x97a <roundKeyGen+0xd4>
     966:	a5 01       	movw	r20, r10
     968:	94 01       	movw	r18, r8
     96a:	c7 01       	movw	r24, r14
     96c:	b6 01       	movw	r22, r12
     96e:	0e 94 a4 19 	call	0x3348	; 0x3348 <__divsf3>
     972:	6b 01       	movw	r12, r22
     974:	7c 01       	movw	r14, r24
     976:	c1 50       	subi	r28, 0x01	; 1
     978:	21 f1       	breq	.+72     	; 0x9c2 <roundKeyGen+0x11c>
     97a:	a7 01       	movw	r20, r14
     97c:	96 01       	movw	r18, r12
     97e:	c5 01       	movw	r24, r10
     980:	b4 01       	movw	r22, r8
     982:	0e 94 ea 1a 	call	0x35d4	; 0x35d4 <__gesf2>
     986:	18 16       	cp	r1, r24
     988:	74 f3       	brlt	.-36     	; 0x966 <roundKeyGen+0xc0>
     98a:	a7 01       	movw	r20, r14
     98c:	96 01       	movw	r18, r12
     98e:	60 e0       	ldi	r22, 0x00	; 0
     990:	70 e0       	ldi	r23, 0x00	; 0
     992:	80 e8       	ldi	r24, 0x80	; 128
     994:	9f e3       	ldi	r25, 0x3F	; 63
     996:	0e 94 3b 19 	call	0x3276	; 0x3276 <__subsf3>
     99a:	6b 01       	movw	r12, r22
     99c:	7c 01       	movw	r14, r24
     99e:	a5 01       	movw	r20, r10
     9a0:	94 01       	movw	r18, r8
     9a2:	60 e0       	ldi	r22, 0x00	; 0
     9a4:	70 e0       	ldi	r23, 0x00	; 0
     9a6:	80 e8       	ldi	r24, 0x80	; 128
     9a8:	9f e3       	ldi	r25, 0x3F	; 63
     9aa:	0e 94 3b 19 	call	0x3276	; 0x3276 <__subsf3>
     9ae:	9b 01       	movw	r18, r22
     9b0:	ac 01       	movw	r20, r24
     9b2:	c7 01       	movw	r24, r14
     9b4:	b6 01       	movw	r22, r12
     9b6:	0e 94 a4 19 	call	0x3348	; 0x3348 <__divsf3>
     9ba:	6b 01       	movw	r12, r22
     9bc:	7c 01       	movw	r14, r24
     9be:	c1 50       	subi	r28, 0x01	; 1
     9c0:	e1 f6       	brne	.-72     	; 0x97a <roundKeyGen+0xd4>
     9c2:	e3 01       	movw	r28, r6
     9c4:	83 01       	movw	r16, r6
     9c6:	00 5d       	subi	r16, 0xD0	; 208
     9c8:	1f 4f       	sbci	r17, 0xFF	; 255
     9ca:	16 c0       	rjmp	.+44     	; 0x9f8 <roundKeyGen+0x152>
     9cc:	a5 01       	movw	r20, r10
     9ce:	94 01       	movw	r18, r8
     9d0:	c7 01       	movw	r24, r14
     9d2:	b6 01       	movw	r22, r12
     9d4:	0e 94 a4 19 	call	0x3348	; 0x3348 <__divsf3>
     9d8:	6b 01       	movw	r12, r22
     9da:	7c 01       	movw	r14, r24
     9dc:	20 e0       	ldi	r18, 0x00	; 0
     9de:	30 e0       	ldi	r19, 0x00	; 0
     9e0:	40 e8       	ldi	r20, 0x80	; 128
     9e2:	53 e4       	ldi	r21, 0x43	; 67
     9e4:	c7 01       	movw	r24, r14
     9e6:	b6 01       	movw	r22, r12
     9e8:	0e 94 ee 1a 	call	0x35dc	; 0x35dc <__mulsf3>
     9ec:	0e 94 0c 1a 	call	0x3418	; 0x3418 <__fixunssfsi>
     9f0:	69 93       	st	Y+, r22
     9f2:	0c 17       	cp	r16, r28
     9f4:	1d 07       	cpc	r17, r29
     9f6:	19 f1       	breq	.+70     	; 0xa3e <roundKeyGen+0x198>
     9f8:	a7 01       	movw	r20, r14
     9fa:	96 01       	movw	r18, r12
     9fc:	c5 01       	movw	r24, r10
     9fe:	b4 01       	movw	r22, r8
     a00:	0e 94 ea 1a 	call	0x35d4	; 0x35d4 <__gesf2>
     a04:	18 16       	cp	r1, r24
     a06:	14 f3       	brlt	.-60     	; 0x9cc <roundKeyGen+0x126>
     a08:	a7 01       	movw	r20, r14
     a0a:	96 01       	movw	r18, r12
     a0c:	60 e0       	ldi	r22, 0x00	; 0
     a0e:	70 e0       	ldi	r23, 0x00	; 0
     a10:	80 e8       	ldi	r24, 0x80	; 128
     a12:	9f e3       	ldi	r25, 0x3F	; 63
     a14:	0e 94 3b 19 	call	0x3276	; 0x3276 <__subsf3>
     a18:	6b 01       	movw	r12, r22
     a1a:	7c 01       	movw	r14, r24
     a1c:	a5 01       	movw	r20, r10
     a1e:	94 01       	movw	r18, r8
     a20:	60 e0       	ldi	r22, 0x00	; 0
     a22:	70 e0       	ldi	r23, 0x00	; 0
     a24:	80 e8       	ldi	r24, 0x80	; 128
     a26:	9f e3       	ldi	r25, 0x3F	; 63
     a28:	0e 94 3b 19 	call	0x3276	; 0x3276 <__subsf3>
     a2c:	9b 01       	movw	r18, r22
     a2e:	ac 01       	movw	r20, r24
     a30:	c7 01       	movw	r24, r14
     a32:	b6 01       	movw	r22, r12
     a34:	0e 94 a4 19 	call	0x3348	; 0x3348 <__divsf3>
     a38:	6b 01       	movw	r12, r22
     a3a:	7c 01       	movw	r14, r24
     a3c:	cf cf       	rjmp	.-98     	; 0x9dc <roundKeyGen+0x136>
     a3e:	a7 01       	movw	r20, r14
     a40:	96 01       	movw	r18, r12
     a42:	c5 01       	movw	r24, r10
     a44:	b4 01       	movw	r22, r8
     a46:	0e 94 ea 1a 	call	0x35d4	; 0x35d4 <__gesf2>
     a4a:	18 16       	cp	r1, r24
     a4c:	7c f1       	brlt	.+94     	; 0xaac <roundKeyGen+0x206>
     a4e:	a7 01       	movw	r20, r14
     a50:	96 01       	movw	r18, r12
     a52:	60 e0       	ldi	r22, 0x00	; 0
     a54:	70 e0       	ldi	r23, 0x00	; 0
     a56:	80 e8       	ldi	r24, 0x80	; 128
     a58:	9f e3       	ldi	r25, 0x3F	; 63
     a5a:	0e 94 3b 19 	call	0x3276	; 0x3276 <__subsf3>
     a5e:	6b 01       	movw	r12, r22
     a60:	7c 01       	movw	r14, r24
     a62:	a5 01       	movw	r20, r10
     a64:	94 01       	movw	r18, r8
     a66:	60 e0       	ldi	r22, 0x00	; 0
     a68:	70 e0       	ldi	r23, 0x00	; 0
     a6a:	80 e8       	ldi	r24, 0x80	; 128
     a6c:	9f e3       	ldi	r25, 0x3F	; 63
     a6e:	0e 94 3b 19 	call	0x3276	; 0x3276 <__subsf3>
     a72:	9b 01       	movw	r18, r22
     a74:	ac 01       	movw	r20, r24
     a76:	c7 01       	movw	r24, r14
     a78:	b6 01       	movw	r22, r12
     a7a:	0e 94 a4 19 	call	0x3348	; 0x3348 <__divsf3>
     a7e:	60 93 32 22 	sts	0x2232, r22	; 0x802232 <seed>
     a82:	70 93 33 22 	sts	0x2233, r23	; 0x802233 <seed+0x1>
     a86:	80 93 34 22 	sts	0x2234, r24	; 0x802234 <seed+0x2>
     a8a:	90 93 35 22 	sts	0x2235, r25	; 0x802235 <seed+0x3>
     a8e:	df 91       	pop	r29
     a90:	cf 91       	pop	r28
     a92:	1f 91       	pop	r17
     a94:	0f 91       	pop	r16
     a96:	ff 90       	pop	r15
     a98:	ef 90       	pop	r14
     a9a:	df 90       	pop	r13
     a9c:	cf 90       	pop	r12
     a9e:	bf 90       	pop	r11
     aa0:	af 90       	pop	r10
     aa2:	9f 90       	pop	r9
     aa4:	8f 90       	pop	r8
     aa6:	7f 90       	pop	r7
     aa8:	6f 90       	pop	r6
     aaa:	08 95       	ret
     aac:	a5 01       	movw	r20, r10
     aae:	94 01       	movw	r18, r8
     ab0:	c7 01       	movw	r24, r14
     ab2:	b6 01       	movw	r22, r12
     ab4:	0e 94 a4 19 	call	0x3348	; 0x3348 <__divsf3>
     ab8:	e2 cf       	rjmp	.-60     	; 0xa7e <roundKeyGen+0x1d8>

00000aba <mask_gen>:
     aba:	8f 92       	push	r8
     abc:	9f 92       	push	r9
     abe:	af 92       	push	r10
     ac0:	bf 92       	push	r11
     ac2:	cf 92       	push	r12
     ac4:	df 92       	push	r13
     ac6:	ef 92       	push	r14
     ac8:	ff 92       	push	r15
     aca:	0f 93       	push	r16
     acc:	1f 93       	push	r17
     ace:	cf 93       	push	r28
     ad0:	df 93       	push	r29
     ad2:	4b 01       	movw	r8, r22
     ad4:	5c 01       	movw	r10, r24
     ad6:	c2 e4       	ldi	r28, 0x42	; 66
     ad8:	d3 e2       	ldi	r29, 0x23	; 35
     ada:	59 c1       	rjmp	.+690    	; 0xd8e <mask_gen+0x2d4>
     adc:	a5 01       	movw	r20, r10
     ade:	94 01       	movw	r18, r8
     ae0:	60 e0       	ldi	r22, 0x00	; 0
     ae2:	70 e0       	ldi	r23, 0x00	; 0
     ae4:	80 e8       	ldi	r24, 0x80	; 128
     ae6:	9f e3       	ldi	r25, 0x3F	; 63
     ae8:	0e 94 3b 19 	call	0x3276	; 0x3276 <__subsf3>
     aec:	4b 01       	movw	r8, r22
     aee:	5c 01       	movw	r10, r24
     af0:	a7 01       	movw	r20, r14
     af2:	96 01       	movw	r18, r12
     af4:	60 e0       	ldi	r22, 0x00	; 0
     af6:	70 e0       	ldi	r23, 0x00	; 0
     af8:	80 e8       	ldi	r24, 0x80	; 128
     afa:	9f e3       	ldi	r25, 0x3F	; 63
     afc:	0e 94 3b 19 	call	0x3276	; 0x3276 <__subsf3>
     b00:	9b 01       	movw	r18, r22
     b02:	ac 01       	movw	r20, r24
     b04:	c5 01       	movw	r24, r10
     b06:	b4 01       	movw	r22, r8
     b08:	0e 94 a4 19 	call	0x3348	; 0x3348 <__divsf3>
     b0c:	4b 01       	movw	r8, r22
     b0e:	5c 01       	movw	r10, r24
     b10:	a5 01       	movw	r20, r10
     b12:	94 01       	movw	r18, r8
     b14:	c7 01       	movw	r24, r14
     b16:	b6 01       	movw	r22, r12
     b18:	0e 94 ea 1a 	call	0x35d4	; 0x35d4 <__gesf2>
     b1c:	18 16       	cp	r1, r24
     b1e:	0c f4       	brge	.+2      	; 0xb22 <mask_gen+0x68>
     b20:	11 c5       	rjmp	.+2594   	; 0x1544 <mask_gen+0xa8a>
     b22:	a5 01       	movw	r20, r10
     b24:	94 01       	movw	r18, r8
     b26:	60 e0       	ldi	r22, 0x00	; 0
     b28:	70 e0       	ldi	r23, 0x00	; 0
     b2a:	80 e8       	ldi	r24, 0x80	; 128
     b2c:	9f e3       	ldi	r25, 0x3F	; 63
     b2e:	0e 94 3b 19 	call	0x3276	; 0x3276 <__subsf3>
     b32:	4b 01       	movw	r8, r22
     b34:	5c 01       	movw	r10, r24
     b36:	a7 01       	movw	r20, r14
     b38:	96 01       	movw	r18, r12
     b3a:	60 e0       	ldi	r22, 0x00	; 0
     b3c:	70 e0       	ldi	r23, 0x00	; 0
     b3e:	80 e8       	ldi	r24, 0x80	; 128
     b40:	9f e3       	ldi	r25, 0x3F	; 63
     b42:	0e 94 3b 19 	call	0x3276	; 0x3276 <__subsf3>
     b46:	9b 01       	movw	r18, r22
     b48:	ac 01       	movw	r20, r24
     b4a:	c5 01       	movw	r24, r10
     b4c:	b4 01       	movw	r22, r8
     b4e:	0e 94 a4 19 	call	0x3348	; 0x3348 <__divsf3>
     b52:	4b 01       	movw	r8, r22
     b54:	5c 01       	movw	r10, r24
     b56:	a5 01       	movw	r20, r10
     b58:	94 01       	movw	r18, r8
     b5a:	c7 01       	movw	r24, r14
     b5c:	b6 01       	movw	r22, r12
     b5e:	0e 94 ea 1a 	call	0x35d4	; 0x35d4 <__gesf2>
     b62:	18 16       	cp	r1, r24
     b64:	0c f4       	brge	.+2      	; 0xb68 <mask_gen+0xae>
     b66:	e5 c4       	rjmp	.+2506   	; 0x1532 <mask_gen+0xa78>
     b68:	a5 01       	movw	r20, r10
     b6a:	94 01       	movw	r18, r8
     b6c:	60 e0       	ldi	r22, 0x00	; 0
     b6e:	70 e0       	ldi	r23, 0x00	; 0
     b70:	80 e8       	ldi	r24, 0x80	; 128
     b72:	9f e3       	ldi	r25, 0x3F	; 63
     b74:	0e 94 3b 19 	call	0x3276	; 0x3276 <__subsf3>
     b78:	4b 01       	movw	r8, r22
     b7a:	5c 01       	movw	r10, r24
     b7c:	a7 01       	movw	r20, r14
     b7e:	96 01       	movw	r18, r12
     b80:	60 e0       	ldi	r22, 0x00	; 0
     b82:	70 e0       	ldi	r23, 0x00	; 0
     b84:	80 e8       	ldi	r24, 0x80	; 128
     b86:	9f e3       	ldi	r25, 0x3F	; 63
     b88:	0e 94 3b 19 	call	0x3276	; 0x3276 <__subsf3>
     b8c:	9b 01       	movw	r18, r22
     b8e:	ac 01       	movw	r20, r24
     b90:	c5 01       	movw	r24, r10
     b92:	b4 01       	movw	r22, r8
     b94:	0e 94 a4 19 	call	0x3348	; 0x3348 <__divsf3>
     b98:	4b 01       	movw	r8, r22
     b9a:	5c 01       	movw	r10, r24
     b9c:	a5 01       	movw	r20, r10
     b9e:	94 01       	movw	r18, r8
     ba0:	c7 01       	movw	r24, r14
     ba2:	b6 01       	movw	r22, r12
     ba4:	0e 94 ea 1a 	call	0x35d4	; 0x35d4 <__gesf2>
     ba8:	18 16       	cp	r1, r24
     baa:	0c f4       	brge	.+2      	; 0xbae <mask_gen+0xf4>
     bac:	b9 c4       	rjmp	.+2418   	; 0x1520 <mask_gen+0xa66>
     bae:	a5 01       	movw	r20, r10
     bb0:	94 01       	movw	r18, r8
     bb2:	60 e0       	ldi	r22, 0x00	; 0
     bb4:	70 e0       	ldi	r23, 0x00	; 0
     bb6:	80 e8       	ldi	r24, 0x80	; 128
     bb8:	9f e3       	ldi	r25, 0x3F	; 63
     bba:	0e 94 3b 19 	call	0x3276	; 0x3276 <__subsf3>
     bbe:	4b 01       	movw	r8, r22
     bc0:	5c 01       	movw	r10, r24
     bc2:	a7 01       	movw	r20, r14
     bc4:	96 01       	movw	r18, r12
     bc6:	60 e0       	ldi	r22, 0x00	; 0
     bc8:	70 e0       	ldi	r23, 0x00	; 0
     bca:	80 e8       	ldi	r24, 0x80	; 128
     bcc:	9f e3       	ldi	r25, 0x3F	; 63
     bce:	0e 94 3b 19 	call	0x3276	; 0x3276 <__subsf3>
     bd2:	9b 01       	movw	r18, r22
     bd4:	ac 01       	movw	r20, r24
     bd6:	c5 01       	movw	r24, r10
     bd8:	b4 01       	movw	r22, r8
     bda:	0e 94 a4 19 	call	0x3348	; 0x3348 <__divsf3>
     bde:	4b 01       	movw	r8, r22
     be0:	5c 01       	movw	r10, r24
     be2:	a5 01       	movw	r20, r10
     be4:	94 01       	movw	r18, r8
     be6:	c7 01       	movw	r24, r14
     be8:	b6 01       	movw	r22, r12
     bea:	0e 94 ea 1a 	call	0x35d4	; 0x35d4 <__gesf2>
     bee:	18 16       	cp	r1, r24
     bf0:	0c f4       	brge	.+2      	; 0xbf4 <mask_gen+0x13a>
     bf2:	8d c4       	rjmp	.+2330   	; 0x150e <mask_gen+0xa54>
     bf4:	a5 01       	movw	r20, r10
     bf6:	94 01       	movw	r18, r8
     bf8:	60 e0       	ldi	r22, 0x00	; 0
     bfa:	70 e0       	ldi	r23, 0x00	; 0
     bfc:	80 e8       	ldi	r24, 0x80	; 128
     bfe:	9f e3       	ldi	r25, 0x3F	; 63
     c00:	0e 94 3b 19 	call	0x3276	; 0x3276 <__subsf3>
     c04:	4b 01       	movw	r8, r22
     c06:	5c 01       	movw	r10, r24
     c08:	a7 01       	movw	r20, r14
     c0a:	96 01       	movw	r18, r12
     c0c:	60 e0       	ldi	r22, 0x00	; 0
     c0e:	70 e0       	ldi	r23, 0x00	; 0
     c10:	80 e8       	ldi	r24, 0x80	; 128
     c12:	9f e3       	ldi	r25, 0x3F	; 63
     c14:	0e 94 3b 19 	call	0x3276	; 0x3276 <__subsf3>
     c18:	9b 01       	movw	r18, r22
     c1a:	ac 01       	movw	r20, r24
     c1c:	c5 01       	movw	r24, r10
     c1e:	b4 01       	movw	r22, r8
     c20:	0e 94 a4 19 	call	0x3348	; 0x3348 <__divsf3>
     c24:	4b 01       	movw	r8, r22
     c26:	5c 01       	movw	r10, r24
     c28:	a5 01       	movw	r20, r10
     c2a:	94 01       	movw	r18, r8
     c2c:	c7 01       	movw	r24, r14
     c2e:	b6 01       	movw	r22, r12
     c30:	0e 94 ea 1a 	call	0x35d4	; 0x35d4 <__gesf2>
     c34:	18 16       	cp	r1, r24
     c36:	0c f4       	brge	.+2      	; 0xc3a <mask_gen+0x180>
     c38:	61 c4       	rjmp	.+2242   	; 0x14fc <mask_gen+0xa42>
     c3a:	a5 01       	movw	r20, r10
     c3c:	94 01       	movw	r18, r8
     c3e:	60 e0       	ldi	r22, 0x00	; 0
     c40:	70 e0       	ldi	r23, 0x00	; 0
     c42:	80 e8       	ldi	r24, 0x80	; 128
     c44:	9f e3       	ldi	r25, 0x3F	; 63
     c46:	0e 94 3b 19 	call	0x3276	; 0x3276 <__subsf3>
     c4a:	4b 01       	movw	r8, r22
     c4c:	5c 01       	movw	r10, r24
     c4e:	a7 01       	movw	r20, r14
     c50:	96 01       	movw	r18, r12
     c52:	60 e0       	ldi	r22, 0x00	; 0
     c54:	70 e0       	ldi	r23, 0x00	; 0
     c56:	80 e8       	ldi	r24, 0x80	; 128
     c58:	9f e3       	ldi	r25, 0x3F	; 63
     c5a:	0e 94 3b 19 	call	0x3276	; 0x3276 <__subsf3>
     c5e:	9b 01       	movw	r18, r22
     c60:	ac 01       	movw	r20, r24
     c62:	c5 01       	movw	r24, r10
     c64:	b4 01       	movw	r22, r8
     c66:	0e 94 a4 19 	call	0x3348	; 0x3348 <__divsf3>
     c6a:	4b 01       	movw	r8, r22
     c6c:	5c 01       	movw	r10, r24
     c6e:	a5 01       	movw	r20, r10
     c70:	94 01       	movw	r18, r8
     c72:	c7 01       	movw	r24, r14
     c74:	b6 01       	movw	r22, r12
     c76:	0e 94 ea 1a 	call	0x35d4	; 0x35d4 <__gesf2>
     c7a:	18 16       	cp	r1, r24
     c7c:	0c f4       	brge	.+2      	; 0xc80 <mask_gen+0x1c6>
     c7e:	35 c4       	rjmp	.+2154   	; 0x14ea <mask_gen+0xa30>
     c80:	a5 01       	movw	r20, r10
     c82:	94 01       	movw	r18, r8
     c84:	60 e0       	ldi	r22, 0x00	; 0
     c86:	70 e0       	ldi	r23, 0x00	; 0
     c88:	80 e8       	ldi	r24, 0x80	; 128
     c8a:	9f e3       	ldi	r25, 0x3F	; 63
     c8c:	0e 94 3b 19 	call	0x3276	; 0x3276 <__subsf3>
     c90:	4b 01       	movw	r8, r22
     c92:	5c 01       	movw	r10, r24
     c94:	a7 01       	movw	r20, r14
     c96:	96 01       	movw	r18, r12
     c98:	60 e0       	ldi	r22, 0x00	; 0
     c9a:	70 e0       	ldi	r23, 0x00	; 0
     c9c:	80 e8       	ldi	r24, 0x80	; 128
     c9e:	9f e3       	ldi	r25, 0x3F	; 63
     ca0:	0e 94 3b 19 	call	0x3276	; 0x3276 <__subsf3>
     ca4:	9b 01       	movw	r18, r22
     ca6:	ac 01       	movw	r20, r24
     ca8:	c5 01       	movw	r24, r10
     caa:	b4 01       	movw	r22, r8
     cac:	0e 94 a4 19 	call	0x3348	; 0x3348 <__divsf3>
     cb0:	4b 01       	movw	r8, r22
     cb2:	5c 01       	movw	r10, r24
     cb4:	a5 01       	movw	r20, r10
     cb6:	94 01       	movw	r18, r8
     cb8:	c7 01       	movw	r24, r14
     cba:	b6 01       	movw	r22, r12
     cbc:	0e 94 ea 1a 	call	0x35d4	; 0x35d4 <__gesf2>
     cc0:	18 16       	cp	r1, r24
     cc2:	0c f4       	brge	.+2      	; 0xcc6 <mask_gen+0x20c>
     cc4:	09 c4       	rjmp	.+2066   	; 0x14d8 <mask_gen+0xa1e>
     cc6:	a5 01       	movw	r20, r10
     cc8:	94 01       	movw	r18, r8
     cca:	60 e0       	ldi	r22, 0x00	; 0
     ccc:	70 e0       	ldi	r23, 0x00	; 0
     cce:	80 e8       	ldi	r24, 0x80	; 128
     cd0:	9f e3       	ldi	r25, 0x3F	; 63
     cd2:	0e 94 3b 19 	call	0x3276	; 0x3276 <__subsf3>
     cd6:	4b 01       	movw	r8, r22
     cd8:	5c 01       	movw	r10, r24
     cda:	a7 01       	movw	r20, r14
     cdc:	96 01       	movw	r18, r12
     cde:	60 e0       	ldi	r22, 0x00	; 0
     ce0:	70 e0       	ldi	r23, 0x00	; 0
     ce2:	80 e8       	ldi	r24, 0x80	; 128
     ce4:	9f e3       	ldi	r25, 0x3F	; 63
     ce6:	0e 94 3b 19 	call	0x3276	; 0x3276 <__subsf3>
     cea:	9b 01       	movw	r18, r22
     cec:	ac 01       	movw	r20, r24
     cee:	c5 01       	movw	r24, r10
     cf0:	b4 01       	movw	r22, r8
     cf2:	0e 94 a4 19 	call	0x3348	; 0x3348 <__divsf3>
     cf6:	4b 01       	movw	r8, r22
     cf8:	5c 01       	movw	r10, r24
     cfa:	a5 01       	movw	r20, r10
     cfc:	94 01       	movw	r18, r8
     cfe:	c7 01       	movw	r24, r14
     d00:	b6 01       	movw	r22, r12
     d02:	0e 94 ea 1a 	call	0x35d4	; 0x35d4 <__gesf2>
     d06:	18 16       	cp	r1, r24
     d08:	0c f4       	brge	.+2      	; 0xd0c <mask_gen+0x252>
     d0a:	dd c3       	rjmp	.+1978   	; 0x14c6 <mask_gen+0xa0c>
     d0c:	a5 01       	movw	r20, r10
     d0e:	94 01       	movw	r18, r8
     d10:	60 e0       	ldi	r22, 0x00	; 0
     d12:	70 e0       	ldi	r23, 0x00	; 0
     d14:	80 e8       	ldi	r24, 0x80	; 128
     d16:	9f e3       	ldi	r25, 0x3F	; 63
     d18:	0e 94 3b 19 	call	0x3276	; 0x3276 <__subsf3>
     d1c:	4b 01       	movw	r8, r22
     d1e:	5c 01       	movw	r10, r24
     d20:	a7 01       	movw	r20, r14
     d22:	96 01       	movw	r18, r12
     d24:	60 e0       	ldi	r22, 0x00	; 0
     d26:	70 e0       	ldi	r23, 0x00	; 0
     d28:	80 e8       	ldi	r24, 0x80	; 128
     d2a:	9f e3       	ldi	r25, 0x3F	; 63
     d2c:	0e 94 3b 19 	call	0x3276	; 0x3276 <__subsf3>
     d30:	9b 01       	movw	r18, r22
     d32:	ac 01       	movw	r20, r24
     d34:	c5 01       	movw	r24, r10
     d36:	b4 01       	movw	r22, r8
     d38:	0e 94 a4 19 	call	0x3348	; 0x3348 <__divsf3>
     d3c:	4b 01       	movw	r8, r22
     d3e:	5c 01       	movw	r10, r24
     d40:	a5 01       	movw	r20, r10
     d42:	94 01       	movw	r18, r8
     d44:	c7 01       	movw	r24, r14
     d46:	b6 01       	movw	r22, r12
     d48:	0e 94 ea 1a 	call	0x35d4	; 0x35d4 <__gesf2>
     d4c:	18 16       	cp	r1, r24
     d4e:	0c f4       	brge	.+2      	; 0xd52 <mask_gen+0x298>
     d50:	42 c0       	rjmp	.+132    	; 0xdd6 <mask_gen+0x31c>
     d52:	a5 01       	movw	r20, r10
     d54:	94 01       	movw	r18, r8
     d56:	60 e0       	ldi	r22, 0x00	; 0
     d58:	70 e0       	ldi	r23, 0x00	; 0
     d5a:	80 e8       	ldi	r24, 0x80	; 128
     d5c:	9f e3       	ldi	r25, 0x3F	; 63
     d5e:	0e 94 3b 19 	call	0x3276	; 0x3276 <__subsf3>
     d62:	4b 01       	movw	r8, r22
     d64:	5c 01       	movw	r10, r24
     d66:	a7 01       	movw	r20, r14
     d68:	96 01       	movw	r18, r12
     d6a:	60 e0       	ldi	r22, 0x00	; 0
     d6c:	70 e0       	ldi	r23, 0x00	; 0
     d6e:	80 e8       	ldi	r24, 0x80	; 128
     d70:	9f e3       	ldi	r25, 0x3F	; 63
     d72:	0e 94 3b 19 	call	0x3276	; 0x3276 <__subsf3>
     d76:	9b 01       	movw	r18, r22
     d78:	ac 01       	movw	r20, r24
     d7a:	c5 01       	movw	r24, r10
     d7c:	b4 01       	movw	r22, r8
     d7e:	0e 94 a4 19 	call	0x3348	; 0x3348 <__divsf3>
     d82:	4b 01       	movw	r8, r22
     d84:	5c 01       	movw	r10, r24
     d86:	83 e2       	ldi	r24, 0x23	; 35
     d88:	c2 35       	cpi	r28, 0x52	; 82
     d8a:	d8 07       	cpc	r29, r24
     d8c:	81 f1       	breq	.+96     	; 0xdee <mask_gen+0x334>
     d8e:	69 91       	ld	r22, Y+
     d90:	70 e0       	ldi	r23, 0x00	; 0
     d92:	80 e0       	ldi	r24, 0x00	; 0
     d94:	90 e0       	ldi	r25, 0x00	; 0
     d96:	0e 94 3a 1a 	call	0x3474	; 0x3474 <__floatsisf>
     d9a:	2f e6       	ldi	r18, 0x6F	; 111
     d9c:	32 e1       	ldi	r19, 0x12	; 18
     d9e:	43 e8       	ldi	r20, 0x83	; 131
     da0:	5a e3       	ldi	r21, 0x3A	; 58
     da2:	0e 94 ee 1a 	call	0x35dc	; 0x35dc <__mulsf3>
     da6:	2c e5       	ldi	r18, 0x5C	; 92
     da8:	3f e8       	ldi	r19, 0x8F	; 143
     daa:	42 e0       	ldi	r20, 0x02	; 2
     dac:	5f e3       	ldi	r21, 0x3F	; 63
     dae:	0e 94 3c 19 	call	0x3278	; 0x3278 <__addsf3>
     db2:	6b 01       	movw	r12, r22
     db4:	7c 01       	movw	r14, r24
     db6:	a5 01       	movw	r20, r10
     db8:	94 01       	movw	r18, r8
     dba:	0e 94 ea 1a 	call	0x35d4	; 0x35d4 <__gesf2>
     dbe:	18 16       	cp	r1, r24
     dc0:	0c f0       	brlt	.+2      	; 0xdc4 <mask_gen+0x30a>
     dc2:	8c ce       	rjmp	.-744    	; 0xadc <mask_gen+0x22>
     dc4:	a7 01       	movw	r20, r14
     dc6:	96 01       	movw	r18, r12
     dc8:	c5 01       	movw	r24, r10
     dca:	b4 01       	movw	r22, r8
     dcc:	0e 94 a4 19 	call	0x3348	; 0x3348 <__divsf3>
     dd0:	4b 01       	movw	r8, r22
     dd2:	5c 01       	movw	r10, r24
     dd4:	9d ce       	rjmp	.-710    	; 0xb10 <mask_gen+0x56>
     dd6:	a7 01       	movw	r20, r14
     dd8:	96 01       	movw	r18, r12
     dda:	c5 01       	movw	r24, r10
     ddc:	b4 01       	movw	r22, r8
     dde:	0e 94 a4 19 	call	0x3348	; 0x3348 <__divsf3>
     de2:	4b 01       	movw	r8, r22
     de4:	5c 01       	movw	r10, r24
     de6:	83 e2       	ldi	r24, 0x23	; 35
     de8:	c2 35       	cpi	r28, 0x52	; 82
     dea:	d8 07       	cpc	r29, r24
     dec:	81 f6       	brne	.-96     	; 0xd8e <mask_gen+0x2d4>
     dee:	a5 01       	movw	r20, r10
     df0:	94 01       	movw	r18, r8
     df2:	c7 01       	movw	r24, r14
     df4:	b6 01       	movw	r22, r12
     df6:	0e 94 ea 1a 	call	0x35d4	; 0x35d4 <__gesf2>
     dfa:	18 16       	cp	r1, r24
     dfc:	0c f0       	brlt	.+2      	; 0xe00 <mask_gen+0x346>
     dfe:	25 c5       	rjmp	.+2634   	; 0x184a <mask_gen+0xd90>
     e00:	a7 01       	movw	r20, r14
     e02:	96 01       	movw	r18, r12
     e04:	c5 01       	movw	r24, r10
     e06:	b4 01       	movw	r22, r8
     e08:	0e 94 a4 19 	call	0x3348	; 0x3348 <__divsf3>
     e0c:	4b 01       	movw	r8, r22
     e0e:	5c 01       	movw	r10, r24
     e10:	20 e0       	ldi	r18, 0x00	; 0
     e12:	30 e0       	ldi	r19, 0x00	; 0
     e14:	4f e7       	ldi	r20, 0x7F	; 127
     e16:	53 e4       	ldi	r21, 0x43	; 67
     e18:	c5 01       	movw	r24, r10
     e1a:	b4 01       	movw	r22, r8
     e1c:	0e 94 ee 1a 	call	0x35dc	; 0x35dc <__mulsf3>
     e20:	0e 94 0c 1a 	call	0x3418	; 0x3418 <__fixunssfsi>
     e24:	60 93 52 23 	sts	0x2352, r22	; 0x802352 <s_mask_1>
     e28:	a5 01       	movw	r20, r10
     e2a:	94 01       	movw	r18, r8
     e2c:	c7 01       	movw	r24, r14
     e2e:	b6 01       	movw	r22, r12
     e30:	0e 94 ea 1a 	call	0x35d4	; 0x35d4 <__gesf2>
     e34:	18 16       	cp	r1, r24
     e36:	0c f0       	brlt	.+2      	; 0xe3a <mask_gen+0x380>
     e38:	23 c5       	rjmp	.+2630   	; 0x1880 <mask_gen+0xdc6>
     e3a:	a7 01       	movw	r20, r14
     e3c:	96 01       	movw	r18, r12
     e3e:	c5 01       	movw	r24, r10
     e40:	b4 01       	movw	r22, r8
     e42:	0e 94 a4 19 	call	0x3348	; 0x3348 <__divsf3>
     e46:	4b 01       	movw	r8, r22
     e48:	5c 01       	movw	r10, r24
     e4a:	20 e0       	ldi	r18, 0x00	; 0
     e4c:	30 e0       	ldi	r19, 0x00	; 0
     e4e:	4f e7       	ldi	r20, 0x7F	; 127
     e50:	53 e4       	ldi	r21, 0x43	; 67
     e52:	c5 01       	movw	r24, r10
     e54:	b4 01       	movw	r22, r8
     e56:	0e 94 ee 1a 	call	0x35dc	; 0x35dc <__mulsf3>
     e5a:	0e 94 0c 1a 	call	0x3418	; 0x3418 <__fixunssfsi>
     e5e:	60 93 64 24 	sts	0x2464, r22	; 0x802464 <s_mask_2>
     e62:	a5 01       	movw	r20, r10
     e64:	94 01       	movw	r18, r8
     e66:	c7 01       	movw	r24, r14
     e68:	b6 01       	movw	r22, r12
     e6a:	0e 94 ea 1a 	call	0x35d4	; 0x35d4 <__gesf2>
     e6e:	18 16       	cp	r1, r24
     e70:	0c f4       	brge	.+2      	; 0xe74 <mask_gen+0x3ba>
     e72:	2e c4       	rjmp	.+2140   	; 0x16d0 <mask_gen+0xc16>
     e74:	a5 01       	movw	r20, r10
     e76:	94 01       	movw	r18, r8
     e78:	60 e0       	ldi	r22, 0x00	; 0
     e7a:	70 e0       	ldi	r23, 0x00	; 0
     e7c:	80 e8       	ldi	r24, 0x80	; 128
     e7e:	9f e3       	ldi	r25, 0x3F	; 63
     e80:	0e 94 3b 19 	call	0x3276	; 0x3276 <__subsf3>
     e84:	4b 01       	movw	r8, r22
     e86:	5c 01       	movw	r10, r24
     e88:	a7 01       	movw	r20, r14
     e8a:	96 01       	movw	r18, r12
     e8c:	60 e0       	ldi	r22, 0x00	; 0
     e8e:	70 e0       	ldi	r23, 0x00	; 0
     e90:	80 e8       	ldi	r24, 0x80	; 128
     e92:	9f e3       	ldi	r25, 0x3F	; 63
     e94:	0e 94 3b 19 	call	0x3276	; 0x3276 <__subsf3>
     e98:	9b 01       	movw	r18, r22
     e9a:	ac 01       	movw	r20, r24
     e9c:	c5 01       	movw	r24, r10
     e9e:	b4 01       	movw	r22, r8
     ea0:	0e 94 a4 19 	call	0x3348	; 0x3348 <__divsf3>
     ea4:	4b 01       	movw	r8, r22
     ea6:	5c 01       	movw	r10, r24
     ea8:	20 e0       	ldi	r18, 0x00	; 0
     eaa:	30 e0       	ldi	r19, 0x00	; 0
     eac:	4f e7       	ldi	r20, 0x7F	; 127
     eae:	53 e4       	ldi	r21, 0x43	; 67
     eb0:	c5 01       	movw	r24, r10
     eb2:	b4 01       	movw	r22, r8
     eb4:	0e 94 ee 1a 	call	0x35dc	; 0x35dc <__mulsf3>
     eb8:	0e 94 0c 1a 	call	0x3418	; 0x3418 <__fixunssfsi>
     ebc:	60 93 53 23 	sts	0x2353, r22	; 0x802353 <add_mask>
     ec0:	a5 01       	movw	r20, r10
     ec2:	94 01       	movw	r18, r8
     ec4:	c7 01       	movw	r24, r14
     ec6:	b6 01       	movw	r22, r12
     ec8:	0e 94 ea 1a 	call	0x35d4	; 0x35d4 <__gesf2>
     ecc:	18 16       	cp	r1, r24
     ece:	0c f4       	brge	.+2      	; 0xed2 <mask_gen+0x418>
     ed0:	50 c4       	rjmp	.+2208   	; 0x1772 <mask_gen+0xcb8>
     ed2:	a5 01       	movw	r20, r10
     ed4:	94 01       	movw	r18, r8
     ed6:	60 e0       	ldi	r22, 0x00	; 0
     ed8:	70 e0       	ldi	r23, 0x00	; 0
     eda:	80 e8       	ldi	r24, 0x80	; 128
     edc:	9f e3       	ldi	r25, 0x3F	; 63
     ede:	0e 94 3b 19 	call	0x3276	; 0x3276 <__subsf3>
     ee2:	4b 01       	movw	r8, r22
     ee4:	5c 01       	movw	r10, r24
     ee6:	a7 01       	movw	r20, r14
     ee8:	96 01       	movw	r18, r12
     eea:	60 e0       	ldi	r22, 0x00	; 0
     eec:	70 e0       	ldi	r23, 0x00	; 0
     eee:	80 e8       	ldi	r24, 0x80	; 128
     ef0:	9f e3       	ldi	r25, 0x3F	; 63
     ef2:	0e 94 3b 19 	call	0x3276	; 0x3276 <__subsf3>
     ef6:	9b 01       	movw	r18, r22
     ef8:	ac 01       	movw	r20, r24
     efa:	c5 01       	movw	r24, r10
     efc:	b4 01       	movw	r22, r8
     efe:	0e 94 a4 19 	call	0x3348	; 0x3348 <__divsf3>
     f02:	4b 01       	movw	r8, r22
     f04:	5c 01       	movw	r10, r24
     f06:	20 e0       	ldi	r18, 0x00	; 0
     f08:	30 e0       	ldi	r19, 0x00	; 0
     f0a:	4f e7       	ldi	r20, 0x7F	; 127
     f0c:	53 e4       	ldi	r21, 0x43	; 67
     f0e:	c5 01       	movw	r24, r10
     f10:	b4 01       	movw	r22, r8
     f12:	0e 94 ee 1a 	call	0x35dc	; 0x35dc <__mulsf3>
     f16:	0e 94 0c 1a 	call	0x3418	; 0x3418 <__fixunssfsi>
     f1a:	60 93 54 23 	sts	0x2354, r22	; 0x802354 <add_mask+0x1>
     f1e:	a5 01       	movw	r20, r10
     f20:	94 01       	movw	r18, r8
     f22:	c7 01       	movw	r24, r14
     f24:	b6 01       	movw	r22, r12
     f26:	0e 94 ea 1a 	call	0x35d4	; 0x35d4 <__gesf2>
     f2a:	18 16       	cp	r1, r24
     f2c:	0c f4       	brge	.+2      	; 0xf30 <mask_gen+0x476>
     f2e:	18 c4       	rjmp	.+2096   	; 0x1760 <mask_gen+0xca6>
     f30:	a5 01       	movw	r20, r10
     f32:	94 01       	movw	r18, r8
     f34:	60 e0       	ldi	r22, 0x00	; 0
     f36:	70 e0       	ldi	r23, 0x00	; 0
     f38:	80 e8       	ldi	r24, 0x80	; 128
     f3a:	9f e3       	ldi	r25, 0x3F	; 63
     f3c:	0e 94 3b 19 	call	0x3276	; 0x3276 <__subsf3>
     f40:	4b 01       	movw	r8, r22
     f42:	5c 01       	movw	r10, r24
     f44:	a7 01       	movw	r20, r14
     f46:	96 01       	movw	r18, r12
     f48:	60 e0       	ldi	r22, 0x00	; 0
     f4a:	70 e0       	ldi	r23, 0x00	; 0
     f4c:	80 e8       	ldi	r24, 0x80	; 128
     f4e:	9f e3       	ldi	r25, 0x3F	; 63
     f50:	0e 94 3b 19 	call	0x3276	; 0x3276 <__subsf3>
     f54:	9b 01       	movw	r18, r22
     f56:	ac 01       	movw	r20, r24
     f58:	c5 01       	movw	r24, r10
     f5a:	b4 01       	movw	r22, r8
     f5c:	0e 94 a4 19 	call	0x3348	; 0x3348 <__divsf3>
     f60:	4b 01       	movw	r8, r22
     f62:	5c 01       	movw	r10, r24
     f64:	20 e0       	ldi	r18, 0x00	; 0
     f66:	30 e0       	ldi	r19, 0x00	; 0
     f68:	4f e7       	ldi	r20, 0x7F	; 127
     f6a:	53 e4       	ldi	r21, 0x43	; 67
     f6c:	c5 01       	movw	r24, r10
     f6e:	b4 01       	movw	r22, r8
     f70:	0e 94 ee 1a 	call	0x35dc	; 0x35dc <__mulsf3>
     f74:	0e 94 0c 1a 	call	0x3418	; 0x3418 <__fixunssfsi>
     f78:	60 93 55 23 	sts	0x2355, r22	; 0x802355 <add_mask+0x2>
     f7c:	a5 01       	movw	r20, r10
     f7e:	94 01       	movw	r18, r8
     f80:	c7 01       	movw	r24, r14
     f82:	b6 01       	movw	r22, r12
     f84:	0e 94 ea 1a 	call	0x35d4	; 0x35d4 <__gesf2>
     f88:	18 16       	cp	r1, r24
     f8a:	0c f4       	brge	.+2      	; 0xf8e <mask_gen+0x4d4>
     f8c:	e0 c3       	rjmp	.+1984   	; 0x174e <mask_gen+0xc94>
     f8e:	a5 01       	movw	r20, r10
     f90:	94 01       	movw	r18, r8
     f92:	60 e0       	ldi	r22, 0x00	; 0
     f94:	70 e0       	ldi	r23, 0x00	; 0
     f96:	80 e8       	ldi	r24, 0x80	; 128
     f98:	9f e3       	ldi	r25, 0x3F	; 63
     f9a:	0e 94 3b 19 	call	0x3276	; 0x3276 <__subsf3>
     f9e:	4b 01       	movw	r8, r22
     fa0:	5c 01       	movw	r10, r24
     fa2:	a7 01       	movw	r20, r14
     fa4:	96 01       	movw	r18, r12
     fa6:	60 e0       	ldi	r22, 0x00	; 0
     fa8:	70 e0       	ldi	r23, 0x00	; 0
     faa:	80 e8       	ldi	r24, 0x80	; 128
     fac:	9f e3       	ldi	r25, 0x3F	; 63
     fae:	0e 94 3b 19 	call	0x3276	; 0x3276 <__subsf3>
     fb2:	9b 01       	movw	r18, r22
     fb4:	ac 01       	movw	r20, r24
     fb6:	c5 01       	movw	r24, r10
     fb8:	b4 01       	movw	r22, r8
     fba:	0e 94 a4 19 	call	0x3348	; 0x3348 <__divsf3>
     fbe:	4b 01       	movw	r8, r22
     fc0:	5c 01       	movw	r10, r24
     fc2:	20 e0       	ldi	r18, 0x00	; 0
     fc4:	30 e0       	ldi	r19, 0x00	; 0
     fc6:	4f e7       	ldi	r20, 0x7F	; 127
     fc8:	53 e4       	ldi	r21, 0x43	; 67
     fca:	c5 01       	movw	r24, r10
     fcc:	b4 01       	movw	r22, r8
     fce:	0e 94 ee 1a 	call	0x35dc	; 0x35dc <__mulsf3>
     fd2:	0e 94 0c 1a 	call	0x3418	; 0x3418 <__fixunssfsi>
     fd6:	60 93 56 23 	sts	0x2356, r22	; 0x802356 <add_mask+0x3>
     fda:	a5 01       	movw	r20, r10
     fdc:	94 01       	movw	r18, r8
     fde:	c7 01       	movw	r24, r14
     fe0:	b6 01       	movw	r22, r12
     fe2:	0e 94 ea 1a 	call	0x35d4	; 0x35d4 <__gesf2>
     fe6:	18 16       	cp	r1, r24
     fe8:	0c f4       	brge	.+2      	; 0xfec <mask_gen+0x532>
     fea:	a8 c3       	rjmp	.+1872   	; 0x173c <mask_gen+0xc82>
     fec:	a5 01       	movw	r20, r10
     fee:	94 01       	movw	r18, r8
     ff0:	60 e0       	ldi	r22, 0x00	; 0
     ff2:	70 e0       	ldi	r23, 0x00	; 0
     ff4:	80 e8       	ldi	r24, 0x80	; 128
     ff6:	9f e3       	ldi	r25, 0x3F	; 63
     ff8:	0e 94 3b 19 	call	0x3276	; 0x3276 <__subsf3>
     ffc:	4b 01       	movw	r8, r22
     ffe:	5c 01       	movw	r10, r24
    1000:	a7 01       	movw	r20, r14
    1002:	96 01       	movw	r18, r12
    1004:	60 e0       	ldi	r22, 0x00	; 0
    1006:	70 e0       	ldi	r23, 0x00	; 0
    1008:	80 e8       	ldi	r24, 0x80	; 128
    100a:	9f e3       	ldi	r25, 0x3F	; 63
    100c:	0e 94 3b 19 	call	0x3276	; 0x3276 <__subsf3>
    1010:	9b 01       	movw	r18, r22
    1012:	ac 01       	movw	r20, r24
    1014:	c5 01       	movw	r24, r10
    1016:	b4 01       	movw	r22, r8
    1018:	0e 94 a4 19 	call	0x3348	; 0x3348 <__divsf3>
    101c:	4b 01       	movw	r8, r22
    101e:	5c 01       	movw	r10, r24
    1020:	20 e0       	ldi	r18, 0x00	; 0
    1022:	30 e0       	ldi	r19, 0x00	; 0
    1024:	4f e7       	ldi	r20, 0x7F	; 127
    1026:	53 e4       	ldi	r21, 0x43	; 67
    1028:	c5 01       	movw	r24, r10
    102a:	b4 01       	movw	r22, r8
    102c:	0e 94 ee 1a 	call	0x35dc	; 0x35dc <__mulsf3>
    1030:	0e 94 0c 1a 	call	0x3418	; 0x3418 <__fixunssfsi>
    1034:	60 93 57 23 	sts	0x2357, r22	; 0x802357 <add_mask+0x4>
    1038:	a5 01       	movw	r20, r10
    103a:	94 01       	movw	r18, r8
    103c:	c7 01       	movw	r24, r14
    103e:	b6 01       	movw	r22, r12
    1040:	0e 94 ea 1a 	call	0x35d4	; 0x35d4 <__gesf2>
    1044:	18 16       	cp	r1, r24
    1046:	0c f4       	brge	.+2      	; 0x104a <mask_gen+0x590>
    1048:	dc c3       	rjmp	.+1976   	; 0x1802 <mask_gen+0xd48>
    104a:	a5 01       	movw	r20, r10
    104c:	94 01       	movw	r18, r8
    104e:	60 e0       	ldi	r22, 0x00	; 0
    1050:	70 e0       	ldi	r23, 0x00	; 0
    1052:	80 e8       	ldi	r24, 0x80	; 128
    1054:	9f e3       	ldi	r25, 0x3F	; 63
    1056:	0e 94 3b 19 	call	0x3276	; 0x3276 <__subsf3>
    105a:	4b 01       	movw	r8, r22
    105c:	5c 01       	movw	r10, r24
    105e:	a7 01       	movw	r20, r14
    1060:	96 01       	movw	r18, r12
    1062:	60 e0       	ldi	r22, 0x00	; 0
    1064:	70 e0       	ldi	r23, 0x00	; 0
    1066:	80 e8       	ldi	r24, 0x80	; 128
    1068:	9f e3       	ldi	r25, 0x3F	; 63
    106a:	0e 94 3b 19 	call	0x3276	; 0x3276 <__subsf3>
    106e:	9b 01       	movw	r18, r22
    1070:	ac 01       	movw	r20, r24
    1072:	c5 01       	movw	r24, r10
    1074:	b4 01       	movw	r22, r8
    1076:	0e 94 a4 19 	call	0x3348	; 0x3348 <__divsf3>
    107a:	4b 01       	movw	r8, r22
    107c:	5c 01       	movw	r10, r24
    107e:	20 e0       	ldi	r18, 0x00	; 0
    1080:	30 e0       	ldi	r19, 0x00	; 0
    1082:	4f e7       	ldi	r20, 0x7F	; 127
    1084:	53 e4       	ldi	r21, 0x43	; 67
    1086:	c5 01       	movw	r24, r10
    1088:	b4 01       	movw	r22, r8
    108a:	0e 94 ee 1a 	call	0x35dc	; 0x35dc <__mulsf3>
    108e:	0e 94 0c 1a 	call	0x3418	; 0x3418 <__fixunssfsi>
    1092:	60 93 58 23 	sts	0x2358, r22	; 0x802358 <add_mask+0x5>
    1096:	a5 01       	movw	r20, r10
    1098:	94 01       	movw	r18, r8
    109a:	c7 01       	movw	r24, r14
    109c:	b6 01       	movw	r22, r12
    109e:	0e 94 ea 1a 	call	0x35d4	; 0x35d4 <__gesf2>
    10a2:	18 16       	cp	r1, r24
    10a4:	0c f4       	brge	.+2      	; 0x10a8 <mask_gen+0x5ee>
    10a6:	a4 c3       	rjmp	.+1864   	; 0x17f0 <mask_gen+0xd36>
    10a8:	a5 01       	movw	r20, r10
    10aa:	94 01       	movw	r18, r8
    10ac:	60 e0       	ldi	r22, 0x00	; 0
    10ae:	70 e0       	ldi	r23, 0x00	; 0
    10b0:	80 e8       	ldi	r24, 0x80	; 128
    10b2:	9f e3       	ldi	r25, 0x3F	; 63
    10b4:	0e 94 3b 19 	call	0x3276	; 0x3276 <__subsf3>
    10b8:	4b 01       	movw	r8, r22
    10ba:	5c 01       	movw	r10, r24
    10bc:	a7 01       	movw	r20, r14
    10be:	96 01       	movw	r18, r12
    10c0:	60 e0       	ldi	r22, 0x00	; 0
    10c2:	70 e0       	ldi	r23, 0x00	; 0
    10c4:	80 e8       	ldi	r24, 0x80	; 128
    10c6:	9f e3       	ldi	r25, 0x3F	; 63
    10c8:	0e 94 3b 19 	call	0x3276	; 0x3276 <__subsf3>
    10cc:	9b 01       	movw	r18, r22
    10ce:	ac 01       	movw	r20, r24
    10d0:	c5 01       	movw	r24, r10
    10d2:	b4 01       	movw	r22, r8
    10d4:	0e 94 a4 19 	call	0x3348	; 0x3348 <__divsf3>
    10d8:	4b 01       	movw	r8, r22
    10da:	5c 01       	movw	r10, r24
    10dc:	20 e0       	ldi	r18, 0x00	; 0
    10de:	30 e0       	ldi	r19, 0x00	; 0
    10e0:	4f e7       	ldi	r20, 0x7F	; 127
    10e2:	53 e4       	ldi	r21, 0x43	; 67
    10e4:	c5 01       	movw	r24, r10
    10e6:	b4 01       	movw	r22, r8
    10e8:	0e 94 ee 1a 	call	0x35dc	; 0x35dc <__mulsf3>
    10ec:	0e 94 0c 1a 	call	0x3418	; 0x3418 <__fixunssfsi>
    10f0:	60 93 59 23 	sts	0x2359, r22	; 0x802359 <add_mask+0x6>
    10f4:	a5 01       	movw	r20, r10
    10f6:	94 01       	movw	r18, r8
    10f8:	c7 01       	movw	r24, r14
    10fa:	b6 01       	movw	r22, r12
    10fc:	0e 94 ea 1a 	call	0x35d4	; 0x35d4 <__gesf2>
    1100:	18 16       	cp	r1, r24
    1102:	0c f4       	brge	.+2      	; 0x1106 <mask_gen+0x64c>
    1104:	6c c3       	rjmp	.+1752   	; 0x17de <mask_gen+0xd24>
    1106:	a5 01       	movw	r20, r10
    1108:	94 01       	movw	r18, r8
    110a:	60 e0       	ldi	r22, 0x00	; 0
    110c:	70 e0       	ldi	r23, 0x00	; 0
    110e:	80 e8       	ldi	r24, 0x80	; 128
    1110:	9f e3       	ldi	r25, 0x3F	; 63
    1112:	0e 94 3b 19 	call	0x3276	; 0x3276 <__subsf3>
    1116:	4b 01       	movw	r8, r22
    1118:	5c 01       	movw	r10, r24
    111a:	a7 01       	movw	r20, r14
    111c:	96 01       	movw	r18, r12
    111e:	60 e0       	ldi	r22, 0x00	; 0
    1120:	70 e0       	ldi	r23, 0x00	; 0
    1122:	80 e8       	ldi	r24, 0x80	; 128
    1124:	9f e3       	ldi	r25, 0x3F	; 63
    1126:	0e 94 3b 19 	call	0x3276	; 0x3276 <__subsf3>
    112a:	9b 01       	movw	r18, r22
    112c:	ac 01       	movw	r20, r24
    112e:	c5 01       	movw	r24, r10
    1130:	b4 01       	movw	r22, r8
    1132:	0e 94 a4 19 	call	0x3348	; 0x3348 <__divsf3>
    1136:	4b 01       	movw	r8, r22
    1138:	5c 01       	movw	r10, r24
    113a:	20 e0       	ldi	r18, 0x00	; 0
    113c:	30 e0       	ldi	r19, 0x00	; 0
    113e:	4f e7       	ldi	r20, 0x7F	; 127
    1140:	53 e4       	ldi	r21, 0x43	; 67
    1142:	c5 01       	movw	r24, r10
    1144:	b4 01       	movw	r22, r8
    1146:	0e 94 ee 1a 	call	0x35dc	; 0x35dc <__mulsf3>
    114a:	0e 94 0c 1a 	call	0x3418	; 0x3418 <__fixunssfsi>
    114e:	60 93 5a 23 	sts	0x235A, r22	; 0x80235a <add_mask+0x7>
    1152:	a5 01       	movw	r20, r10
    1154:	94 01       	movw	r18, r8
    1156:	c7 01       	movw	r24, r14
    1158:	b6 01       	movw	r22, r12
    115a:	0e 94 ea 1a 	call	0x35d4	; 0x35d4 <__gesf2>
    115e:	18 16       	cp	r1, r24
    1160:	0c f4       	brge	.+2      	; 0x1164 <mask_gen+0x6aa>
    1162:	34 c3       	rjmp	.+1640   	; 0x17cc <mask_gen+0xd12>
    1164:	a5 01       	movw	r20, r10
    1166:	94 01       	movw	r18, r8
    1168:	60 e0       	ldi	r22, 0x00	; 0
    116a:	70 e0       	ldi	r23, 0x00	; 0
    116c:	80 e8       	ldi	r24, 0x80	; 128
    116e:	9f e3       	ldi	r25, 0x3F	; 63
    1170:	0e 94 3b 19 	call	0x3276	; 0x3276 <__subsf3>
    1174:	4b 01       	movw	r8, r22
    1176:	5c 01       	movw	r10, r24
    1178:	a7 01       	movw	r20, r14
    117a:	96 01       	movw	r18, r12
    117c:	60 e0       	ldi	r22, 0x00	; 0
    117e:	70 e0       	ldi	r23, 0x00	; 0
    1180:	80 e8       	ldi	r24, 0x80	; 128
    1182:	9f e3       	ldi	r25, 0x3F	; 63
    1184:	0e 94 3b 19 	call	0x3276	; 0x3276 <__subsf3>
    1188:	9b 01       	movw	r18, r22
    118a:	ac 01       	movw	r20, r24
    118c:	c5 01       	movw	r24, r10
    118e:	b4 01       	movw	r22, r8
    1190:	0e 94 a4 19 	call	0x3348	; 0x3348 <__divsf3>
    1194:	4b 01       	movw	r8, r22
    1196:	5c 01       	movw	r10, r24
    1198:	20 e0       	ldi	r18, 0x00	; 0
    119a:	30 e0       	ldi	r19, 0x00	; 0
    119c:	4f e7       	ldi	r20, 0x7F	; 127
    119e:	53 e4       	ldi	r21, 0x43	; 67
    11a0:	c5 01       	movw	r24, r10
    11a2:	b4 01       	movw	r22, r8
    11a4:	0e 94 ee 1a 	call	0x35dc	; 0x35dc <__mulsf3>
    11a8:	0e 94 0c 1a 	call	0x3418	; 0x3418 <__fixunssfsi>
    11ac:	60 93 5b 23 	sts	0x235B, r22	; 0x80235b <add_mask+0x8>
    11b0:	a7 01       	movw	r20, r14
    11b2:	96 01       	movw	r18, r12
    11b4:	c5 01       	movw	r24, r10
    11b6:	b4 01       	movw	r22, r8
    11b8:	0e 94 a0 19 	call	0x3340	; 0x3340 <__cmpsf2>
    11bc:	87 fd       	sbrc	r24, 7
    11be:	fd c2       	rjmp	.+1530   	; 0x17ba <mask_gen+0xd00>
    11c0:	a5 01       	movw	r20, r10
    11c2:	94 01       	movw	r18, r8
    11c4:	60 e0       	ldi	r22, 0x00	; 0
    11c6:	70 e0       	ldi	r23, 0x00	; 0
    11c8:	80 e8       	ldi	r24, 0x80	; 128
    11ca:	9f e3       	ldi	r25, 0x3F	; 63
    11cc:	0e 94 3b 19 	call	0x3276	; 0x3276 <__subsf3>
    11d0:	4b 01       	movw	r8, r22
    11d2:	5c 01       	movw	r10, r24
    11d4:	a7 01       	movw	r20, r14
    11d6:	96 01       	movw	r18, r12
    11d8:	60 e0       	ldi	r22, 0x00	; 0
    11da:	70 e0       	ldi	r23, 0x00	; 0
    11dc:	80 e8       	ldi	r24, 0x80	; 128
    11de:	9f e3       	ldi	r25, 0x3F	; 63
    11e0:	0e 94 3b 19 	call	0x3276	; 0x3276 <__subsf3>
    11e4:	9b 01       	movw	r18, r22
    11e6:	ac 01       	movw	r20, r24
    11e8:	c5 01       	movw	r24, r10
    11ea:	b4 01       	movw	r22, r8
    11ec:	0e 94 a4 19 	call	0x3348	; 0x3348 <__divsf3>
    11f0:	4b 01       	movw	r8, r22
    11f2:	5c 01       	movw	r10, r24
    11f4:	20 e0       	ldi	r18, 0x00	; 0
    11f6:	30 e0       	ldi	r19, 0x00	; 0
    11f8:	4f e7       	ldi	r20, 0x7F	; 127
    11fa:	53 e4       	ldi	r21, 0x43	; 67
    11fc:	c5 01       	movw	r24, r10
    11fe:	b4 01       	movw	r22, r8
    1200:	0e 94 ee 1a 	call	0x35dc	; 0x35dc <__mulsf3>
    1204:	0e 94 0c 1a 	call	0x3418	; 0x3418 <__fixunssfsi>
    1208:	60 93 5c 23 	sts	0x235C, r22	; 0x80235c <add_mask+0x9>
    120c:	a5 01       	movw	r20, r10
    120e:	94 01       	movw	r18, r8
    1210:	c7 01       	movw	r24, r14
    1212:	b6 01       	movw	r22, r12
    1214:	0e 94 ea 1a 	call	0x35d4	; 0x35d4 <__gesf2>
    1218:	18 16       	cp	r1, r24
    121a:	0c f4       	brge	.+2      	; 0x121e <mask_gen+0x764>
    121c:	c5 c2       	rjmp	.+1418   	; 0x17a8 <mask_gen+0xcee>
    121e:	a5 01       	movw	r20, r10
    1220:	94 01       	movw	r18, r8
    1222:	60 e0       	ldi	r22, 0x00	; 0
    1224:	70 e0       	ldi	r23, 0x00	; 0
    1226:	80 e8       	ldi	r24, 0x80	; 128
    1228:	9f e3       	ldi	r25, 0x3F	; 63
    122a:	0e 94 3b 19 	call	0x3276	; 0x3276 <__subsf3>
    122e:	4b 01       	movw	r8, r22
    1230:	5c 01       	movw	r10, r24
    1232:	a7 01       	movw	r20, r14
    1234:	96 01       	movw	r18, r12
    1236:	60 e0       	ldi	r22, 0x00	; 0
    1238:	70 e0       	ldi	r23, 0x00	; 0
    123a:	80 e8       	ldi	r24, 0x80	; 128
    123c:	9f e3       	ldi	r25, 0x3F	; 63
    123e:	0e 94 3b 19 	call	0x3276	; 0x3276 <__subsf3>
    1242:	9b 01       	movw	r18, r22
    1244:	ac 01       	movw	r20, r24
    1246:	c5 01       	movw	r24, r10
    1248:	b4 01       	movw	r22, r8
    124a:	0e 94 a4 19 	call	0x3348	; 0x3348 <__divsf3>
    124e:	4b 01       	movw	r8, r22
    1250:	5c 01       	movw	r10, r24
    1252:	20 e0       	ldi	r18, 0x00	; 0
    1254:	30 e0       	ldi	r19, 0x00	; 0
    1256:	4f e7       	ldi	r20, 0x7F	; 127
    1258:	53 e4       	ldi	r21, 0x43	; 67
    125a:	c5 01       	movw	r24, r10
    125c:	b4 01       	movw	r22, r8
    125e:	0e 94 ee 1a 	call	0x35dc	; 0x35dc <__mulsf3>
    1262:	0e 94 0c 1a 	call	0x3418	; 0x3418 <__fixunssfsi>
    1266:	60 93 5d 23 	sts	0x235D, r22	; 0x80235d <add_mask+0xa>
    126a:	a5 01       	movw	r20, r10
    126c:	94 01       	movw	r18, r8
    126e:	c7 01       	movw	r24, r14
    1270:	b6 01       	movw	r22, r12
    1272:	0e 94 ea 1a 	call	0x35d4	; 0x35d4 <__gesf2>
    1276:	18 16       	cp	r1, r24
    1278:	0c f4       	brge	.+2      	; 0x127c <mask_gen+0x7c2>
    127a:	8d c2       	rjmp	.+1306   	; 0x1796 <mask_gen+0xcdc>
    127c:	a5 01       	movw	r20, r10
    127e:	94 01       	movw	r18, r8
    1280:	60 e0       	ldi	r22, 0x00	; 0
    1282:	70 e0       	ldi	r23, 0x00	; 0
    1284:	80 e8       	ldi	r24, 0x80	; 128
    1286:	9f e3       	ldi	r25, 0x3F	; 63
    1288:	0e 94 3b 19 	call	0x3276	; 0x3276 <__subsf3>
    128c:	4b 01       	movw	r8, r22
    128e:	5c 01       	movw	r10, r24
    1290:	a7 01       	movw	r20, r14
    1292:	96 01       	movw	r18, r12
    1294:	60 e0       	ldi	r22, 0x00	; 0
    1296:	70 e0       	ldi	r23, 0x00	; 0
    1298:	80 e8       	ldi	r24, 0x80	; 128
    129a:	9f e3       	ldi	r25, 0x3F	; 63
    129c:	0e 94 3b 19 	call	0x3276	; 0x3276 <__subsf3>
    12a0:	9b 01       	movw	r18, r22
    12a2:	ac 01       	movw	r20, r24
    12a4:	c5 01       	movw	r24, r10
    12a6:	b4 01       	movw	r22, r8
    12a8:	0e 94 a4 19 	call	0x3348	; 0x3348 <__divsf3>
    12ac:	4b 01       	movw	r8, r22
    12ae:	5c 01       	movw	r10, r24
    12b0:	20 e0       	ldi	r18, 0x00	; 0
    12b2:	30 e0       	ldi	r19, 0x00	; 0
    12b4:	4f e7       	ldi	r20, 0x7F	; 127
    12b6:	53 e4       	ldi	r21, 0x43	; 67
    12b8:	c5 01       	movw	r24, r10
    12ba:	b4 01       	movw	r22, r8
    12bc:	0e 94 ee 1a 	call	0x35dc	; 0x35dc <__mulsf3>
    12c0:	0e 94 0c 1a 	call	0x3418	; 0x3418 <__fixunssfsi>
    12c4:	60 93 5e 23 	sts	0x235E, r22	; 0x80235e <add_mask+0xb>
    12c8:	a5 01       	movw	r20, r10
    12ca:	94 01       	movw	r18, r8
    12cc:	c7 01       	movw	r24, r14
    12ce:	b6 01       	movw	r22, r12
    12d0:	0e 94 ea 1a 	call	0x35d4	; 0x35d4 <__gesf2>
    12d4:	18 16       	cp	r1, r24
    12d6:	0c f4       	brge	.+2      	; 0x12da <mask_gen+0x820>
    12d8:	55 c2       	rjmp	.+1194   	; 0x1784 <mask_gen+0xcca>
    12da:	a5 01       	movw	r20, r10
    12dc:	94 01       	movw	r18, r8
    12de:	60 e0       	ldi	r22, 0x00	; 0
    12e0:	70 e0       	ldi	r23, 0x00	; 0
    12e2:	80 e8       	ldi	r24, 0x80	; 128
    12e4:	9f e3       	ldi	r25, 0x3F	; 63
    12e6:	0e 94 3b 19 	call	0x3276	; 0x3276 <__subsf3>
    12ea:	4b 01       	movw	r8, r22
    12ec:	5c 01       	movw	r10, r24
    12ee:	a7 01       	movw	r20, r14
    12f0:	96 01       	movw	r18, r12
    12f2:	60 e0       	ldi	r22, 0x00	; 0
    12f4:	70 e0       	ldi	r23, 0x00	; 0
    12f6:	80 e8       	ldi	r24, 0x80	; 128
    12f8:	9f e3       	ldi	r25, 0x3F	; 63
    12fa:	0e 94 3b 19 	call	0x3276	; 0x3276 <__subsf3>
    12fe:	9b 01       	movw	r18, r22
    1300:	ac 01       	movw	r20, r24
    1302:	c5 01       	movw	r24, r10
    1304:	b4 01       	movw	r22, r8
    1306:	0e 94 a4 19 	call	0x3348	; 0x3348 <__divsf3>
    130a:	4b 01       	movw	r8, r22
    130c:	5c 01       	movw	r10, r24
    130e:	20 e0       	ldi	r18, 0x00	; 0
    1310:	30 e0       	ldi	r19, 0x00	; 0
    1312:	4f e7       	ldi	r20, 0x7F	; 127
    1314:	53 e4       	ldi	r21, 0x43	; 67
    1316:	c5 01       	movw	r24, r10
    1318:	b4 01       	movw	r22, r8
    131a:	0e 94 ee 1a 	call	0x35dc	; 0x35dc <__mulsf3>
    131e:	0e 94 0c 1a 	call	0x3418	; 0x3418 <__fixunssfsi>
    1322:	60 93 5f 23 	sts	0x235F, r22	; 0x80235f <add_mask+0xc>
    1326:	a5 01       	movw	r20, r10
    1328:	94 01       	movw	r18, r8
    132a:	c7 01       	movw	r24, r14
    132c:	b6 01       	movw	r22, r12
    132e:	0e 94 ea 1a 	call	0x35d4	; 0x35d4 <__gesf2>
    1332:	18 16       	cp	r1, r24
    1334:	0c f4       	brge	.+2      	; 0x1338 <mask_gen+0x87e>
    1336:	f9 c1       	rjmp	.+1010   	; 0x172a <mask_gen+0xc70>
    1338:	a5 01       	movw	r20, r10
    133a:	94 01       	movw	r18, r8
    133c:	60 e0       	ldi	r22, 0x00	; 0
    133e:	70 e0       	ldi	r23, 0x00	; 0
    1340:	80 e8       	ldi	r24, 0x80	; 128
    1342:	9f e3       	ldi	r25, 0x3F	; 63
    1344:	0e 94 3b 19 	call	0x3276	; 0x3276 <__subsf3>
    1348:	4b 01       	movw	r8, r22
    134a:	5c 01       	movw	r10, r24
    134c:	a7 01       	movw	r20, r14
    134e:	96 01       	movw	r18, r12
    1350:	60 e0       	ldi	r22, 0x00	; 0
    1352:	70 e0       	ldi	r23, 0x00	; 0
    1354:	80 e8       	ldi	r24, 0x80	; 128
    1356:	9f e3       	ldi	r25, 0x3F	; 63
    1358:	0e 94 3b 19 	call	0x3276	; 0x3276 <__subsf3>
    135c:	9b 01       	movw	r18, r22
    135e:	ac 01       	movw	r20, r24
    1360:	c5 01       	movw	r24, r10
    1362:	b4 01       	movw	r22, r8
    1364:	0e 94 a4 19 	call	0x3348	; 0x3348 <__divsf3>
    1368:	4b 01       	movw	r8, r22
    136a:	5c 01       	movw	r10, r24
    136c:	20 e0       	ldi	r18, 0x00	; 0
    136e:	30 e0       	ldi	r19, 0x00	; 0
    1370:	4f e7       	ldi	r20, 0x7F	; 127
    1372:	53 e4       	ldi	r21, 0x43	; 67
    1374:	c5 01       	movw	r24, r10
    1376:	b4 01       	movw	r22, r8
    1378:	0e 94 ee 1a 	call	0x35dc	; 0x35dc <__mulsf3>
    137c:	0e 94 0c 1a 	call	0x3418	; 0x3418 <__fixunssfsi>
    1380:	60 93 60 23 	sts	0x2360, r22	; 0x802360 <add_mask+0xd>
    1384:	a5 01       	movw	r20, r10
    1386:	94 01       	movw	r18, r8
    1388:	c7 01       	movw	r24, r14
    138a:	b6 01       	movw	r22, r12
    138c:	0e 94 ea 1a 	call	0x35d4	; 0x35d4 <__gesf2>
    1390:	18 16       	cp	r1, r24
    1392:	0c f4       	brge	.+2      	; 0x1396 <mask_gen+0x8dc>
    1394:	c1 c1       	rjmp	.+898    	; 0x1718 <mask_gen+0xc5e>
    1396:	a5 01       	movw	r20, r10
    1398:	94 01       	movw	r18, r8
    139a:	60 e0       	ldi	r22, 0x00	; 0
    139c:	70 e0       	ldi	r23, 0x00	; 0
    139e:	80 e8       	ldi	r24, 0x80	; 128
    13a0:	9f e3       	ldi	r25, 0x3F	; 63
    13a2:	0e 94 3b 19 	call	0x3276	; 0x3276 <__subsf3>
    13a6:	4b 01       	movw	r8, r22
    13a8:	5c 01       	movw	r10, r24
    13aa:	a7 01       	movw	r20, r14
    13ac:	96 01       	movw	r18, r12
    13ae:	60 e0       	ldi	r22, 0x00	; 0
    13b0:	70 e0       	ldi	r23, 0x00	; 0
    13b2:	80 e8       	ldi	r24, 0x80	; 128
    13b4:	9f e3       	ldi	r25, 0x3F	; 63
    13b6:	0e 94 3b 19 	call	0x3276	; 0x3276 <__subsf3>
    13ba:	9b 01       	movw	r18, r22
    13bc:	ac 01       	movw	r20, r24
    13be:	c5 01       	movw	r24, r10
    13c0:	b4 01       	movw	r22, r8
    13c2:	0e 94 a4 19 	call	0x3348	; 0x3348 <__divsf3>
    13c6:	4b 01       	movw	r8, r22
    13c8:	5c 01       	movw	r10, r24
    13ca:	20 e0       	ldi	r18, 0x00	; 0
    13cc:	30 e0       	ldi	r19, 0x00	; 0
    13ce:	4f e7       	ldi	r20, 0x7F	; 127
    13d0:	53 e4       	ldi	r21, 0x43	; 67
    13d2:	c5 01       	movw	r24, r10
    13d4:	b4 01       	movw	r22, r8
    13d6:	0e 94 ee 1a 	call	0x35dc	; 0x35dc <__mulsf3>
    13da:	0e 94 0c 1a 	call	0x3418	; 0x3418 <__fixunssfsi>
    13de:	60 93 61 23 	sts	0x2361, r22	; 0x802361 <add_mask+0xe>
    13e2:	a5 01       	movw	r20, r10
    13e4:	94 01       	movw	r18, r8
    13e6:	c7 01       	movw	r24, r14
    13e8:	b6 01       	movw	r22, r12
    13ea:	0e 94 ea 1a 	call	0x35d4	; 0x35d4 <__gesf2>
    13ee:	18 16       	cp	r1, r24
    13f0:	0c f0       	brlt	.+2      	; 0x13f4 <mask_gen+0x93a>
    13f2:	77 c1       	rjmp	.+750    	; 0x16e2 <mask_gen+0xc28>
    13f4:	a7 01       	movw	r20, r14
    13f6:	96 01       	movw	r18, r12
    13f8:	c5 01       	movw	r24, r10
    13fa:	b4 01       	movw	r22, r8
    13fc:	0e 94 a4 19 	call	0x3348	; 0x3348 <__divsf3>
    1400:	4b 01       	movw	r8, r22
    1402:	5c 01       	movw	r10, r24
    1404:	20 e0       	ldi	r18, 0x00	; 0
    1406:	30 e0       	ldi	r19, 0x00	; 0
    1408:	4f e7       	ldi	r20, 0x7F	; 127
    140a:	53 e4       	ldi	r21, 0x43	; 67
    140c:	c5 01       	movw	r24, r10
    140e:	b4 01       	movw	r22, r8
    1410:	0e 94 ee 1a 	call	0x35dc	; 0x35dc <__mulsf3>
    1414:	0e 94 0c 1a 	call	0x3418	; 0x3418 <__fixunssfsi>
    1418:	60 93 62 23 	sts	0x2362, r22	; 0x802362 <add_mask+0xf>
    141c:	a5 01       	movw	r20, r10
    141e:	94 01       	movw	r18, r8
    1420:	c7 01       	movw	r24, r14
    1422:	b6 01       	movw	r22, r12
    1424:	0e 94 ea 1a 	call	0x35d4	; 0x35d4 <__gesf2>
    1428:	18 16       	cp	r1, r24
    142a:	0c f0       	brlt	.+2      	; 0x142e <mask_gen+0x974>
    142c:	f3 c1       	rjmp	.+998    	; 0x1814 <mask_gen+0xd5a>
    142e:	a7 01       	movw	r20, r14
    1430:	96 01       	movw	r18, r12
    1432:	c5 01       	movw	r24, r10
    1434:	b4 01       	movw	r22, r8
    1436:	0e 94 a4 19 	call	0x3348	; 0x3348 <__divsf3>
    143a:	4b 01       	movw	r8, r22
    143c:	5c 01       	movw	r10, r24
    143e:	20 e0       	ldi	r18, 0x00	; 0
    1440:	30 e0       	ldi	r19, 0x00	; 0
    1442:	4f e7       	ldi	r20, 0x7F	; 127
    1444:	53 e4       	ldi	r21, 0x43	; 67
    1446:	c5 01       	movw	r24, r10
    1448:	b4 01       	movw	r22, r8
    144a:	0e 94 ee 1a 	call	0x35dc	; 0x35dc <__mulsf3>
    144e:	0e 94 0c 1a 	call	0x3418	; 0x3418 <__fixunssfsi>
    1452:	60 93 65 24 	sts	0x2465, r22	; 0x802465 <mul_mask_1>
    1456:	14 c0       	rjmp	.+40     	; 0x1480 <mask_gen+0x9c6>
    1458:	a7 01       	movw	r20, r14
    145a:	96 01       	movw	r18, r12
    145c:	c5 01       	movw	r24, r10
    145e:	b4 01       	movw	r22, r8
    1460:	0e 94 a4 19 	call	0x3348	; 0x3348 <__divsf3>
    1464:	4b 01       	movw	r8, r22
    1466:	5c 01       	movw	r10, r24
    1468:	20 e0       	ldi	r18, 0x00	; 0
    146a:	30 e0       	ldi	r19, 0x00	; 0
    146c:	4f e7       	ldi	r20, 0x7F	; 127
    146e:	53 e4       	ldi	r21, 0x43	; 67
    1470:	c5 01       	movw	r24, r10
    1472:	b4 01       	movw	r22, r8
    1474:	0e 94 ee 1a 	call	0x35dc	; 0x35dc <__mulsf3>
    1478:	0e 94 0c 1a 	call	0x3418	; 0x3418 <__fixunssfsi>
    147c:	61 11       	cpse	r22, r1
    147e:	6b c0       	rjmp	.+214    	; 0x1556 <mask_gen+0xa9c>
    1480:	a7 01       	movw	r20, r14
    1482:	96 01       	movw	r18, r12
    1484:	c5 01       	movw	r24, r10
    1486:	b4 01       	movw	r22, r8
    1488:	0e 94 a0 19 	call	0x3340	; 0x3340 <__cmpsf2>
    148c:	87 fd       	sbrc	r24, 7
    148e:	e4 cf       	rjmp	.-56     	; 0x1458 <mask_gen+0x99e>
    1490:	a5 01       	movw	r20, r10
    1492:	94 01       	movw	r18, r8
    1494:	60 e0       	ldi	r22, 0x00	; 0
    1496:	70 e0       	ldi	r23, 0x00	; 0
    1498:	80 e8       	ldi	r24, 0x80	; 128
    149a:	9f e3       	ldi	r25, 0x3F	; 63
    149c:	0e 94 3b 19 	call	0x3276	; 0x3276 <__subsf3>
    14a0:	4b 01       	movw	r8, r22
    14a2:	5c 01       	movw	r10, r24
    14a4:	a7 01       	movw	r20, r14
    14a6:	96 01       	movw	r18, r12
    14a8:	60 e0       	ldi	r22, 0x00	; 0
    14aa:	70 e0       	ldi	r23, 0x00	; 0
    14ac:	80 e8       	ldi	r24, 0x80	; 128
    14ae:	9f e3       	ldi	r25, 0x3F	; 63
    14b0:	0e 94 3b 19 	call	0x3276	; 0x3276 <__subsf3>
    14b4:	9b 01       	movw	r18, r22
    14b6:	ac 01       	movw	r20, r24
    14b8:	c5 01       	movw	r24, r10
    14ba:	b4 01       	movw	r22, r8
    14bc:	0e 94 a4 19 	call	0x3348	; 0x3348 <__divsf3>
    14c0:	4b 01       	movw	r8, r22
    14c2:	5c 01       	movw	r10, r24
    14c4:	d1 cf       	rjmp	.-94     	; 0x1468 <mask_gen+0x9ae>
    14c6:	a7 01       	movw	r20, r14
    14c8:	96 01       	movw	r18, r12
    14ca:	c5 01       	movw	r24, r10
    14cc:	b4 01       	movw	r22, r8
    14ce:	0e 94 a4 19 	call	0x3348	; 0x3348 <__divsf3>
    14d2:	4b 01       	movw	r8, r22
    14d4:	5c 01       	movw	r10, r24
    14d6:	34 cc       	rjmp	.-1944   	; 0xd40 <mask_gen+0x286>
    14d8:	a7 01       	movw	r20, r14
    14da:	96 01       	movw	r18, r12
    14dc:	c5 01       	movw	r24, r10
    14de:	b4 01       	movw	r22, r8
    14e0:	0e 94 a4 19 	call	0x3348	; 0x3348 <__divsf3>
    14e4:	4b 01       	movw	r8, r22
    14e6:	5c 01       	movw	r10, r24
    14e8:	08 cc       	rjmp	.-2032   	; 0xcfa <mask_gen+0x240>
    14ea:	a7 01       	movw	r20, r14
    14ec:	96 01       	movw	r18, r12
    14ee:	c5 01       	movw	r24, r10
    14f0:	b4 01       	movw	r22, r8
    14f2:	0e 94 a4 19 	call	0x3348	; 0x3348 <__divsf3>
    14f6:	4b 01       	movw	r8, r22
    14f8:	5c 01       	movw	r10, r24
    14fa:	dc cb       	rjmp	.-2120   	; 0xcb4 <mask_gen+0x1fa>
    14fc:	a7 01       	movw	r20, r14
    14fe:	96 01       	movw	r18, r12
    1500:	c5 01       	movw	r24, r10
    1502:	b4 01       	movw	r22, r8
    1504:	0e 94 a4 19 	call	0x3348	; 0x3348 <__divsf3>
    1508:	4b 01       	movw	r8, r22
    150a:	5c 01       	movw	r10, r24
    150c:	b0 cb       	rjmp	.-2208   	; 0xc6e <mask_gen+0x1b4>
    150e:	a7 01       	movw	r20, r14
    1510:	96 01       	movw	r18, r12
    1512:	c5 01       	movw	r24, r10
    1514:	b4 01       	movw	r22, r8
    1516:	0e 94 a4 19 	call	0x3348	; 0x3348 <__divsf3>
    151a:	4b 01       	movw	r8, r22
    151c:	5c 01       	movw	r10, r24
    151e:	84 cb       	rjmp	.-2296   	; 0xc28 <mask_gen+0x16e>
    1520:	a7 01       	movw	r20, r14
    1522:	96 01       	movw	r18, r12
    1524:	c5 01       	movw	r24, r10
    1526:	b4 01       	movw	r22, r8
    1528:	0e 94 a4 19 	call	0x3348	; 0x3348 <__divsf3>
    152c:	4b 01       	movw	r8, r22
    152e:	5c 01       	movw	r10, r24
    1530:	58 cb       	rjmp	.-2384   	; 0xbe2 <mask_gen+0x128>
    1532:	a7 01       	movw	r20, r14
    1534:	96 01       	movw	r18, r12
    1536:	c5 01       	movw	r24, r10
    1538:	b4 01       	movw	r22, r8
    153a:	0e 94 a4 19 	call	0x3348	; 0x3348 <__divsf3>
    153e:	4b 01       	movw	r8, r22
    1540:	5c 01       	movw	r10, r24
    1542:	2c cb       	rjmp	.-2472   	; 0xb9c <mask_gen+0xe2>
    1544:	a7 01       	movw	r20, r14
    1546:	96 01       	movw	r18, r12
    1548:	c5 01       	movw	r24, r10
    154a:	b4 01       	movw	r22, r8
    154c:	0e 94 a4 19 	call	0x3348	; 0x3348 <__divsf3>
    1550:	4b 01       	movw	r8, r22
    1552:	5c 01       	movw	r10, r24
    1554:	00 cb       	rjmp	.-2560   	; 0xb56 <mask_gen+0x9c>
    1556:	60 93 63 24 	sts	0x2463, r22	; 0x802463 <mul_mask_2>
    155a:	61 e0       	ldi	r22, 0x01	; 1
    155c:	70 e0       	ldi	r23, 0x00	; 0
    155e:	80 e1       	ldi	r24, 0x10	; 16
    1560:	90 e0       	ldi	r25, 0x00	; 0
    1562:	0e 94 73 1b 	call	0x36e6	; 0x36e6 <calloc>
    1566:	ec 01       	movw	r28, r24
    1568:	10 e0       	ldi	r17, 0x00	; 0
    156a:	01 e0       	ldi	r16, 0x01	; 1
    156c:	76 c0       	rjmp	.+236    	; 0x165a <mask_gen+0xba0>
    156e:	a5 01       	movw	r20, r10
    1570:	94 01       	movw	r18, r8
    1572:	60 e0       	ldi	r22, 0x00	; 0
    1574:	70 e0       	ldi	r23, 0x00	; 0
    1576:	80 e8       	ldi	r24, 0x80	; 128
    1578:	9f e3       	ldi	r25, 0x3F	; 63
    157a:	0e 94 3b 19 	call	0x3276	; 0x3276 <__subsf3>
    157e:	4b 01       	movw	r8, r22
    1580:	5c 01       	movw	r10, r24
    1582:	a7 01       	movw	r20, r14
    1584:	96 01       	movw	r18, r12
    1586:	60 e0       	ldi	r22, 0x00	; 0
    1588:	70 e0       	ldi	r23, 0x00	; 0
    158a:	80 e8       	ldi	r24, 0x80	; 128
    158c:	9f e3       	ldi	r25, 0x3F	; 63
    158e:	0e 94 3b 19 	call	0x3276	; 0x3276 <__subsf3>
    1592:	9b 01       	movw	r18, r22
    1594:	ac 01       	movw	r20, r24
    1596:	c5 01       	movw	r24, r10
    1598:	b4 01       	movw	r22, r8
    159a:	0e 94 a4 19 	call	0x3348	; 0x3348 <__divsf3>
    159e:	4b 01       	movw	r8, r22
    15a0:	5c 01       	movw	r10, r24
    15a2:	a5 01       	movw	r20, r10
    15a4:	94 01       	movw	r18, r8
    15a6:	c7 01       	movw	r24, r14
    15a8:	b6 01       	movw	r22, r12
    15aa:	0e 94 ea 1a 	call	0x35d4	; 0x35d4 <__gesf2>
    15ae:	18 16       	cp	r1, r24
    15b0:	0c f4       	brge	.+2      	; 0x15b4 <mask_gen+0xafa>
    15b2:	76 c0       	rjmp	.+236    	; 0x16a0 <mask_gen+0xbe6>
    15b4:	a5 01       	movw	r20, r10
    15b6:	94 01       	movw	r18, r8
    15b8:	60 e0       	ldi	r22, 0x00	; 0
    15ba:	70 e0       	ldi	r23, 0x00	; 0
    15bc:	80 e8       	ldi	r24, 0x80	; 128
    15be:	9f e3       	ldi	r25, 0x3F	; 63
    15c0:	0e 94 3b 19 	call	0x3276	; 0x3276 <__subsf3>
    15c4:	4b 01       	movw	r8, r22
    15c6:	5c 01       	movw	r10, r24
    15c8:	a7 01       	movw	r20, r14
    15ca:	96 01       	movw	r18, r12
    15cc:	60 e0       	ldi	r22, 0x00	; 0
    15ce:	70 e0       	ldi	r23, 0x00	; 0
    15d0:	80 e8       	ldi	r24, 0x80	; 128
    15d2:	9f e3       	ldi	r25, 0x3F	; 63
    15d4:	0e 94 3b 19 	call	0x3276	; 0x3276 <__subsf3>
    15d8:	9b 01       	movw	r18, r22
    15da:	ac 01       	movw	r20, r24
    15dc:	c5 01       	movw	r24, r10
    15de:	b4 01       	movw	r22, r8
    15e0:	0e 94 a4 19 	call	0x3348	; 0x3348 <__divsf3>
    15e4:	4b 01       	movw	r8, r22
    15e6:	5c 01       	movw	r10, r24
    15e8:	20 e0       	ldi	r18, 0x00	; 0
    15ea:	30 e0       	ldi	r19, 0x00	; 0
    15ec:	4f e7       	ldi	r20, 0x7F	; 127
    15ee:	53 e4       	ldi	r21, 0x43	; 67
    15f0:	c5 01       	movw	r24, r10
    15f2:	b4 01       	movw	r22, r8
    15f4:	0e 94 ee 1a 	call	0x35dc	; 0x35dc <__mulsf3>
    15f8:	0e 94 0c 1a 	call	0x3418	; 0x3418 <__fixunssfsi>
    15fc:	6f 70       	andi	r22, 0x0F	; 15
    15fe:	fe 01       	movw	r30, r28
    1600:	e6 0f       	add	r30, r22
    1602:	f1 1d       	adc	r31, r1
    1604:	80 81       	ld	r24, Z
    1606:	81 11       	cpse	r24, r1
    1608:	3a c0       	rjmp	.+116    	; 0x167e <mask_gen+0xbc4>
    160a:	a1 2f       	mov	r26, r17
    160c:	b0 e0       	ldi	r27, 0x00	; 0
    160e:	ae 5d       	subi	r26, 0xDE	; 222
    1610:	bd 4d       	sbci	r27, 0xDD	; 221
    1612:	6c 93       	st	X, r22
    1614:	00 83       	st	Z, r16
    1616:	1f 5f       	subi	r17, 0xFF	; 255
    1618:	98 81       	ld	r25, Y
    161a:	89 81       	ldd	r24, Y+1	; 0x01
    161c:	89 0f       	add	r24, r25
    161e:	9a 81       	ldd	r25, Y+2	; 0x02
    1620:	89 0f       	add	r24, r25
    1622:	9b 81       	ldd	r25, Y+3	; 0x03
    1624:	89 0f       	add	r24, r25
    1626:	9c 81       	ldd	r25, Y+4	; 0x04
    1628:	89 0f       	add	r24, r25
    162a:	9d 81       	ldd	r25, Y+5	; 0x05
    162c:	89 0f       	add	r24, r25
    162e:	9e 81       	ldd	r25, Y+6	; 0x06
    1630:	89 0f       	add	r24, r25
    1632:	9f 81       	ldd	r25, Y+7	; 0x07
    1634:	89 0f       	add	r24, r25
    1636:	98 85       	ldd	r25, Y+8	; 0x08
    1638:	89 0f       	add	r24, r25
    163a:	99 85       	ldd	r25, Y+9	; 0x09
    163c:	89 0f       	add	r24, r25
    163e:	9a 85       	ldd	r25, Y+10	; 0x0a
    1640:	89 0f       	add	r24, r25
    1642:	9b 85       	ldd	r25, Y+11	; 0x0b
    1644:	89 0f       	add	r24, r25
    1646:	9c 85       	ldd	r25, Y+12	; 0x0c
    1648:	89 0f       	add	r24, r25
    164a:	9d 85       	ldd	r25, Y+13	; 0x0d
    164c:	89 0f       	add	r24, r25
    164e:	9e 85       	ldd	r25, Y+14	; 0x0e
    1650:	89 0f       	add	r24, r25
    1652:	9f 85       	ldd	r25, Y+15	; 0x0f
    1654:	89 0f       	add	r24, r25
    1656:	80 31       	cpi	r24, 0x10	; 16
    1658:	60 f5       	brcc	.+88     	; 0x16b2 <mask_gen+0xbf8>
    165a:	a5 01       	movw	r20, r10
    165c:	94 01       	movw	r18, r8
    165e:	c7 01       	movw	r24, r14
    1660:	b6 01       	movw	r22, r12
    1662:	0e 94 ea 1a 	call	0x35d4	; 0x35d4 <__gesf2>
    1666:	18 16       	cp	r1, r24
    1668:	0c f0       	brlt	.+2      	; 0x166c <mask_gen+0xbb2>
    166a:	81 cf       	rjmp	.-254    	; 0x156e <mask_gen+0xab4>
    166c:	a7 01       	movw	r20, r14
    166e:	96 01       	movw	r18, r12
    1670:	c5 01       	movw	r24, r10
    1672:	b4 01       	movw	r22, r8
    1674:	0e 94 a4 19 	call	0x3348	; 0x3348 <__divsf3>
    1678:	4b 01       	movw	r8, r22
    167a:	5c 01       	movw	r10, r24
    167c:	92 cf       	rjmp	.-220    	; 0x15a2 <mask_gen+0xae8>
    167e:	26 e6       	ldi	r18, 0x66	; 102
    1680:	36 e6       	ldi	r19, 0x66	; 102
    1682:	46 e6       	ldi	r20, 0x66	; 102
    1684:	5f e3       	ldi	r21, 0x3F	; 63
    1686:	c5 01       	movw	r24, r10
    1688:	b4 01       	movw	r22, r8
    168a:	0e 94 ee 1a 	call	0x35dc	; 0x35dc <__mulsf3>
    168e:	2d ec       	ldi	r18, 0xCD	; 205
    1690:	3c ec       	ldi	r19, 0xCC	; 204
    1692:	4c e4       	ldi	r20, 0x4C	; 76
    1694:	5d e3       	ldi	r21, 0x3D	; 61
    1696:	0e 94 3c 19 	call	0x3278	; 0x3278 <__addsf3>
    169a:	4b 01       	movw	r8, r22
    169c:	5c 01       	movw	r10, r24
    169e:	bc cf       	rjmp	.-136    	; 0x1618 <mask_gen+0xb5e>
    16a0:	a7 01       	movw	r20, r14
    16a2:	96 01       	movw	r18, r12
    16a4:	c5 01       	movw	r24, r10
    16a6:	b4 01       	movw	r22, r8
    16a8:	0e 94 a4 19 	call	0x3348	; 0x3348 <__divsf3>
    16ac:	4b 01       	movw	r8, r22
    16ae:	5c 01       	movw	r10, r24
    16b0:	9b cf       	rjmp	.-202    	; 0x15e8 <mask_gen+0xb2e>
    16b2:	ce 01       	movw	r24, r28
    16b4:	df 91       	pop	r29
    16b6:	cf 91       	pop	r28
    16b8:	1f 91       	pop	r17
    16ba:	0f 91       	pop	r16
    16bc:	ff 90       	pop	r15
    16be:	ef 90       	pop	r14
    16c0:	df 90       	pop	r13
    16c2:	cf 90       	pop	r12
    16c4:	bf 90       	pop	r11
    16c6:	af 90       	pop	r10
    16c8:	9f 90       	pop	r9
    16ca:	8f 90       	pop	r8
    16cc:	0c 94 25 1c 	jmp	0x384a	; 0x384a <free>
    16d0:	a7 01       	movw	r20, r14
    16d2:	96 01       	movw	r18, r12
    16d4:	c5 01       	movw	r24, r10
    16d6:	b4 01       	movw	r22, r8
    16d8:	0e 94 a4 19 	call	0x3348	; 0x3348 <__divsf3>
    16dc:	4b 01       	movw	r8, r22
    16de:	5c 01       	movw	r10, r24
    16e0:	e3 cb       	rjmp	.-2106   	; 0xea8 <mask_gen+0x3ee>
    16e2:	a5 01       	movw	r20, r10
    16e4:	94 01       	movw	r18, r8
    16e6:	60 e0       	ldi	r22, 0x00	; 0
    16e8:	70 e0       	ldi	r23, 0x00	; 0
    16ea:	80 e8       	ldi	r24, 0x80	; 128
    16ec:	9f e3       	ldi	r25, 0x3F	; 63
    16ee:	0e 94 3b 19 	call	0x3276	; 0x3276 <__subsf3>
    16f2:	4b 01       	movw	r8, r22
    16f4:	5c 01       	movw	r10, r24
    16f6:	a7 01       	movw	r20, r14
    16f8:	96 01       	movw	r18, r12
    16fa:	60 e0       	ldi	r22, 0x00	; 0
    16fc:	70 e0       	ldi	r23, 0x00	; 0
    16fe:	80 e8       	ldi	r24, 0x80	; 128
    1700:	9f e3       	ldi	r25, 0x3F	; 63
    1702:	0e 94 3b 19 	call	0x3276	; 0x3276 <__subsf3>
    1706:	9b 01       	movw	r18, r22
    1708:	ac 01       	movw	r20, r24
    170a:	c5 01       	movw	r24, r10
    170c:	b4 01       	movw	r22, r8
    170e:	0e 94 a4 19 	call	0x3348	; 0x3348 <__divsf3>
    1712:	4b 01       	movw	r8, r22
    1714:	5c 01       	movw	r10, r24
    1716:	76 ce       	rjmp	.-788    	; 0x1404 <mask_gen+0x94a>
    1718:	a7 01       	movw	r20, r14
    171a:	96 01       	movw	r18, r12
    171c:	c5 01       	movw	r24, r10
    171e:	b4 01       	movw	r22, r8
    1720:	0e 94 a4 19 	call	0x3348	; 0x3348 <__divsf3>
    1724:	4b 01       	movw	r8, r22
    1726:	5c 01       	movw	r10, r24
    1728:	50 ce       	rjmp	.-864    	; 0x13ca <mask_gen+0x910>
    172a:	a7 01       	movw	r20, r14
    172c:	96 01       	movw	r18, r12
    172e:	c5 01       	movw	r24, r10
    1730:	b4 01       	movw	r22, r8
    1732:	0e 94 a4 19 	call	0x3348	; 0x3348 <__divsf3>
    1736:	4b 01       	movw	r8, r22
    1738:	5c 01       	movw	r10, r24
    173a:	18 ce       	rjmp	.-976    	; 0x136c <mask_gen+0x8b2>
    173c:	a7 01       	movw	r20, r14
    173e:	96 01       	movw	r18, r12
    1740:	c5 01       	movw	r24, r10
    1742:	b4 01       	movw	r22, r8
    1744:	0e 94 a4 19 	call	0x3348	; 0x3348 <__divsf3>
    1748:	4b 01       	movw	r8, r22
    174a:	5c 01       	movw	r10, r24
    174c:	69 cc       	rjmp	.-1838   	; 0x1020 <mask_gen+0x566>
    174e:	a7 01       	movw	r20, r14
    1750:	96 01       	movw	r18, r12
    1752:	c5 01       	movw	r24, r10
    1754:	b4 01       	movw	r22, r8
    1756:	0e 94 a4 19 	call	0x3348	; 0x3348 <__divsf3>
    175a:	4b 01       	movw	r8, r22
    175c:	5c 01       	movw	r10, r24
    175e:	31 cc       	rjmp	.-1950   	; 0xfc2 <mask_gen+0x508>
    1760:	a7 01       	movw	r20, r14
    1762:	96 01       	movw	r18, r12
    1764:	c5 01       	movw	r24, r10
    1766:	b4 01       	movw	r22, r8
    1768:	0e 94 a4 19 	call	0x3348	; 0x3348 <__divsf3>
    176c:	4b 01       	movw	r8, r22
    176e:	5c 01       	movw	r10, r24
    1770:	f9 cb       	rjmp	.-2062   	; 0xf64 <mask_gen+0x4aa>
    1772:	a7 01       	movw	r20, r14
    1774:	96 01       	movw	r18, r12
    1776:	c5 01       	movw	r24, r10
    1778:	b4 01       	movw	r22, r8
    177a:	0e 94 a4 19 	call	0x3348	; 0x3348 <__divsf3>
    177e:	4b 01       	movw	r8, r22
    1780:	5c 01       	movw	r10, r24
    1782:	c1 cb       	rjmp	.-2174   	; 0xf06 <mask_gen+0x44c>
    1784:	a7 01       	movw	r20, r14
    1786:	96 01       	movw	r18, r12
    1788:	c5 01       	movw	r24, r10
    178a:	b4 01       	movw	r22, r8
    178c:	0e 94 a4 19 	call	0x3348	; 0x3348 <__divsf3>
    1790:	4b 01       	movw	r8, r22
    1792:	5c 01       	movw	r10, r24
    1794:	bc cd       	rjmp	.-1160   	; 0x130e <mask_gen+0x854>
    1796:	a7 01       	movw	r20, r14
    1798:	96 01       	movw	r18, r12
    179a:	c5 01       	movw	r24, r10
    179c:	b4 01       	movw	r22, r8
    179e:	0e 94 a4 19 	call	0x3348	; 0x3348 <__divsf3>
    17a2:	4b 01       	movw	r8, r22
    17a4:	5c 01       	movw	r10, r24
    17a6:	84 cd       	rjmp	.-1272   	; 0x12b0 <mask_gen+0x7f6>
    17a8:	a7 01       	movw	r20, r14
    17aa:	96 01       	movw	r18, r12
    17ac:	c5 01       	movw	r24, r10
    17ae:	b4 01       	movw	r22, r8
    17b0:	0e 94 a4 19 	call	0x3348	; 0x3348 <__divsf3>
    17b4:	4b 01       	movw	r8, r22
    17b6:	5c 01       	movw	r10, r24
    17b8:	4c cd       	rjmp	.-1384   	; 0x1252 <mask_gen+0x798>
    17ba:	a7 01       	movw	r20, r14
    17bc:	96 01       	movw	r18, r12
    17be:	c5 01       	movw	r24, r10
    17c0:	b4 01       	movw	r22, r8
    17c2:	0e 94 a4 19 	call	0x3348	; 0x3348 <__divsf3>
    17c6:	4b 01       	movw	r8, r22
    17c8:	5c 01       	movw	r10, r24
    17ca:	14 cd       	rjmp	.-1496   	; 0x11f4 <mask_gen+0x73a>
    17cc:	a7 01       	movw	r20, r14
    17ce:	96 01       	movw	r18, r12
    17d0:	c5 01       	movw	r24, r10
    17d2:	b4 01       	movw	r22, r8
    17d4:	0e 94 a4 19 	call	0x3348	; 0x3348 <__divsf3>
    17d8:	4b 01       	movw	r8, r22
    17da:	5c 01       	movw	r10, r24
    17dc:	dd cc       	rjmp	.-1606   	; 0x1198 <mask_gen+0x6de>
    17de:	a7 01       	movw	r20, r14
    17e0:	96 01       	movw	r18, r12
    17e2:	c5 01       	movw	r24, r10
    17e4:	b4 01       	movw	r22, r8
    17e6:	0e 94 a4 19 	call	0x3348	; 0x3348 <__divsf3>
    17ea:	4b 01       	movw	r8, r22
    17ec:	5c 01       	movw	r10, r24
    17ee:	a5 cc       	rjmp	.-1718   	; 0x113a <mask_gen+0x680>
    17f0:	a7 01       	movw	r20, r14
    17f2:	96 01       	movw	r18, r12
    17f4:	c5 01       	movw	r24, r10
    17f6:	b4 01       	movw	r22, r8
    17f8:	0e 94 a4 19 	call	0x3348	; 0x3348 <__divsf3>
    17fc:	4b 01       	movw	r8, r22
    17fe:	5c 01       	movw	r10, r24
    1800:	6d cc       	rjmp	.-1830   	; 0x10dc <mask_gen+0x622>
    1802:	a7 01       	movw	r20, r14
    1804:	96 01       	movw	r18, r12
    1806:	c5 01       	movw	r24, r10
    1808:	b4 01       	movw	r22, r8
    180a:	0e 94 a4 19 	call	0x3348	; 0x3348 <__divsf3>
    180e:	4b 01       	movw	r8, r22
    1810:	5c 01       	movw	r10, r24
    1812:	35 cc       	rjmp	.-1942   	; 0x107e <mask_gen+0x5c4>
    1814:	a5 01       	movw	r20, r10
    1816:	94 01       	movw	r18, r8
    1818:	60 e0       	ldi	r22, 0x00	; 0
    181a:	70 e0       	ldi	r23, 0x00	; 0
    181c:	80 e8       	ldi	r24, 0x80	; 128
    181e:	9f e3       	ldi	r25, 0x3F	; 63
    1820:	0e 94 3b 19 	call	0x3276	; 0x3276 <__subsf3>
    1824:	4b 01       	movw	r8, r22
    1826:	5c 01       	movw	r10, r24
    1828:	a7 01       	movw	r20, r14
    182a:	96 01       	movw	r18, r12
    182c:	60 e0       	ldi	r22, 0x00	; 0
    182e:	70 e0       	ldi	r23, 0x00	; 0
    1830:	80 e8       	ldi	r24, 0x80	; 128
    1832:	9f e3       	ldi	r25, 0x3F	; 63
    1834:	0e 94 3b 19 	call	0x3276	; 0x3276 <__subsf3>
    1838:	9b 01       	movw	r18, r22
    183a:	ac 01       	movw	r20, r24
    183c:	c5 01       	movw	r24, r10
    183e:	b4 01       	movw	r22, r8
    1840:	0e 94 a4 19 	call	0x3348	; 0x3348 <__divsf3>
    1844:	4b 01       	movw	r8, r22
    1846:	5c 01       	movw	r10, r24
    1848:	fa cd       	rjmp	.-1036   	; 0x143e <mask_gen+0x984>
    184a:	a5 01       	movw	r20, r10
    184c:	94 01       	movw	r18, r8
    184e:	60 e0       	ldi	r22, 0x00	; 0
    1850:	70 e0       	ldi	r23, 0x00	; 0
    1852:	80 e8       	ldi	r24, 0x80	; 128
    1854:	9f e3       	ldi	r25, 0x3F	; 63
    1856:	0e 94 3b 19 	call	0x3276	; 0x3276 <__subsf3>
    185a:	4b 01       	movw	r8, r22
    185c:	5c 01       	movw	r10, r24
    185e:	a7 01       	movw	r20, r14
    1860:	96 01       	movw	r18, r12
    1862:	60 e0       	ldi	r22, 0x00	; 0
    1864:	70 e0       	ldi	r23, 0x00	; 0
    1866:	80 e8       	ldi	r24, 0x80	; 128
    1868:	9f e3       	ldi	r25, 0x3F	; 63
    186a:	0e 94 3b 19 	call	0x3276	; 0x3276 <__subsf3>
    186e:	9b 01       	movw	r18, r22
    1870:	ac 01       	movw	r20, r24
    1872:	c5 01       	movw	r24, r10
    1874:	b4 01       	movw	r22, r8
    1876:	0e 94 a4 19 	call	0x3348	; 0x3348 <__divsf3>
    187a:	4b 01       	movw	r8, r22
    187c:	5c 01       	movw	r10, r24
    187e:	c8 ca       	rjmp	.-2672   	; 0xe10 <mask_gen+0x356>
    1880:	a5 01       	movw	r20, r10
    1882:	94 01       	movw	r18, r8
    1884:	60 e0       	ldi	r22, 0x00	; 0
    1886:	70 e0       	ldi	r23, 0x00	; 0
    1888:	80 e8       	ldi	r24, 0x80	; 128
    188a:	9f e3       	ldi	r25, 0x3F	; 63
    188c:	0e 94 3b 19 	call	0x3276	; 0x3276 <__subsf3>
    1890:	4b 01       	movw	r8, r22
    1892:	5c 01       	movw	r10, r24
    1894:	a7 01       	movw	r20, r14
    1896:	96 01       	movw	r18, r12
    1898:	60 e0       	ldi	r22, 0x00	; 0
    189a:	70 e0       	ldi	r23, 0x00	; 0
    189c:	80 e8       	ldi	r24, 0x80	; 128
    189e:	9f e3       	ldi	r25, 0x3F	; 63
    18a0:	0e 94 3b 19 	call	0x3276	; 0x3276 <__subsf3>
    18a4:	9b 01       	movw	r18, r22
    18a6:	ac 01       	movw	r20, r24
    18a8:	c5 01       	movw	r24, r10
    18aa:	b4 01       	movw	r22, r8
    18ac:	0e 94 a4 19 	call	0x3348	; 0x3348 <__divsf3>
    18b0:	4b 01       	movw	r8, r22
    18b2:	5c 01       	movw	r10, r24
    18b4:	ca ca       	rjmp	.-2668   	; 0xe4a <mask_gen+0x390>

000018b6 <diffusionmodule>:
}

void diffusionmodule(uint8_t interarray[])
{
    18b6:	2f 92       	push	r2
    18b8:	3f 92       	push	r3
    18ba:	4f 92       	push	r4
    18bc:	5f 92       	push	r5
    18be:	6f 92       	push	r6
    18c0:	7f 92       	push	r7
    18c2:	8f 92       	push	r8
    18c4:	9f 92       	push	r9
    18c6:	af 92       	push	r10
    18c8:	bf 92       	push	r11
    18ca:	cf 92       	push	r12
    18cc:	df 92       	push	r13
    18ce:	ef 92       	push	r14
    18d0:	ff 92       	push	r15
    18d2:	0f 93       	push	r16
    18d4:	1f 93       	push	r17
    18d6:	cf 93       	push	r28
    18d8:	df 93       	push	r29
    18da:	cd b7       	in	r28, 0x3d	; 61
    18dc:	de b7       	in	r29, 0x3e	; 62
    18de:	e6 97       	sbiw	r28, 0x36	; 54
    18e0:	cd bf       	out	0x3d, r28	; 61
    18e2:	de bf       	out	0x3e, r29	; 62
	uint8_t tem = 0, add_tem[16],mul_inv_tem[16];//去除掩码用
	add_tem[0] = add_mask[0];
    18e4:	e0 90 53 23 	lds	r14, 0x2353	; 0x802353 <add_mask>
    18e8:	e9 8a       	std	Y+17, r14	; 0x11
	mul_inv_tem[15] = mul_mask_2;
    18ea:	30 90 63 24 	lds	r3, 0x2463	; 0x802463 <mul_mask_2>
    18ee:	38 8a       	std	Y+16, r3	; 0x10
	for (uint8_t i = 0; i < 16; i++)//为加法增加掩码
	{
		intermediate[i] ^= add_mask[i] ;
    18f0:	20 90 54 23 	lds	r2, 0x2354	; 0x802354 <add_mask+0x1>
    18f4:	a0 91 43 23 	lds	r26, 0x2343	; 0x802343 <intermediate+0x1>
    18f8:	02 2d       	mov	r16, r2
    18fa:	0a 27       	eor	r16, r26
    18fc:	40 90 55 23 	lds	r4, 0x2355	; 0x802355 <add_mask+0x2>
    1900:	f0 91 44 23 	lds	r31, 0x2344	; 0x802344 <intermediate+0x2>
    1904:	f4 25       	eor	r31, r4
    1906:	50 90 56 23 	lds	r5, 0x2356	; 0x802356 <add_mask+0x3>
    190a:	e0 91 45 23 	lds	r30, 0x2345	; 0x802345 <intermediate+0x3>
    190e:	e5 25       	eor	r30, r5
    1910:	60 90 57 23 	lds	r6, 0x2357	; 0x802357 <add_mask+0x4>
    1914:	70 91 46 23 	lds	r23, 0x2346	; 0x802346 <intermediate+0x4>
    1918:	76 25       	eor	r23, r6
    191a:	70 90 58 23 	lds	r7, 0x2358	; 0x802358 <add_mask+0x5>
    191e:	60 91 47 23 	lds	r22, 0x2347	; 0x802347 <intermediate+0x5>
    1922:	67 25       	eor	r22, r7
    1924:	80 90 59 23 	lds	r8, 0x2359	; 0x802359 <add_mask+0x6>
    1928:	50 91 48 23 	lds	r21, 0x2348	; 0x802348 <intermediate+0x6>
    192c:	58 25       	eor	r21, r8
    192e:	90 90 5a 23 	lds	r9, 0x235A	; 0x80235a <add_mask+0x7>
    1932:	40 91 49 23 	lds	r20, 0x2349	; 0x802349 <intermediate+0x7>
    1936:	49 25       	eor	r20, r9
    1938:	a0 90 5b 23 	lds	r10, 0x235B	; 0x80235b <add_mask+0x8>
    193c:	30 91 4a 23 	lds	r19, 0x234A	; 0x80234a <intermediate+0x8>
    1940:	3a 25       	eor	r19, r10
    1942:	10 91 5c 23 	lds	r17, 0x235C	; 0x80235c <add_mask+0x9>
    1946:	b0 91 4b 23 	lds	r27, 0x234B	; 0x80234b <intermediate+0x9>
    194a:	b1 27       	eor	r27, r17
    194c:	80 91 5d 23 	lds	r24, 0x235D	; 0x80235d <add_mask+0xa>
    1950:	f0 90 4c 23 	lds	r15, 0x234C	; 0x80234c <intermediate+0xa>
    1954:	f8 26       	eor	r15, r24
    1956:	fb a6       	std	Y+43, r15	; 0x2b
    1958:	b0 90 5e 23 	lds	r11, 0x235E	; 0x80235e <add_mask+0xb>
    195c:	90 91 4d 23 	lds	r25, 0x234D	; 0x80234d <intermediate+0xb>
    1960:	9b 25       	eor	r25, r11
    1962:	9b ab       	std	Y+51, r25	; 0x33
    1964:	c0 90 5f 23 	lds	r12, 0x235F	; 0x80235f <add_mask+0xc>
    1968:	90 91 4e 23 	lds	r25, 0x234E	; 0x80234e <intermediate+0xc>
    196c:	9c 25       	eor	r25, r12
    196e:	9a ab       	std	Y+50, r25	; 0x32
    1970:	d0 90 60 23 	lds	r13, 0x2360	; 0x802360 <add_mask+0xd>
    1974:	90 91 4f 23 	lds	r25, 0x234F	; 0x80234f <intermediate+0xd>
    1978:	9d 25       	eor	r25, r13
    197a:	99 ab       	std	Y+49, r25	; 0x31
    197c:	20 91 61 23 	lds	r18, 0x2361	; 0x802361 <add_mask+0xe>
    1980:	90 91 50 23 	lds	r25, 0x2350	; 0x802350 <intermediate+0xe>
    1984:	92 27       	eor	r25, r18
    1986:	98 ab       	std	Y+48, r25	; 0x30
    1988:	f0 90 62 23 	lds	r15, 0x2362	; 0x802362 <add_mask+0xf>
    198c:	f9 a6       	std	Y+41, r15	; 0x29
    198e:	90 91 51 23 	lds	r25, 0x2351	; 0x802351 <intermediate+0xf>
    1992:	f9 26       	eor	r15, r25
    1994:	ff a6       	std	Y+47, r15	; 0x2f
    1996:	90 91 64 24 	lds	r25, 0x2464	; 0x802464 <s_mask_2>
	}
	for (uint8_t i=0;i<16;i++)
	{
		intermediate[i]	^= s_mask_2;
    199a:	a0 91 42 23 	lds	r26, 0x2342	; 0x802342 <intermediate>
    199e:	ae 25       	eor	r26, r14
	}
	for (uint8_t i = 1; i < 16; i++)//加法扩散（正向）
	{
		intermediate[i] ^= intermediate[i - 1];
    19a0:	fa 2e       	mov	r15, r26
    19a2:	f9 26       	eor	r15, r25
    19a4:	fc aa       	std	Y+52, r15	; 0x34
    19a6:	a0 27       	eor	r26, r16
		add_tem[i] = add_mask[i] ^ add_tem[i - 1];
    19a8:	2e 24       	eor	r2, r14
	{
		intermediate[i]	^= s_mask_2;
	}
	for (uint8_t i = 1; i < 16; i++)//加法扩散（正向）
	{
		intermediate[i] ^= intermediate[i - 1];
    19aa:	f9 27       	eor	r31, r25
    19ac:	fa 27       	eor	r31, r26
    19ae:	fd ab       	std	Y+53, r31	; 0x35
		add_tem[i] = add_mask[i] ^ add_tem[i - 1];
    19b0:	42 24       	eor	r4, r2
	{
		intermediate[i]	^= s_mask_2;
	}
	for (uint8_t i = 1; i < 16; i++)//加法扩散（正向）
	{
		intermediate[i] ^= intermediate[i - 1];
    19b2:	e9 27       	eor	r30, r25
    19b4:	ef 27       	eor	r30, r31
		add_tem[i] = add_mask[i] ^ add_tem[i - 1];
    19b6:	54 24       	eor	r5, r4
	{
		intermediate[i]	^= s_mask_2;
	}
	for (uint8_t i = 1; i < 16; i++)//加法扩散（正向）
	{
		intermediate[i] ^= intermediate[i - 1];
    19b8:	79 27       	eor	r23, r25
    19ba:	7e 27       	eor	r23, r30
		add_tem[i] = add_mask[i] ^ add_tem[i - 1];
    19bc:	65 24       	eor	r6, r5
	{
		intermediate[i]	^= s_mask_2;
	}
	for (uint8_t i = 1; i < 16; i++)//加法扩散（正向）
	{
		intermediate[i] ^= intermediate[i - 1];
    19be:	69 27       	eor	r22, r25
    19c0:	67 27       	eor	r22, r23
		add_tem[i] = add_mask[i] ^ add_tem[i - 1];
    19c2:	76 24       	eor	r7, r6
	{
		intermediate[i]	^= s_mask_2;
	}
	for (uint8_t i = 1; i < 16; i++)//加法扩散（正向）
	{
		intermediate[i] ^= intermediate[i - 1];
    19c4:	59 27       	eor	r21, r25
    19c6:	56 27       	eor	r21, r22
		add_tem[i] = add_mask[i] ^ add_tem[i - 1];
    19c8:	87 24       	eor	r8, r7
	{
		intermediate[i]	^= s_mask_2;
	}
	for (uint8_t i = 1; i < 16; i++)//加法扩散（正向）
	{
		intermediate[i] ^= intermediate[i - 1];
    19ca:	49 27       	eor	r20, r25
    19cc:	45 27       	eor	r20, r21
		add_tem[i] = add_mask[i] ^ add_tem[i - 1];
    19ce:	98 24       	eor	r9, r8
	{
		intermediate[i]	^= s_mask_2;
	}
	for (uint8_t i = 1; i < 16; i++)//加法扩散（正向）
	{
		intermediate[i] ^= intermediate[i - 1];
    19d0:	39 27       	eor	r19, r25
    19d2:	34 27       	eor	r19, r20
		add_tem[i] = add_mask[i] ^ add_tem[i - 1];
    19d4:	a9 24       	eor	r10, r9
	{
		intermediate[i]	^= s_mask_2;
	}
	for (uint8_t i = 1; i < 16; i++)//加法扩散（正向）
	{
		intermediate[i] ^= intermediate[i - 1];
    19d6:	b9 27       	eor	r27, r25
    19d8:	b3 27       	eor	r27, r19
    19da:	be a7       	std	Y+46, r27	; 0x2e
		add_tem[i] = add_mask[i] ^ add_tem[i - 1];
    19dc:	1a 25       	eor	r17, r10
    19de:	1d a7       	std	Y+45, r17	; 0x2d
	{
		intermediate[i]	^= s_mask_2;
	}
	for (uint8_t i = 1; i < 16; i++)//加法扩散（正向）
	{
		intermediate[i] ^= intermediate[i - 1];
    19e0:	fb a4       	ldd	r15, Y+43	; 0x2b
    19e2:	f9 26       	eor	r15, r25
    19e4:	bf 25       	eor	r27, r15
    19e6:	bc a7       	std	Y+44, r27	; 0x2c
		add_tem[i] = add_mask[i] ^ add_tem[i - 1];
    19e8:	b1 2f       	mov	r27, r17
    19ea:	b8 27       	eor	r27, r24
    19ec:	bb a7       	std	Y+43, r27	; 0x2b
	{
		intermediate[i]	^= s_mask_2;
	}
	for (uint8_t i = 1; i < 16; i++)//加法扩散（正向）
	{
		intermediate[i] ^= intermediate[i - 1];
    19ee:	fb a8       	ldd	r15, Y+51	; 0x33
    19f0:	f9 26       	eor	r15, r25
    19f2:	fc a5       	ldd	r31, Y+44	; 0x2c
    19f4:	ff 26       	eor	r15, r31
		add_tem[i] = add_mask[i] ^ add_tem[i - 1];
    19f6:	bb 26       	eor	r11, r27
	{
		intermediate[i]	^= s_mask_2;
	}
	for (uint8_t i = 1; i < 16; i++)//加法扩散（正向）
	{
		intermediate[i] ^= intermediate[i - 1];
    19f8:	0a a9       	ldd	r16, Y+50	; 0x32
    19fa:	09 27       	eor	r16, r25
    19fc:	0f 25       	eor	r16, r15
		add_tem[i] = add_mask[i] ^ add_tem[i - 1];
    19fe:	cb 24       	eor	r12, r11
	{
		intermediate[i]	^= s_mask_2;
	}
	for (uint8_t i = 1; i < 16; i++)//加法扩散（正向）
	{
		intermediate[i] ^= intermediate[i - 1];
    1a00:	19 a9       	ldd	r17, Y+49	; 0x31
    1a02:	19 27       	eor	r17, r25
    1a04:	10 27       	eor	r17, r16
		add_tem[i] = add_mask[i] ^ add_tem[i - 1];
    1a06:	dc 24       	eor	r13, r12
	{
		intermediate[i]	^= s_mask_2;
	}
	for (uint8_t i = 1; i < 16; i++)//加法扩散（正向）
	{
		intermediate[i] ^= intermediate[i - 1];
    1a08:	b8 a9       	ldd	r27, Y+48	; 0x30
    1a0a:	b9 27       	eor	r27, r25
    1a0c:	b1 27       	eor	r27, r17
		add_tem[i] = add_mask[i] ^ add_tem[i - 1];
    1a0e:	2d 25       	eor	r18, r13
    1a10:	80 91 65 24 	lds	r24, 0x2465	; 0x802465 <mul_mask_1>
	}
	for (uint8_t i = 0; i < 16; i++)//将加法掩码转化为乘法掩码
	{
		add_tem[i] ^= mul_mask_1;
		intermediate[i] ^= add_tem[i];
    1a14:	e8 26       	eor	r14, r24
    1a16:	fc a9       	ldd	r31, Y+52	; 0x34
    1a18:	ef 26       	eor	r14, r31
    1a1a:	e0 92 42 23 	sts	0x2342, r14	; 0x802342 <intermediate>
    1a1e:	28 26       	eor	r2, r24
    1a20:	2a 26       	eor	r2, r26
    1a22:	20 92 43 23 	sts	0x2343, r2	; 0x802343 <intermediate+0x1>
    1a26:	48 26       	eor	r4, r24
    1a28:	ed a8       	ldd	r14, Y+53	; 0x35
    1a2a:	4e 24       	eor	r4, r14
    1a2c:	40 92 44 23 	sts	0x2344, r4	; 0x802344 <intermediate+0x2>
    1a30:	58 26       	eor	r5, r24
    1a32:	5e 26       	eor	r5, r30
    1a34:	50 92 45 23 	sts	0x2345, r5	; 0x802345 <intermediate+0x3>
    1a38:	68 26       	eor	r6, r24
    1a3a:	76 25       	eor	r23, r6
    1a3c:	70 93 46 23 	sts	0x2346, r23	; 0x802346 <intermediate+0x4>
    1a40:	78 26       	eor	r7, r24
    1a42:	67 25       	eor	r22, r7
    1a44:	60 93 47 23 	sts	0x2347, r22	; 0x802347 <intermediate+0x5>
    1a48:	88 26       	eor	r8, r24
    1a4a:	58 25       	eor	r21, r8
    1a4c:	50 93 48 23 	sts	0x2348, r21	; 0x802348 <intermediate+0x6>
    1a50:	98 26       	eor	r9, r24
    1a52:	49 25       	eor	r20, r9
    1a54:	40 93 49 23 	sts	0x2349, r20	; 0x802349 <intermediate+0x7>
    1a58:	a8 26       	eor	r10, r24
    1a5a:	3a 25       	eor	r19, r10
    1a5c:	30 93 4a 23 	sts	0x234A, r19	; 0x80234a <intermediate+0x8>
    1a60:	3d a5       	ldd	r19, Y+45	; 0x2d
    1a62:	38 27       	eor	r19, r24
    1a64:	4e a5       	ldd	r20, Y+46	; 0x2e
    1a66:	34 27       	eor	r19, r20
    1a68:	30 93 4b 23 	sts	0x234B, r19	; 0x80234b <intermediate+0x9>
    1a6c:	3b a5       	ldd	r19, Y+43	; 0x2b
    1a6e:	38 27       	eor	r19, r24
    1a70:	7c a5       	ldd	r23, Y+44	; 0x2c
    1a72:	37 27       	eor	r19, r23
    1a74:	30 93 4c 23 	sts	0x234C, r19	; 0x80234c <intermediate+0xa>
    1a78:	b8 26       	eor	r11, r24
    1a7a:	fb 24       	eor	r15, r11
    1a7c:	f0 92 4d 23 	sts	0x234D, r15	; 0x80234d <intermediate+0xb>
    1a80:	c8 26       	eor	r12, r24
    1a82:	0c 25       	eor	r16, r12
    1a84:	00 93 4e 23 	sts	0x234E, r16	; 0x80234e <intermediate+0xc>
    1a88:	d8 26       	eor	r13, r24
    1a8a:	1d 25       	eor	r17, r13
    1a8c:	10 93 4f 23 	sts	0x234F, r17	; 0x80234f <intermediate+0xd>
    1a90:	38 2f       	mov	r19, r24
    1a92:	32 27       	eor	r19, r18
    1a94:	3b 27       	eor	r19, r27
    1a96:	30 93 50 23 	sts	0x2350, r19	; 0x802350 <intermediate+0xe>
    1a9a:	af a5       	ldd	r26, Y+47	; 0x2f
    1a9c:	9a 27       	eor	r25, r26
    1a9e:	9b 27       	eor	r25, r27
    1aa0:	b9 a5       	ldd	r27, Y+41	; 0x29
    1aa2:	2b 27       	eor	r18, r27
    1aa4:	28 27       	eor	r18, r24
    1aa6:	92 27       	eor	r25, r18
    1aa8:	90 93 51 23 	sts	0x2351, r25	; 0x802351 <intermediate+0xf>
	return ((x << 1) ^ ((x & 0x80) ? 0x1b : 0x00));
}

unsigned char multiply(unsigned char a, unsigned char b)
{
	unsigned char temp[8] = { a };
    1aac:	89 a3       	std	Y+33, r24	; 0x21
	}
}
//*************************扩散环节**********************************//
unsigned char XTIME(unsigned char x)
{
	return ((x << 1) ^ ((x & 0x80) ? 0x1b : 0x00));
    1aae:	87 fd       	sbrc	r24, 7
    1ab0:	c5 c3       	rjmp	.+1930   	; 0x223c <diffusionmodule+0x986>
    1ab2:	90 e0       	ldi	r25, 0x00	; 0
    1ab4:	28 2f       	mov	r18, r24
    1ab6:	22 0f       	add	r18, r18
    1ab8:	92 27       	eor	r25, r18
    1aba:	97 fd       	sbrc	r25, 7
    1abc:	c5 c3       	rjmp	.+1930   	; 0x2248 <diffusionmodule+0x992>
    1abe:	20 e0       	ldi	r18, 0x00	; 0
    1ac0:	59 2f       	mov	r21, r25
    1ac2:	55 0f       	add	r21, r21
    1ac4:	52 27       	eor	r21, r18
    1ac6:	57 fd       	sbrc	r21, 7
    1ac8:	c5 c3       	rjmp	.+1930   	; 0x2254 <diffusionmodule+0x99e>
    1aca:	20 e0       	ldi	r18, 0x00	; 0
    1acc:	45 2f       	mov	r20, r21
    1ace:	44 0f       	add	r20, r20
    1ad0:	42 27       	eor	r20, r18
    1ad2:	47 fd       	sbrc	r20, 7
    1ad4:	c5 c3       	rjmp	.+1930   	; 0x2260 <diffusionmodule+0x9aa>
    1ad6:	20 e0       	ldi	r18, 0x00	; 0
    1ad8:	34 2f       	mov	r19, r20
    1ada:	33 0f       	add	r19, r19
    1adc:	32 27       	eor	r19, r18
    1ade:	37 fd       	sbrc	r19, 7
    1ae0:	c5 c3       	rjmp	.+1930   	; 0x226c <diffusionmodule+0x9b6>
    1ae2:	20 e0       	ldi	r18, 0x00	; 0
    1ae4:	63 2f       	mov	r22, r19
    1ae6:	66 0f       	add	r22, r22
    1ae8:	26 27       	eor	r18, r22
    1aea:	27 fd       	sbrc	r18, 7
    1aec:	c5 c3       	rjmp	.+1930   	; 0x2278 <diffusionmodule+0x9c2>
    1aee:	60 e0       	ldi	r22, 0x00	; 0
    1af0:	72 2f       	mov	r23, r18
    1af2:	77 0f       	add	r23, r23
    1af4:	67 27       	eor	r22, r23
	unsigned char tempmultiply = 0x00;
	for (int i = 1; i < 8; i++)
	{
		temp[i] = XTIME(temp[i - 1]);
	}
	tempmultiply = (b & 0x01)*a;
    1af6:	e3 2d       	mov	r30, r3
    1af8:	e1 70       	andi	r30, 0x01	; 1
    1afa:	9e 2e       	mov	r9, r30
    1afc:	43 2c       	mov	r4, r3
    1afe:	51 2c       	mov	r5, r1
	for (int i = 1; i < 8; i++)
	{
		tempmultiply ^= (((b >> i) & 0x01)*temp[i]);
    1b00:	f2 01       	movw	r30, r4
    1b02:	f5 95       	asr	r31
    1b04:	e7 95       	ror	r30
    1b06:	7e 2f       	mov	r23, r30
    1b08:	71 70       	andi	r23, 0x01	; 1
    1b0a:	c7 2e       	mov	r12, r23
    1b0c:	98 9e       	mul	r9, r24
    1b0e:	80 2d       	mov	r24, r0
    1b10:	11 24       	eor	r1, r1
    1b12:	97 9f       	mul	r25, r23
    1b14:	90 2d       	mov	r25, r0
    1b16:	11 24       	eor	r1, r1
    1b18:	89 27       	eor	r24, r25
    1b1a:	f2 01       	movw	r30, r4
    1b1c:	f5 95       	asr	r31
    1b1e:	e7 95       	ror	r30
    1b20:	f5 95       	asr	r31
    1b22:	e7 95       	ror	r30
    1b24:	9e 2f       	mov	r25, r30
    1b26:	91 70       	andi	r25, 0x01	; 1
    1b28:	d9 2e       	mov	r13, r25
    1b2a:	59 9f       	mul	r21, r25
    1b2c:	50 2d       	mov	r21, r0
    1b2e:	11 24       	eor	r1, r1
    1b30:	85 27       	eor	r24, r21
    1b32:	f2 01       	movw	r30, r4
    1b34:	f5 95       	asr	r31
    1b36:	e7 95       	ror	r30
    1b38:	f5 95       	asr	r31
    1b3a:	e7 95       	ror	r30
    1b3c:	f5 95       	asr	r31
    1b3e:	e7 95       	ror	r30
    1b40:	ae 2f       	mov	r26, r30
    1b42:	a1 70       	andi	r26, 0x01	; 1
    1b44:	ea 2e       	mov	r14, r26
    1b46:	4a 9f       	mul	r20, r26
    1b48:	40 2d       	mov	r20, r0
    1b4a:	11 24       	eor	r1, r1
    1b4c:	84 27       	eor	r24, r20
    1b4e:	a2 01       	movw	r20, r4
    1b50:	55 95       	asr	r21
    1b52:	47 95       	ror	r20
    1b54:	55 95       	asr	r21
    1b56:	47 95       	ror	r20
    1b58:	55 95       	asr	r21
    1b5a:	47 95       	ror	r20
    1b5c:	55 95       	asr	r21
    1b5e:	47 95       	ror	r20
    1b60:	b4 2f       	mov	r27, r20
    1b62:	b1 70       	andi	r27, 0x01	; 1
    1b64:	fb 2e       	mov	r15, r27
    1b66:	3b 9f       	mul	r19, r27
    1b68:	30 2d       	mov	r19, r0
    1b6a:	11 24       	eor	r1, r1
    1b6c:	83 27       	eor	r24, r19
    1b6e:	a2 01       	movw	r20, r4
    1b70:	55 95       	asr	r21
    1b72:	47 95       	ror	r20
    1b74:	55 95       	asr	r21
    1b76:	47 95       	ror	r20
    1b78:	55 95       	asr	r21
    1b7a:	47 95       	ror	r20
    1b7c:	55 95       	asr	r21
    1b7e:	47 95       	ror	r20
    1b80:	55 95       	asr	r21
    1b82:	47 95       	ror	r20
    1b84:	74 2f       	mov	r23, r20
    1b86:	71 70       	andi	r23, 0x01	; 1
    1b88:	27 9f       	mul	r18, r23
    1b8a:	70 2c       	mov	r7, r0
    1b8c:	11 24       	eor	r1, r1
    1b8e:	87 25       	eor	r24, r7
    1b90:	92 01       	movw	r18, r4
    1b92:	02 2e       	mov	r0, r18
    1b94:	23 2f       	mov	r18, r19
    1b96:	00 0c       	add	r0, r0
    1b98:	22 1f       	adc	r18, r18
    1b9a:	33 0b       	sbc	r19, r19
    1b9c:	00 0c       	add	r0, r0
    1b9e:	22 1f       	adc	r18, r18
    1ba0:	33 1f       	adc	r19, r19
    1ba2:	e2 2f       	mov	r30, r18
    1ba4:	e1 70       	andi	r30, 0x01	; 1
    1ba6:	be 2e       	mov	r11, r30
    1ba8:	6e 9f       	mul	r22, r30
    1baa:	70 2c       	mov	r7, r0
    1bac:	11 24       	eor	r1, r1
    1bae:	87 25       	eor	r24, r7
    1bb0:	a2 01       	movw	r20, r4
    1bb2:	44 0f       	add	r20, r20
    1bb4:	45 2f       	mov	r20, r21
    1bb6:	44 1f       	adc	r20, r20
    1bb8:	55 0b       	sbc	r21, r21
    1bba:	84 2e       	mov	r8, r20
    1bbc:	26 2f       	mov	r18, r22
    1bbe:	30 e0       	ldi	r19, 0x00	; 0
    1bc0:	22 0f       	add	r18, r18
    1bc2:	33 1f       	adc	r19, r19
    1bc4:	67 fd       	sbrc	r22, 7
    1bc6:	6a c3       	rjmp	.+1748   	; 0x229c <diffusionmodule+0x9e6>
    1bc8:	90 e0       	ldi	r25, 0x00	; 0
    1bca:	29 27       	eor	r18, r25
    1bcc:	24 9f       	mul	r18, r20
    1bce:	70 2c       	mov	r7, r0
    1bd0:	11 24       	eor	r1, r1
    1bd2:	78 26       	eor	r7, r24
    1bd4:	a2 e4       	ldi	r26, 0x42	; 66
    1bd6:	b3 e2       	ldi	r27, 0x23	; 35
    1bd8:	42 e5       	ldi	r20, 0x52	; 82
    1bda:	53 e2       	ldi	r21, 0x23	; 35
    1bdc:	fd 01       	movw	r30, r26
    1bde:	a9 a7       	std	Y+41, r26	; 0x29
    1be0:	ba a7       	std	Y+42, r27	; 0x2a
    1be2:	37 2f       	mov	r19, r23
    1be4:	5d c0       	rjmp	.+186    	; 0x1ca0 <diffusionmodule+0x3ea>
	}
}
//*************************扩散环节**********************************//
unsigned char XTIME(unsigned char x)
{
	return ((x << 1) ^ ((x & 0x80) ? 0x1b : 0x00));
    1be6:	60 e0       	ldi	r22, 0x00	; 0
    1be8:	96 2f       	mov	r25, r22
    1bea:	98 27       	eor	r25, r24
    1bec:	69 2f       	mov	r22, r25
    1bee:	70 e0       	ldi	r23, 0x00	; 0
    1bf0:	66 0f       	add	r22, r22
    1bf2:	77 1f       	adc	r23, r23
    1bf4:	97 fd       	sbrc	r25, 7
    1bf6:	64 c0       	rjmp	.+200    	; 0x1cc0 <diffusionmodule+0x40a>
    1bf8:	80 e0       	ldi	r24, 0x00	; 0
    1bfa:	86 27       	eor	r24, r22
    1bfc:	68 2f       	mov	r22, r24
    1bfe:	70 e0       	ldi	r23, 0x00	; 0
    1c00:	66 0f       	add	r22, r22
    1c02:	77 1f       	adc	r23, r23
    1c04:	87 fd       	sbrc	r24, 7
    1c06:	64 c0       	rjmp	.+200    	; 0x1cd0 <diffusionmodule+0x41a>
    1c08:	10 e0       	ldi	r17, 0x00	; 0
    1c0a:	16 27       	eor	r17, r22
    1c0c:	61 2f       	mov	r22, r17
    1c0e:	70 e0       	ldi	r23, 0x00	; 0
    1c10:	66 0f       	add	r22, r22
    1c12:	77 1f       	adc	r23, r23
    1c14:	17 fd       	sbrc	r17, 7
    1c16:	64 c0       	rjmp	.+200    	; 0x1ce0 <diffusionmodule+0x42a>
    1c18:	b0 e0       	ldi	r27, 0x00	; 0
    1c1a:	ab 2e       	mov	r10, r27
    1c1c:	a6 26       	eor	r10, r22
    1c1e:	6a 2d       	mov	r22, r10
    1c20:	70 e0       	ldi	r23, 0x00	; 0
    1c22:	66 0f       	add	r22, r22
    1c24:	77 1f       	adc	r23, r23
    1c26:	a7 fc       	sbrc	r10, 7
    1c28:	64 c0       	rjmp	.+200    	; 0x1cf2 <diffusionmodule+0x43c>
    1c2a:	00 e0       	ldi	r16, 0x00	; 0
    1c2c:	06 27       	eor	r16, r22
    1c2e:	60 2f       	mov	r22, r16
    1c30:	70 e0       	ldi	r23, 0x00	; 0
    1c32:	66 0f       	add	r22, r22
    1c34:	77 1f       	adc	r23, r23
    1c36:	07 fd       	sbrc	r16, 7
    1c38:	64 c0       	rjmp	.+200    	; 0x1d02 <diffusionmodule+0x44c>
    1c3a:	b0 e0       	ldi	r27, 0x00	; 0
    1c3c:	7b 2f       	mov	r23, r27
    1c3e:	76 27       	eor	r23, r22
		temp[i] = XTIME(temp[i - 1]);
	}
	tempmultiply = (b & 0x01)*a;
	for (int i = 1; i < 8; i++)
	{
		tempmultiply ^= (((b >> i) & 0x01)*temp[i]);
    1c40:	9c 9d       	mul	r25, r12
    1c42:	90 2d       	mov	r25, r0
    1c44:	11 24       	eor	r1, r1
    1c46:	29 9d       	mul	r18, r9
    1c48:	20 2d       	mov	r18, r0
    1c4a:	11 24       	eor	r1, r1
    1c4c:	92 27       	eor	r25, r18
    1c4e:	8d 9d       	mul	r24, r13
    1c50:	60 2d       	mov	r22, r0
    1c52:	11 24       	eor	r1, r1
    1c54:	89 2f       	mov	r24, r25
    1c56:	86 27       	eor	r24, r22
    1c58:	1e 9d       	mul	r17, r14
    1c5a:	60 2d       	mov	r22, r0
    1c5c:	11 24       	eor	r1, r1
    1c5e:	86 27       	eor	r24, r22
    1c60:	af 9c       	mul	r10, r15
    1c62:	a0 2c       	mov	r10, r0
    1c64:	11 24       	eor	r1, r1
    1c66:	8a 25       	eor	r24, r10
    1c68:	03 9f       	mul	r16, r19
    1c6a:	90 2d       	mov	r25, r0
    1c6c:	11 24       	eor	r1, r1
    1c6e:	08 2f       	mov	r16, r24
    1c70:	09 27       	eor	r16, r25
    1c72:	7b 9d       	mul	r23, r11
    1c74:	80 2d       	mov	r24, r0
    1c76:	11 24       	eor	r1, r1
    1c78:	08 27       	eor	r16, r24
    1c7a:	87 2f       	mov	r24, r23
    1c7c:	90 e0       	ldi	r25, 0x00	; 0
    1c7e:	88 0f       	add	r24, r24
    1c80:	99 1f       	adc	r25, r25
    1c82:	77 fd       	sbrc	r23, 7
    1c84:	40 c0       	rjmp	.+128    	; 0x1d06 <diffusionmodule+0x450>
    1c86:	20 e0       	ldi	r18, 0x00	; 0
    1c88:	92 2f       	mov	r25, r18
    1c8a:	98 27       	eor	r25, r24
    1c8c:	98 9d       	mul	r25, r8
    1c8e:	90 2d       	mov	r25, r0
    1c90:	11 24       	eor	r1, r1
    1c92:	80 2f       	mov	r24, r16
    1c94:	89 27       	eor	r24, r25
	//对乘法掩码
	uint8_t mul_temp = multiply(mul_mask_1, mul_mask_2);
	for (uint8_t i = 0; i < 16; i++)
	{
		intermediate[i] = multiply(intermediate[i], mul_mask_2);
		intermediate[i] ^= mul_temp;
    1c96:	87 25       	eor	r24, r7
    1c98:	81 93       	st	Z+, r24
		add_tem[i] ^= mul_mask_1;
		intermediate[i] ^= add_tem[i];
	}
	//对乘法掩码
	uint8_t mul_temp = multiply(mul_mask_1, mul_mask_2);
	for (uint8_t i = 0; i < 16; i++)
    1c9a:	4e 17       	cp	r20, r30
    1c9c:	5f 07       	cpc	r21, r31
    1c9e:	a9 f1       	breq	.+106    	; 0x1d0a <diffusionmodule+0x454>
	{
		intermediate[i] = multiply(intermediate[i], mul_mask_2);
    1ca0:	20 81       	ld	r18, Z
	}
}
//*************************扩散环节**********************************//
unsigned char XTIME(unsigned char x)
{
	return ((x << 1) ^ ((x & 0x80) ? 0x1b : 0x00));
    1ca2:	82 2f       	mov	r24, r18
    1ca4:	90 e0       	ldi	r25, 0x00	; 0
    1ca6:	88 0f       	add	r24, r24
    1ca8:	99 1f       	adc	r25, r25
    1caa:	27 ff       	sbrs	r18, 7
    1cac:	9c cf       	rjmp	.-200    	; 0x1be6 <diffusionmodule+0x330>
    1cae:	6b e1       	ldi	r22, 0x1B	; 27
    1cb0:	96 2f       	mov	r25, r22
    1cb2:	98 27       	eor	r25, r24
    1cb4:	69 2f       	mov	r22, r25
    1cb6:	70 e0       	ldi	r23, 0x00	; 0
    1cb8:	66 0f       	add	r22, r22
    1cba:	77 1f       	adc	r23, r23
    1cbc:	97 ff       	sbrs	r25, 7
    1cbe:	9c cf       	rjmp	.-200    	; 0x1bf8 <diffusionmodule+0x342>
    1cc0:	8b e1       	ldi	r24, 0x1B	; 27
    1cc2:	86 27       	eor	r24, r22
    1cc4:	68 2f       	mov	r22, r24
    1cc6:	70 e0       	ldi	r23, 0x00	; 0
    1cc8:	66 0f       	add	r22, r22
    1cca:	77 1f       	adc	r23, r23
    1ccc:	87 ff       	sbrs	r24, 7
    1cce:	9c cf       	rjmp	.-200    	; 0x1c08 <diffusionmodule+0x352>
    1cd0:	1b e1       	ldi	r17, 0x1B	; 27
    1cd2:	16 27       	eor	r17, r22
    1cd4:	61 2f       	mov	r22, r17
    1cd6:	70 e0       	ldi	r23, 0x00	; 0
    1cd8:	66 0f       	add	r22, r22
    1cda:	77 1f       	adc	r23, r23
    1cdc:	17 ff       	sbrs	r17, 7
    1cde:	9c cf       	rjmp	.-200    	; 0x1c18 <diffusionmodule+0x362>
    1ce0:	bb e1       	ldi	r27, 0x1B	; 27
    1ce2:	ab 2e       	mov	r10, r27
    1ce4:	a6 26       	eor	r10, r22
    1ce6:	6a 2d       	mov	r22, r10
    1ce8:	70 e0       	ldi	r23, 0x00	; 0
    1cea:	66 0f       	add	r22, r22
    1cec:	77 1f       	adc	r23, r23
    1cee:	a7 fe       	sbrs	r10, 7
    1cf0:	9c cf       	rjmp	.-200    	; 0x1c2a <diffusionmodule+0x374>
    1cf2:	0b e1       	ldi	r16, 0x1B	; 27
    1cf4:	06 27       	eor	r16, r22
    1cf6:	60 2f       	mov	r22, r16
    1cf8:	70 e0       	ldi	r23, 0x00	; 0
    1cfa:	66 0f       	add	r22, r22
    1cfc:	77 1f       	adc	r23, r23
    1cfe:	07 ff       	sbrs	r16, 7
    1d00:	9c cf       	rjmp	.-200    	; 0x1c3a <diffusionmodule+0x384>
    1d02:	bb e1       	ldi	r27, 0x1B	; 27
    1d04:	9b cf       	rjmp	.-202    	; 0x1c3c <diffusionmodule+0x386>
		temp[i] = XTIME(temp[i - 1]);
	}
	tempmultiply = (b & 0x01)*a;
	for (int i = 1; i < 8; i++)
	{
		tempmultiply ^= (((b >> i) & 0x01)*temp[i]);
    1d06:	2b e1       	ldi	r18, 0x1B	; 27
    1d08:	bf cf       	rjmp	.-130    	; 0x1c88 <diffusionmodule+0x3d2>
    1d0a:	a9 a5       	ldd	r26, Y+41	; 0x29
    1d0c:	ba a5       	ldd	r27, Y+42	; 0x2a
    1d0e:	fe 01       	movw	r30, r28
    1d10:	3f 96       	adiw	r30, 0x0f	; 15
    1d12:	20 e5       	ldi	r18, 0x50	; 80
    1d14:	33 e2       	ldi	r19, 0x23	; 35
    1d16:	be 01       	movw	r22, r28
	}
}
//*************************扩散环节**********************************//
unsigned char XTIME(unsigned char x)
{
	return ((x << 1) ^ ((x & 0x80) ? 0x1b : 0x00));
    1d18:	44 0c       	add	r4, r4
    1d1a:	55 1c       	adc	r5, r5
    1d1c:	37 fc       	sbrc	r3, 7
    1d1e:	bc c2       	rjmp	.+1400   	; 0x2298 <diffusionmodule+0x9e2>
    1d20:	80 e0       	ldi	r24, 0x00	; 0
    1d22:	98 2e       	mov	r9, r24
    1d24:	94 24       	eor	r9, r4
    1d26:	79 2c       	mov	r7, r9
    1d28:	77 0c       	add	r7, r7
    1d2a:	49 a7       	std	Y+41, r20	; 0x29
    1d2c:	5a a7       	std	Y+42, r21	; 0x2a
    1d2e:	ad ab       	std	Y+53, r26	; 0x35
    1d30:	be ab       	std	Y+54, r27	; 0x36
    1d32:	08 c0       	rjmp	.+16     	; 0x1d44 <diffusionmodule+0x48e>
	for (uint8_t i = 15; i > 0; i--)//乘法扩散（反向）
	{
		if (intermediate[i] == 0)
		{
			tem = multiply(intermediate[i - 1], intermediate[i - 1]);
			mul_inv_tem[i - 1] = mul_mask_2;
    1d34:	30 82       	st	Z, r3
    1d36:	31 97       	sbiw	r30, 0x01	; 1
    1d38:	21 50       	subi	r18, 0x01	; 1
    1d3a:	31 09       	sbc	r19, r1
	for (uint8_t i = 0; i < 16; i++)
	{
		intermediate[i] = multiply(intermediate[i], mul_mask_2);
		intermediate[i] ^= mul_temp;
	}
	for (uint8_t i = 15; i > 0; i--)//乘法扩散（反向）
    1d3c:	6e 17       	cp	r22, r30
    1d3e:	7f 07       	cpc	r23, r31
    1d40:	09 f4       	brne	.+2      	; 0x1d44 <diffusionmodule+0x48e>
    1d42:	f4 c0       	rjmp	.+488    	; 0x1f2c <diffusionmodule+0x676>
	{
		if (intermediate[i] == 0)
    1d44:	d9 01       	movw	r26, r18
    1d46:	11 96       	adiw	r26, 0x01	; 1
    1d48:	ac 90       	ld	r10, X
    1d4a:	aa 20       	and	r10, r10
    1d4c:	99 f3       	breq	.-26     	; 0x1d34 <diffusionmodule+0x47e>
			tem = multiply(intermediate[i - 1], intermediate[i - 1]);
			mul_inv_tem[i - 1] = mul_mask_2;
		}
		else
		{
			intermediate[i - 1] = multiply(intermediate[i], intermediate[i - 1]);
    1d4e:	d9 01       	movw	r26, r18
    1d50:	1c 91       	ld	r17, X
	}
}
//*************************扩散环节**********************************//
unsigned char XTIME(unsigned char x)
{
	return ((x << 1) ^ ((x & 0x80) ? 0x1b : 0x00));
    1d52:	8a 2d       	mov	r24, r10
    1d54:	90 e0       	ldi	r25, 0x00	; 0
    1d56:	88 0f       	add	r24, r24
    1d58:	99 1f       	adc	r25, r25
    1d5a:	a7 fc       	sbrc	r10, 7
    1d5c:	14 c2       	rjmp	.+1064   	; 0x2186 <diffusionmodule+0x8d0>
    1d5e:	50 e0       	ldi	r21, 0x00	; 0
    1d60:	85 2e       	mov	r8, r21
    1d62:	88 26       	eor	r8, r24
    1d64:	88 2d       	mov	r24, r8
    1d66:	90 e0       	ldi	r25, 0x00	; 0
    1d68:	88 0f       	add	r24, r24
    1d6a:	99 1f       	adc	r25, r25
    1d6c:	87 fc       	sbrc	r8, 7
    1d6e:	14 c2       	rjmp	.+1064   	; 0x2198 <diffusionmodule+0x8e2>
    1d70:	50 e0       	ldi	r21, 0x00	; 0
    1d72:	b5 2e       	mov	r11, r21
    1d74:	b8 26       	eor	r11, r24
    1d76:	cb 2c       	mov	r12, r11
    1d78:	d1 2c       	mov	r13, r1
    1d7a:	cc 0c       	add	r12, r12
    1d7c:	dd 1c       	adc	r13, r13
    1d7e:	b7 fc       	sbrc	r11, 7
    1d80:	14 c2       	rjmp	.+1064   	; 0x21aa <diffusionmodule+0x8f4>
    1d82:	80 e0       	ldi	r24, 0x00	; 0
    1d84:	c8 26       	eor	r12, r24
    1d86:	8c 2d       	mov	r24, r12
    1d88:	90 e0       	ldi	r25, 0x00	; 0
    1d8a:	88 0f       	add	r24, r24
    1d8c:	99 1f       	adc	r25, r25
    1d8e:	c7 fc       	sbrc	r12, 7
    1d90:	14 c2       	rjmp	.+1064   	; 0x21ba <diffusionmodule+0x904>
    1d92:	50 e0       	ldi	r21, 0x00	; 0
    1d94:	d5 2e       	mov	r13, r21
    1d96:	d8 26       	eor	r13, r24
    1d98:	8d 2d       	mov	r24, r13
    1d9a:	90 e0       	ldi	r25, 0x00	; 0
    1d9c:	88 0f       	add	r24, r24
    1d9e:	99 1f       	adc	r25, r25
    1da0:	d7 fc       	sbrc	r13, 7
    1da2:	14 c2       	rjmp	.+1064   	; 0x21cc <diffusionmodule+0x916>
    1da4:	50 e0       	ldi	r21, 0x00	; 0
    1da6:	65 2e       	mov	r6, r21
    1da8:	68 26       	eor	r6, r24
    1daa:	86 2d       	mov	r24, r6
    1dac:	90 e0       	ldi	r25, 0x00	; 0
    1dae:	88 0f       	add	r24, r24
    1db0:	99 1f       	adc	r25, r25
    1db2:	67 fc       	sbrc	r6, 7
    1db4:	14 c2       	rjmp	.+1064   	; 0x21de <diffusionmodule+0x928>
    1db6:	50 e0       	ldi	r21, 0x00	; 0
    1db8:	45 2e       	mov	r4, r21
    1dba:	48 26       	eor	r4, r24
    1dbc:	84 2d       	mov	r24, r4
    1dbe:	90 e0       	ldi	r25, 0x00	; 0
    1dc0:	88 0f       	add	r24, r24
    1dc2:	99 1f       	adc	r25, r25
    1dc4:	47 fc       	sbrc	r4, 7
    1dc6:	14 c2       	rjmp	.+1064   	; 0x21f0 <diffusionmodule+0x93a>
    1dc8:	50 e0       	ldi	r21, 0x00	; 0
		temp[i] = XTIME(temp[i - 1]);
	}
	tempmultiply = (b & 0x01)*a;
	for (int i = 1; i < 8; i++)
	{
		tempmultiply ^= (((b >> i) & 0x01)*temp[i]);
    1dca:	e1 2e       	mov	r14, r17
    1dcc:	f1 2c       	mov	r15, r1
    1dce:	11 fb       	bst	r17, 1
    1dd0:	99 27       	eor	r25, r25
    1dd2:	90 f9       	bld	r25, 0
    1dd4:	98 9d       	mul	r25, r8
    1dd6:	80 2c       	mov	r8, r0
    1dd8:	11 24       	eor	r1, r1
    1dda:	91 2f       	mov	r25, r17
    1ddc:	91 70       	andi	r25, 0x01	; 1
    1dde:	9a 9d       	mul	r25, r10
    1de0:	10 2d       	mov	r17, r0
    1de2:	11 24       	eor	r1, r1
    1de4:	18 25       	eor	r17, r8
    1de6:	e2 fa       	bst	r14, 2
    1de8:	00 27       	eor	r16, r16
    1dea:	00 f9       	bld	r16, 0
    1dec:	0b 9d       	mul	r16, r11
    1dee:	00 2d       	mov	r16, r0
    1df0:	11 24       	eor	r1, r1
    1df2:	01 27       	eor	r16, r17
    1df4:	e3 fa       	bst	r14, 3
    1df6:	99 27       	eor	r25, r25
    1df8:	90 f9       	bld	r25, 0
    1dfa:	9c 9d       	mul	r25, r12
    1dfc:	c0 2c       	mov	r12, r0
    1dfe:	11 24       	eor	r1, r1
    1e00:	0c 25       	eor	r16, r12
    1e02:	e4 fa       	bst	r14, 4
    1e04:	99 27       	eor	r25, r25
    1e06:	90 f9       	bld	r25, 0
    1e08:	9d 9d       	mul	r25, r13
    1e0a:	d0 2c       	mov	r13, r0
    1e0c:	11 24       	eor	r1, r1
    1e0e:	d0 26       	eor	r13, r16
    1e10:	e5 fa       	bst	r14, 5
    1e12:	99 27       	eor	r25, r25
    1e14:	90 f9       	bld	r25, 0
    1e16:	96 9d       	mul	r25, r6
    1e18:	60 2c       	mov	r6, r0
    1e1a:	11 24       	eor	r1, r1
    1e1c:	0d 2d       	mov	r16, r13
    1e1e:	06 25       	eor	r16, r6
    1e20:	e6 fa       	bst	r14, 6
    1e22:	bb 24       	eor	r11, r11
    1e24:	b0 f8       	bld	r11, 0
    1e26:	b4 9c       	mul	r11, r4
    1e28:	90 2d       	mov	r25, r0
    1e2a:	11 24       	eor	r1, r1
    1e2c:	d0 2e       	mov	r13, r16
    1e2e:	d9 26       	eor	r13, r25
    1e30:	87 01       	movw	r16, r14
    1e32:	00 0f       	add	r16, r16
    1e34:	01 2f       	mov	r16, r17
    1e36:	00 1f       	adc	r16, r16
    1e38:	11 0b       	sbc	r17, r17
    1e3a:	85 27       	eor	r24, r21
    1e3c:	80 9f       	mul	r24, r16
    1e3e:	80 2d       	mov	r24, r0
    1e40:	11 24       	eor	r1, r1
    1e42:	0d 2d       	mov	r16, r13
    1e44:	08 27       	eor	r16, r24
			tem = multiply(intermediate[i - 1], intermediate[i - 1]);
			mul_inv_tem[i - 1] = mul_mask_2;
		}
		else
		{
			intermediate[i - 1] = multiply(intermediate[i], intermediate[i - 1]);
    1e46:	d9 01       	movw	r26, r18
    1e48:	0c 93       	st	X, r16
			mul_inv_tem[i - 1] = multiply(mul_mask_2, mul_inv_tem[i]);
    1e4a:	11 81       	ldd	r17, Z+1	; 0x01
	}
}
//*************************扩散环节**********************************//
unsigned char XTIME(unsigned char x)
{
	return ((x << 1) ^ ((x & 0x80) ? 0x1b : 0x00));
    1e4c:	97 fc       	sbrc	r9, 7
    1e4e:	dc c1       	rjmp	.+952    	; 0x2208 <diffusionmodule+0x952>
    1e50:	00 e0       	ldi	r16, 0x00	; 0
    1e52:	07 25       	eor	r16, r7
    1e54:	a0 2e       	mov	r10, r16
    1e56:	b1 2c       	mov	r11, r1
    1e58:	aa 0c       	add	r10, r10
    1e5a:	bb 1c       	adc	r11, r11
    1e5c:	07 fd       	sbrc	r16, 7
    1e5e:	d2 c1       	rjmp	.+932    	; 0x2204 <diffusionmodule+0x94e>
    1e60:	80 e0       	ldi	r24, 0x00	; 0
    1e62:	a8 26       	eor	r10, r24
    1e64:	8a 2d       	mov	r24, r10
    1e66:	90 e0       	ldi	r25, 0x00	; 0
    1e68:	88 0f       	add	r24, r24
    1e6a:	99 1f       	adc	r25, r25
    1e6c:	a7 fc       	sbrc	r10, 7
    1e6e:	c8 c1       	rjmp	.+912    	; 0x2200 <diffusionmodule+0x94a>
    1e70:	50 e0       	ldi	r21, 0x00	; 0
    1e72:	b5 2e       	mov	r11, r21
    1e74:	b8 26       	eor	r11, r24
    1e76:	cb 2c       	mov	r12, r11
    1e78:	d1 2c       	mov	r13, r1
    1e7a:	cc 0c       	add	r12, r12
    1e7c:	dd 1c       	adc	r13, r13
    1e7e:	b7 fc       	sbrc	r11, 7
    1e80:	bd c1       	rjmp	.+890    	; 0x21fc <diffusionmodule+0x946>
    1e82:	80 e0       	ldi	r24, 0x00	; 0
    1e84:	c8 26       	eor	r12, r24
    1e86:	8c 2d       	mov	r24, r12
    1e88:	90 e0       	ldi	r25, 0x00	; 0
    1e8a:	88 0f       	add	r24, r24
    1e8c:	99 1f       	adc	r25, r25
    1e8e:	c7 fc       	sbrc	r12, 7
    1e90:	b3 c1       	rjmp	.+870    	; 0x21f8 <diffusionmodule+0x942>
    1e92:	50 e0       	ldi	r21, 0x00	; 0
    1e94:	d5 2e       	mov	r13, r21
    1e96:	d8 26       	eor	r13, r24
    1e98:	8d 2d       	mov	r24, r13
    1e9a:	90 e0       	ldi	r25, 0x00	; 0
    1e9c:	88 0f       	add	r24, r24
    1e9e:	99 1f       	adc	r25, r25
    1ea0:	d7 fc       	sbrc	r13, 7
    1ea2:	a8 c1       	rjmp	.+848    	; 0x21f4 <diffusionmodule+0x93e>
    1ea4:	50 e0       	ldi	r21, 0x00	; 0
		temp[i] = XTIME(temp[i - 1]);
	}
	tempmultiply = (b & 0x01)*a;
	for (int i = 1; i < 8; i++)
	{
		tempmultiply ^= (((b >> i) & 0x01)*temp[i]);
    1ea6:	e1 2e       	mov	r14, r17
    1ea8:	f1 2c       	mov	r15, r1
    1eaa:	11 fb       	bst	r17, 1
    1eac:	99 27       	eor	r25, r25
    1eae:	90 f9       	bld	r25, 0
    1eb0:	99 9d       	mul	r25, r9
    1eb2:	90 2d       	mov	r25, r0
    1eb4:	11 24       	eor	r1, r1
    1eb6:	11 70       	andi	r17, 0x01	; 1
    1eb8:	13 9d       	mul	r17, r3
    1eba:	10 2d       	mov	r17, r0
    1ebc:	11 24       	eor	r1, r1
    1ebe:	19 27       	eor	r17, r25
    1ec0:	e2 fa       	bst	r14, 2
    1ec2:	99 27       	eor	r25, r25
    1ec4:	90 f9       	bld	r25, 0
    1ec6:	90 9f       	mul	r25, r16
    1ec8:	00 2d       	mov	r16, r0
    1eca:	11 24       	eor	r1, r1
    1ecc:	01 27       	eor	r16, r17
    1ece:	e3 fa       	bst	r14, 3
    1ed0:	99 27       	eor	r25, r25
    1ed2:	90 f9       	bld	r25, 0
    1ed4:	9a 9d       	mul	r25, r10
    1ed6:	a0 2c       	mov	r10, r0
    1ed8:	11 24       	eor	r1, r1
    1eda:	0a 25       	eor	r16, r10
    1edc:	e4 fa       	bst	r14, 4
    1ede:	99 27       	eor	r25, r25
    1ee0:	90 f9       	bld	r25, 0
    1ee2:	9b 9d       	mul	r25, r11
    1ee4:	b0 2c       	mov	r11, r0
    1ee6:	11 24       	eor	r1, r1
    1ee8:	0b 25       	eor	r16, r11
    1eea:	e5 fa       	bst	r14, 5
    1eec:	99 27       	eor	r25, r25
    1eee:	90 f9       	bld	r25, 0
    1ef0:	9c 9d       	mul	r25, r12
    1ef2:	c0 2c       	mov	r12, r0
    1ef4:	11 24       	eor	r1, r1
    1ef6:	0c 25       	eor	r16, r12
    1ef8:	e6 fa       	bst	r14, 6
    1efa:	99 27       	eor	r25, r25
    1efc:	90 f9       	bld	r25, 0
    1efe:	9d 9d       	mul	r25, r13
    1f00:	d0 2c       	mov	r13, r0
    1f02:	11 24       	eor	r1, r1
    1f04:	d0 26       	eor	r13, r16
    1f06:	87 01       	movw	r16, r14
    1f08:	00 0f       	add	r16, r16
    1f0a:	01 2f       	mov	r16, r17
    1f0c:	00 1f       	adc	r16, r16
    1f0e:	11 0b       	sbc	r17, r17
    1f10:	85 27       	eor	r24, r21
    1f12:	80 9f       	mul	r24, r16
    1f14:	80 2d       	mov	r24, r0
    1f16:	11 24       	eor	r1, r1
    1f18:	0d 2d       	mov	r16, r13
    1f1a:	08 27       	eor	r16, r24
			mul_inv_tem[i - 1] = mul_mask_2;
		}
		else
		{
			intermediate[i - 1] = multiply(intermediate[i], intermediate[i - 1]);
			mul_inv_tem[i - 1] = multiply(mul_mask_2, mul_inv_tem[i]);
    1f1c:	00 83       	st	Z, r16
    1f1e:	31 97       	sbiw	r30, 0x01	; 1
    1f20:	21 50       	subi	r18, 0x01	; 1
    1f22:	31 09       	sbc	r19, r1
	for (uint8_t i = 0; i < 16; i++)
	{
		intermediate[i] = multiply(intermediate[i], mul_mask_2);
		intermediate[i] ^= mul_temp;
	}
	for (uint8_t i = 15; i > 0; i--)//乘法扩散（反向）
    1f24:	6e 17       	cp	r22, r30
    1f26:	7f 07       	cpc	r23, r31
    1f28:	09 f0       	breq	.+2      	; 0x1f2c <diffusionmodule+0x676>
    1f2a:	0c cf       	rjmp	.-488    	; 0x1d44 <diffusionmodule+0x48e>
    1f2c:	49 a5       	ldd	r20, Y+41	; 0x29
    1f2e:	5a a5       	ldd	r21, Y+42	; 0x2a
    1f30:	ad a9       	ldd	r26, Y+53	; 0x35
    1f32:	be a9       	ldd	r27, Y+54	; 0x36
    1f34:	c0 90 52 23 	lds	r12, 0x2352	; 0x802352 <s_mask_1>
	}
}
//*************************扩散环节**********************************//
unsigned char XTIME(unsigned char x)
{
	return ((x << 1) ^ ((x & 0x80) ? 0x1b : 0x00));
    1f38:	c7 fc       	sbrc	r12, 7
    1f3a:	ac c1       	rjmp	.+856    	; 0x2294 <diffusionmodule+0x9de>
    1f3c:	80 e0       	ldi	r24, 0x00	; 0
    1f3e:	7c 2c       	mov	r7, r12
    1f40:	77 0c       	add	r7, r7
    1f42:	78 26       	eor	r7, r24
    1f44:	87 2d       	mov	r24, r7
    1f46:	90 e0       	ldi	r25, 0x00	; 0
    1f48:	88 0f       	add	r24, r24
    1f4a:	99 1f       	adc	r25, r25
    1f4c:	77 fc       	sbrc	r7, 7
    1f4e:	a0 c1       	rjmp	.+832    	; 0x2290 <diffusionmodule+0x9da>
    1f50:	20 e0       	ldi	r18, 0x00	; 0
    1f52:	92 2e       	mov	r9, r18
    1f54:	98 26       	eor	r9, r24
    1f56:	fe 01       	movw	r30, r28
    1f58:	31 96       	adiw	r30, 0x01	; 1
    1f5a:	a9 2c       	mov	r10, r9
    1f5c:	b1 2c       	mov	r11, r1
    1f5e:	c5 01       	movw	r24, r10
    1f60:	88 0f       	add	r24, r24
    1f62:	99 1f       	adc	r25, r25
    1f64:	97 fc       	sbrc	r9, 7
    1f66:	92 c1       	rjmp	.+804    	; 0x228c <diffusionmodule+0x9d6>
    1f68:	20 e0       	ldi	r18, 0x00	; 0
    1f6a:	a2 2e       	mov	r10, r18
    1f6c:	a8 26       	eor	r10, r24
    1f6e:	8a 2d       	mov	r24, r10
    1f70:	90 e0       	ldi	r25, 0x00	; 0
    1f72:	88 0f       	add	r24, r24
    1f74:	99 1f       	adc	r25, r25
    1f76:	a7 fc       	sbrc	r10, 7
    1f78:	87 c1       	rjmp	.+782    	; 0x2288 <diffusionmodule+0x9d2>
    1f7a:	20 e0       	ldi	r18, 0x00	; 0
    1f7c:	b2 2e       	mov	r11, r18
    1f7e:	b8 26       	eor	r11, r24
    1f80:	0b 2d       	mov	r16, r11
    1f82:	10 e0       	ldi	r17, 0x00	; 0
    1f84:	c8 01       	movw	r24, r16
    1f86:	88 0f       	add	r24, r24
    1f88:	99 1f       	adc	r25, r25
    1f8a:	b7 fc       	sbrc	r11, 7
    1f8c:	7b c1       	rjmp	.+758    	; 0x2284 <diffusionmodule+0x9ce>
    1f8e:	00 e0       	ldi	r16, 0x00	; 0
    1f90:	08 27       	eor	r16, r24
    1f92:	80 2f       	mov	r24, r16
    1f94:	90 e0       	ldi	r25, 0x00	; 0
    1f96:	88 0f       	add	r24, r24
    1f98:	99 1f       	adc	r25, r25
    1f9a:	07 fd       	sbrc	r16, 7
    1f9c:	71 c1       	rjmp	.+738    	; 0x2280 <diffusionmodule+0x9ca>
    1f9e:	20 e0       	ldi	r18, 0x00	; 0
    1fa0:	d2 2e       	mov	r13, r18
    1fa2:	d8 26       	eor	r13, r24
    1fa4:	8d 2d       	mov	r24, r13
    1fa6:	90 e0       	ldi	r25, 0x00	; 0
    1fa8:	88 0f       	add	r24, r24
    1faa:	99 1f       	adc	r25, r25
    1fac:	d7 fc       	sbrc	r13, 7
    1fae:	66 c1       	rjmp	.+716    	; 0x227c <diffusionmodule+0x9c6>
    1fb0:	20 e0       	ldi	r18, 0x00	; 0
    1fb2:	62 2e       	mov	r6, r18
    1fb4:	68 26       	eor	r6, r24
    1fb6:	1f 01       	movw	r2, r30
    1fb8:	71 c0       	rjmp	.+226    	; 0x209c <diffusionmodule+0x7e6>
    1fba:	60 e0       	ldi	r22, 0x00	; 0
    1fbc:	68 27       	eor	r22, r24
    1fbe:	86 2f       	mov	r24, r22
    1fc0:	90 e0       	ldi	r25, 0x00	; 0
    1fc2:	88 0f       	add	r24, r24
    1fc4:	99 1f       	adc	r25, r25
    1fc6:	67 fd       	sbrc	r22, 7
    1fc8:	b9 c0       	rjmp	.+370    	; 0x213c <diffusionmodule+0x886>
    1fca:	30 e0       	ldi	r19, 0x00	; 0
    1fcc:	38 27       	eor	r19, r24
    1fce:	83 2f       	mov	r24, r19
    1fd0:	90 e0       	ldi	r25, 0x00	; 0
    1fd2:	88 0f       	add	r24, r24
    1fd4:	99 1f       	adc	r25, r25
    1fd6:	37 fd       	sbrc	r19, 7
    1fd8:	b9 c0       	rjmp	.+370    	; 0x214c <diffusionmodule+0x896>
    1fda:	10 e0       	ldi	r17, 0x00	; 0
    1fdc:	18 27       	eor	r17, r24
    1fde:	81 2f       	mov	r24, r17
    1fe0:	90 e0       	ldi	r25, 0x00	; 0
    1fe2:	88 0f       	add	r24, r24
    1fe4:	99 1f       	adc	r25, r25
    1fe6:	17 fd       	sbrc	r17, 7
    1fe8:	b9 c0       	rjmp	.+370    	; 0x215c <diffusionmodule+0x8a6>
    1fea:	f1 2c       	mov	r15, r1
    1fec:	f8 26       	eor	r15, r24
    1fee:	8f 2d       	mov	r24, r15
    1ff0:	90 e0       	ldi	r25, 0x00	; 0
    1ff2:	88 0f       	add	r24, r24
    1ff4:	99 1f       	adc	r25, r25
    1ff6:	f7 fc       	sbrc	r15, 7
    1ff8:	ba c0       	rjmp	.+372    	; 0x216e <diffusionmodule+0x8b8>
    1ffa:	81 2c       	mov	r8, r1
    1ffc:	88 26       	eor	r8, r24
    1ffe:	88 2d       	mov	r24, r8
    2000:	90 e0       	ldi	r25, 0x00	; 0
    2002:	88 0f       	add	r24, r24
    2004:	99 1f       	adc	r25, r25
    2006:	87 fc       	sbrc	r8, 7
    2008:	bb c0       	rjmp	.+374    	; 0x2180 <diffusionmodule+0x8ca>
    200a:	e1 2c       	mov	r14, r1
    200c:	e8 26       	eor	r14, r24
		temp[i] = XTIME(temp[i - 1]);
	}
	tempmultiply = (b & 0x01)*a;
	for (int i = 1; i < 8; i++)
	{
		tempmultiply ^= (((b >> i) & 0x01)*temp[i]);
    200e:	82 2f       	mov	r24, r18
    2010:	90 e0       	ldi	r25, 0x00	; 0
    2012:	21 fb       	bst	r18, 1
    2014:	55 24       	eor	r5, r5
    2016:	50 f8       	bld	r5, 0
    2018:	56 9e       	mul	r5, r22
    201a:	60 2d       	mov	r22, r0
    201c:	11 24       	eor	r1, r1
    201e:	21 70       	andi	r18, 0x01	; 1
    2020:	27 9f       	mul	r18, r23
    2022:	70 2d       	mov	r23, r0
    2024:	11 24       	eor	r1, r1
    2026:	67 27       	eor	r22, r23
    2028:	82 fb       	bst	r24, 2
    202a:	22 27       	eor	r18, r18
    202c:	20 f9       	bld	r18, 0
    202e:	23 9f       	mul	r18, r19
    2030:	30 2d       	mov	r19, r0
    2032:	11 24       	eor	r1, r1
    2034:	63 27       	eor	r22, r19
    2036:	83 fb       	bst	r24, 3
    2038:	55 24       	eor	r5, r5
    203a:	50 f8       	bld	r5, 0
    203c:	51 9e       	mul	r5, r17
    203e:	10 2d       	mov	r17, r0
    2040:	11 24       	eor	r1, r1
    2042:	61 27       	eor	r22, r17
    2044:	84 fb       	bst	r24, 4
    2046:	55 24       	eor	r5, r5
    2048:	50 f8       	bld	r5, 0
    204a:	5f 9c       	mul	r5, r15
    204c:	50 2c       	mov	r5, r0
    204e:	11 24       	eor	r1, r1
    2050:	f6 2e       	mov	r15, r22
    2052:	f5 24       	eor	r15, r5
    2054:	85 fb       	bst	r24, 5
    2056:	22 27       	eor	r18, r18
    2058:	20 f9       	bld	r18, 0
    205a:	28 9d       	mul	r18, r8
    205c:	20 2d       	mov	r18, r0
    205e:	11 24       	eor	r1, r1
    2060:	f2 26       	eor	r15, r18
    2062:	86 fb       	bst	r24, 6
    2064:	22 27       	eor	r18, r18
    2066:	20 f9       	bld	r18, 0
    2068:	2e 9d       	mul	r18, r14
    206a:	20 2d       	mov	r18, r0
    206c:	11 24       	eor	r1, r1
    206e:	f2 26       	eor	r15, r18
    2070:	2e 2d       	mov	r18, r14
    2072:	30 e0       	ldi	r19, 0x00	; 0
    2074:	22 0f       	add	r18, r18
    2076:	33 1f       	adc	r19, r19
    2078:	e7 fc       	sbrc	r14, 7
    207a:	c8 c0       	rjmp	.+400    	; 0x220c <diffusionmodule+0x956>
    207c:	60 e0       	ldi	r22, 0x00	; 0
    207e:	26 27       	eor	r18, r22
    2080:	88 0f       	add	r24, r24
    2082:	89 2f       	mov	r24, r25
    2084:	88 1f       	adc	r24, r24
    2086:	99 0b       	sbc	r25, r25
    2088:	28 9f       	mul	r18, r24
    208a:	20 2d       	mov	r18, r0
    208c:	11 24       	eor	r1, r1
    208e:	8f 2d       	mov	r24, r15
    2090:	82 27       	eor	r24, r18
	}

	for (uint8_t i = 0; i < 16; i++)
	{
		intermediate[i] ^= multiply(s_mask_1, mul_inv_tem[i]);
		intermediate[i] = multiply(intermediate[i], inv[mul_inv_tem[i]]);
    2092:	8d 93       	st	X+, r24
			intermediate[i - 1] = multiply(intermediate[i], intermediate[i - 1]);
			mul_inv_tem[i - 1] = multiply(mul_mask_2, mul_inv_tem[i]);
		}
	}

	for (uint8_t i = 0; i < 16; i++)
    2094:	4a 17       	cp	r20, r26
    2096:	5b 07       	cpc	r21, r27
    2098:	09 f4       	brne	.+2      	; 0x209c <diffusionmodule+0x7e6>
    209a:	ba c0       	rjmp	.+372    	; 0x2210 <diffusionmodule+0x95a>
	{
		intermediate[i] ^= multiply(s_mask_1, mul_inv_tem[i]);
    209c:	f1 01       	movw	r30, r2
    209e:	21 91       	ld	r18, Z+
    20a0:	1f 01       	movw	r2, r30
		temp[i] = XTIME(temp[i - 1]);
	}
	tempmultiply = (b & 0x01)*a;
	for (int i = 1; i < 8; i++)
	{
		tempmultiply ^= (((b >> i) & 0x01)*temp[i]);
    20a2:	82 2f       	mov	r24, r18
    20a4:	90 e0       	ldi	r25, 0x00	; 0
    20a6:	21 70       	andi	r18, 0x01	; 1
    20a8:	2c 9d       	mul	r18, r12
    20aa:	20 2d       	mov	r18, r0
    20ac:	11 24       	eor	r1, r1
    20ae:	bc 01       	movw	r22, r24
    20b0:	66 0f       	add	r22, r22
    20b2:	67 2f       	mov	r22, r23
    20b4:	66 1f       	adc	r22, r22
    20b6:	77 0b       	sbc	r23, r23
    20b8:	66 9e       	mul	r6, r22
    20ba:	70 2d       	mov	r23, r0
    20bc:	11 24       	eor	r1, r1
    20be:	72 27       	eor	r23, r18
    20c0:	81 fb       	bst	r24, 1
    20c2:	33 27       	eor	r19, r19
    20c4:	30 f9       	bld	r19, 0
    20c6:	37 9d       	mul	r19, r7
    20c8:	30 2d       	mov	r19, r0
    20ca:	11 24       	eor	r1, r1
    20cc:	73 27       	eor	r23, r19
    20ce:	82 fb       	bst	r24, 2
    20d0:	33 27       	eor	r19, r19
    20d2:	30 f9       	bld	r19, 0
    20d4:	39 9d       	mul	r19, r9
    20d6:	30 2d       	mov	r19, r0
    20d8:	11 24       	eor	r1, r1
    20da:	73 27       	eor	r23, r19
    20dc:	83 fb       	bst	r24, 3
    20de:	33 27       	eor	r19, r19
    20e0:	30 f9       	bld	r19, 0
    20e2:	3a 9d       	mul	r19, r10
    20e4:	30 2d       	mov	r19, r0
    20e6:	11 24       	eor	r1, r1
    20e8:	73 27       	eor	r23, r19
    20ea:	84 fb       	bst	r24, 4
    20ec:	33 27       	eor	r19, r19
    20ee:	30 f9       	bld	r19, 0
    20f0:	3b 9d       	mul	r19, r11
    20f2:	30 2d       	mov	r19, r0
    20f4:	11 24       	eor	r1, r1
    20f6:	73 27       	eor	r23, r19
    20f8:	85 fb       	bst	r24, 5
    20fa:	22 27       	eor	r18, r18
    20fc:	20 f9       	bld	r18, 0
    20fe:	20 9f       	mul	r18, r16
    2100:	20 2d       	mov	r18, r0
    2102:	11 24       	eor	r1, r1
    2104:	72 27       	eor	r23, r18
    2106:	86 fb       	bst	r24, 6
    2108:	22 27       	eor	r18, r18
    210a:	20 f9       	bld	r18, 0
    210c:	2d 9d       	mul	r18, r13
    210e:	20 2d       	mov	r18, r0
    2110:	11 24       	eor	r1, r1
    2112:	72 27       	eor	r23, r18
		}
	}

	for (uint8_t i = 0; i < 16; i++)
	{
		intermediate[i] ^= multiply(s_mask_1, mul_inv_tem[i]);
    2114:	2c 91       	ld	r18, X
    2116:	72 27       	eor	r23, r18
		intermediate[i] = multiply(intermediate[i], inv[mul_inv_tem[i]]);
    2118:	83 5e       	subi	r24, 0xE3	; 227
    211a:	9f 4d       	sbci	r25, 0xDF	; 223
    211c:	fc 01       	movw	r30, r24
    211e:	20 81       	ld	r18, Z
	}
}
//*************************扩散环节**********************************//
unsigned char XTIME(unsigned char x)
{
	return ((x << 1) ^ ((x & 0x80) ? 0x1b : 0x00));
    2120:	87 2f       	mov	r24, r23
    2122:	90 e0       	ldi	r25, 0x00	; 0
    2124:	88 0f       	add	r24, r24
    2126:	99 1f       	adc	r25, r25
    2128:	77 ff       	sbrs	r23, 7
    212a:	47 cf       	rjmp	.-370    	; 0x1fba <diffusionmodule+0x704>
    212c:	6b e1       	ldi	r22, 0x1B	; 27
    212e:	68 27       	eor	r22, r24
    2130:	86 2f       	mov	r24, r22
    2132:	90 e0       	ldi	r25, 0x00	; 0
    2134:	88 0f       	add	r24, r24
    2136:	99 1f       	adc	r25, r25
    2138:	67 ff       	sbrs	r22, 7
    213a:	47 cf       	rjmp	.-370    	; 0x1fca <diffusionmodule+0x714>
    213c:	3b e1       	ldi	r19, 0x1B	; 27
    213e:	38 27       	eor	r19, r24
    2140:	83 2f       	mov	r24, r19
    2142:	90 e0       	ldi	r25, 0x00	; 0
    2144:	88 0f       	add	r24, r24
    2146:	99 1f       	adc	r25, r25
    2148:	37 ff       	sbrs	r19, 7
    214a:	47 cf       	rjmp	.-370    	; 0x1fda <diffusionmodule+0x724>
    214c:	1b e1       	ldi	r17, 0x1B	; 27
    214e:	18 27       	eor	r17, r24
    2150:	81 2f       	mov	r24, r17
    2152:	90 e0       	ldi	r25, 0x00	; 0
    2154:	88 0f       	add	r24, r24
    2156:	99 1f       	adc	r25, r25
    2158:	17 ff       	sbrs	r17, 7
    215a:	47 cf       	rjmp	.-370    	; 0x1fea <diffusionmodule+0x734>
    215c:	fb e1       	ldi	r31, 0x1B	; 27
    215e:	ff 2e       	mov	r15, r31
    2160:	f8 26       	eor	r15, r24
    2162:	8f 2d       	mov	r24, r15
    2164:	90 e0       	ldi	r25, 0x00	; 0
    2166:	88 0f       	add	r24, r24
    2168:	99 1f       	adc	r25, r25
    216a:	f7 fe       	sbrs	r15, 7
    216c:	46 cf       	rjmp	.-372    	; 0x1ffa <diffusionmodule+0x744>
    216e:	9b e1       	ldi	r25, 0x1B	; 27
    2170:	89 2e       	mov	r8, r25
    2172:	88 26       	eor	r8, r24
    2174:	88 2d       	mov	r24, r8
    2176:	90 e0       	ldi	r25, 0x00	; 0
    2178:	88 0f       	add	r24, r24
    217a:	99 1f       	adc	r25, r25
    217c:	87 fe       	sbrs	r8, 7
    217e:	45 cf       	rjmp	.-374    	; 0x200a <diffusionmodule+0x754>
    2180:	eb e1       	ldi	r30, 0x1B	; 27
    2182:	ee 2e       	mov	r14, r30
    2184:	43 cf       	rjmp	.-378    	; 0x200c <diffusionmodule+0x756>
    2186:	5b e1       	ldi	r21, 0x1B	; 27
    2188:	85 2e       	mov	r8, r21
    218a:	88 26       	eor	r8, r24
    218c:	88 2d       	mov	r24, r8
    218e:	90 e0       	ldi	r25, 0x00	; 0
    2190:	88 0f       	add	r24, r24
    2192:	99 1f       	adc	r25, r25
    2194:	87 fe       	sbrs	r8, 7
    2196:	ec cd       	rjmp	.-1064   	; 0x1d70 <diffusionmodule+0x4ba>
    2198:	5b e1       	ldi	r21, 0x1B	; 27
    219a:	b5 2e       	mov	r11, r21
    219c:	b8 26       	eor	r11, r24
    219e:	cb 2c       	mov	r12, r11
    21a0:	d1 2c       	mov	r13, r1
    21a2:	cc 0c       	add	r12, r12
    21a4:	dd 1c       	adc	r13, r13
    21a6:	b7 fe       	sbrs	r11, 7
    21a8:	ec cd       	rjmp	.-1064   	; 0x1d82 <diffusionmodule+0x4cc>
    21aa:	8b e1       	ldi	r24, 0x1B	; 27
    21ac:	c8 26       	eor	r12, r24
    21ae:	8c 2d       	mov	r24, r12
    21b0:	90 e0       	ldi	r25, 0x00	; 0
    21b2:	88 0f       	add	r24, r24
    21b4:	99 1f       	adc	r25, r25
    21b6:	c7 fe       	sbrs	r12, 7
    21b8:	ec cd       	rjmp	.-1064   	; 0x1d92 <diffusionmodule+0x4dc>
    21ba:	5b e1       	ldi	r21, 0x1B	; 27
    21bc:	d5 2e       	mov	r13, r21
    21be:	d8 26       	eor	r13, r24
    21c0:	8d 2d       	mov	r24, r13
    21c2:	90 e0       	ldi	r25, 0x00	; 0
    21c4:	88 0f       	add	r24, r24
    21c6:	99 1f       	adc	r25, r25
    21c8:	d7 fe       	sbrs	r13, 7
    21ca:	ec cd       	rjmp	.-1064   	; 0x1da4 <diffusionmodule+0x4ee>
    21cc:	5b e1       	ldi	r21, 0x1B	; 27
    21ce:	65 2e       	mov	r6, r21
    21d0:	68 26       	eor	r6, r24
    21d2:	86 2d       	mov	r24, r6
    21d4:	90 e0       	ldi	r25, 0x00	; 0
    21d6:	88 0f       	add	r24, r24
    21d8:	99 1f       	adc	r25, r25
    21da:	67 fe       	sbrs	r6, 7
    21dc:	ec cd       	rjmp	.-1064   	; 0x1db6 <diffusionmodule+0x500>
    21de:	5b e1       	ldi	r21, 0x1B	; 27
    21e0:	45 2e       	mov	r4, r21
    21e2:	48 26       	eor	r4, r24
    21e4:	84 2d       	mov	r24, r4
    21e6:	90 e0       	ldi	r25, 0x00	; 0
    21e8:	88 0f       	add	r24, r24
    21ea:	99 1f       	adc	r25, r25
    21ec:	47 fe       	sbrs	r4, 7
    21ee:	ec cd       	rjmp	.-1064   	; 0x1dc8 <diffusionmodule+0x512>
    21f0:	5b e1       	ldi	r21, 0x1B	; 27
    21f2:	eb cd       	rjmp	.-1066   	; 0x1dca <diffusionmodule+0x514>
    21f4:	5b e1       	ldi	r21, 0x1B	; 27
    21f6:	57 ce       	rjmp	.-850    	; 0x1ea6 <diffusionmodule+0x5f0>
    21f8:	5b e1       	ldi	r21, 0x1B	; 27
    21fa:	4c ce       	rjmp	.-872    	; 0x1e94 <diffusionmodule+0x5de>
    21fc:	8b e1       	ldi	r24, 0x1B	; 27
    21fe:	42 ce       	rjmp	.-892    	; 0x1e84 <diffusionmodule+0x5ce>
    2200:	5b e1       	ldi	r21, 0x1B	; 27
    2202:	37 ce       	rjmp	.-914    	; 0x1e72 <diffusionmodule+0x5bc>
    2204:	8b e1       	ldi	r24, 0x1B	; 27
    2206:	2d ce       	rjmp	.-934    	; 0x1e62 <diffusionmodule+0x5ac>
    2208:	0b e1       	ldi	r16, 0x1B	; 27
    220a:	23 ce       	rjmp	.-954    	; 0x1e52 <diffusionmodule+0x59c>
		temp[i] = XTIME(temp[i - 1]);
	}
	tempmultiply = (b & 0x01)*a;
	for (int i = 1; i < 8; i++)
	{
		tempmultiply ^= (((b >> i) & 0x01)*temp[i]);
    220c:	6b e1       	ldi	r22, 0x1B	; 27
    220e:	37 cf       	rjmp	.-402    	; 0x207e <diffusionmodule+0x7c8>
	for (uint8_t i = 0; i < 16; i++)
	{
		intermediate[i] ^= multiply(s_mask_1, mul_inv_tem[i]);
		intermediate[i] = multiply(intermediate[i], inv[mul_inv_tem[i]]);
	}
}
    2210:	e6 96       	adiw	r28, 0x36	; 54
    2212:	cd bf       	out	0x3d, r28	; 61
    2214:	de bf       	out	0x3e, r29	; 62
    2216:	df 91       	pop	r29
    2218:	cf 91       	pop	r28
    221a:	1f 91       	pop	r17
    221c:	0f 91       	pop	r16
    221e:	ff 90       	pop	r15
    2220:	ef 90       	pop	r14
    2222:	df 90       	pop	r13
    2224:	cf 90       	pop	r12
    2226:	bf 90       	pop	r11
    2228:	af 90       	pop	r10
    222a:	9f 90       	pop	r9
    222c:	8f 90       	pop	r8
    222e:	7f 90       	pop	r7
    2230:	6f 90       	pop	r6
    2232:	5f 90       	pop	r5
    2234:	4f 90       	pop	r4
    2236:	3f 90       	pop	r3
    2238:	2f 90       	pop	r2
    223a:	08 95       	ret
	}
}
//*************************扩散环节**********************************//
unsigned char XTIME(unsigned char x)
{
	return ((x << 1) ^ ((x & 0x80) ? 0x1b : 0x00));
    223c:	9b e1       	ldi	r25, 0x1B	; 27
    223e:	28 2f       	mov	r18, r24
    2240:	22 0f       	add	r18, r18
    2242:	92 27       	eor	r25, r18
    2244:	97 ff       	sbrs	r25, 7
    2246:	3b cc       	rjmp	.-1930   	; 0x1abe <diffusionmodule+0x208>
    2248:	2b e1       	ldi	r18, 0x1B	; 27
    224a:	59 2f       	mov	r21, r25
    224c:	55 0f       	add	r21, r21
    224e:	52 27       	eor	r21, r18
    2250:	57 ff       	sbrs	r21, 7
    2252:	3b cc       	rjmp	.-1930   	; 0x1aca <diffusionmodule+0x214>
    2254:	2b e1       	ldi	r18, 0x1B	; 27
    2256:	45 2f       	mov	r20, r21
    2258:	44 0f       	add	r20, r20
    225a:	42 27       	eor	r20, r18
    225c:	47 ff       	sbrs	r20, 7
    225e:	3b cc       	rjmp	.-1930   	; 0x1ad6 <diffusionmodule+0x220>
    2260:	2b e1       	ldi	r18, 0x1B	; 27
    2262:	34 2f       	mov	r19, r20
    2264:	33 0f       	add	r19, r19
    2266:	32 27       	eor	r19, r18
    2268:	37 ff       	sbrs	r19, 7
    226a:	3b cc       	rjmp	.-1930   	; 0x1ae2 <diffusionmodule+0x22c>
    226c:	2b e1       	ldi	r18, 0x1B	; 27
    226e:	63 2f       	mov	r22, r19
    2270:	66 0f       	add	r22, r22
    2272:	26 27       	eor	r18, r22
    2274:	27 ff       	sbrs	r18, 7
    2276:	3b cc       	rjmp	.-1930   	; 0x1aee <diffusionmodule+0x238>
    2278:	6b e1       	ldi	r22, 0x1B	; 27
    227a:	3a cc       	rjmp	.-1932   	; 0x1af0 <diffusionmodule+0x23a>
    227c:	2b e1       	ldi	r18, 0x1B	; 27
    227e:	99 ce       	rjmp	.-718    	; 0x1fb2 <diffusionmodule+0x6fc>
    2280:	2b e1       	ldi	r18, 0x1B	; 27
    2282:	8e ce       	rjmp	.-740    	; 0x1fa0 <diffusionmodule+0x6ea>
    2284:	0b e1       	ldi	r16, 0x1B	; 27
    2286:	84 ce       	rjmp	.-760    	; 0x1f90 <diffusionmodule+0x6da>
    2288:	2b e1       	ldi	r18, 0x1B	; 27
    228a:	78 ce       	rjmp	.-784    	; 0x1f7c <diffusionmodule+0x6c6>
    228c:	2b e1       	ldi	r18, 0x1B	; 27
    228e:	6d ce       	rjmp	.-806    	; 0x1f6a <diffusionmodule+0x6b4>
    2290:	2b e1       	ldi	r18, 0x1B	; 27
    2292:	5f ce       	rjmp	.-834    	; 0x1f52 <diffusionmodule+0x69c>
    2294:	8b e1       	ldi	r24, 0x1B	; 27
    2296:	53 ce       	rjmp	.-858    	; 0x1f3e <diffusionmodule+0x688>
    2298:	8b e1       	ldi	r24, 0x1B	; 27
    229a:	43 cd       	rjmp	.-1402   	; 0x1d22 <diffusionmodule+0x46c>
		temp[i] = XTIME(temp[i - 1]);
	}
	tempmultiply = (b & 0x01)*a;
	for (int i = 1; i < 8; i++)
	{
		tempmultiply ^= (((b >> i) & 0x01)*temp[i]);
    229c:	9b e1       	ldi	r25, 0x1B	; 27
    229e:	95 cc       	rjmp	.-1750   	; 0x1bca <diffusionmodule+0x314>

000022a0 <encLuoMasked>:
void encInit( void )
{
	roundKeyGen((float)0.5987, RDKey);
}
void encLuoMasked(uint8_t ciphertext[], uint8_t plaintext[])
{
    22a0:	2f 92       	push	r2
    22a2:	3f 92       	push	r3
    22a4:	4f 92       	push	r4
    22a6:	5f 92       	push	r5
    22a8:	6f 92       	push	r6
    22aa:	7f 92       	push	r7
    22ac:	8f 92       	push	r8
    22ae:	9f 92       	push	r9
    22b0:	af 92       	push	r10
    22b2:	bf 92       	push	r11
    22b4:	cf 92       	push	r12
    22b6:	df 92       	push	r13
    22b8:	ef 92       	push	r14
    22ba:	ff 92       	push	r15
    22bc:	0f 93       	push	r16
    22be:	1f 93       	push	r17
    22c0:	cf 93       	push	r28
    22c2:	df 93       	push	r29
    22c4:	cd b7       	in	r28, 0x3d	; 61
    22c6:	de b7       	in	r29, 0x3e	; 62
    22c8:	2d 97       	sbiw	r28, 0x0d	; 13
    22ca:	cd bf       	out	0x3d, r28	; 61
    22cc:	de bf       	out	0x3e, r29	; 62
    22ce:	8f 83       	std	Y+7, r24	; 0x07
    22d0:	98 87       	std	Y+8, r25	; 0x08
    22d2:	fb 01       	movw	r30, r22
	for (uint8_t i = 0; i < 16; i++)
		intermediate[i] = plaintext[i];
    22d4:	80 81       	ld	r24, Z
    22d6:	80 93 42 23 	sts	0x2342, r24	; 0x802342 <intermediate>
    22da:	81 81       	ldd	r24, Z+1	; 0x01
    22dc:	80 93 43 23 	sts	0x2343, r24	; 0x802343 <intermediate+0x1>
    22e0:	82 81       	ldd	r24, Z+2	; 0x02
    22e2:	80 93 44 23 	sts	0x2344, r24	; 0x802344 <intermediate+0x2>
    22e6:	83 81       	ldd	r24, Z+3	; 0x03
    22e8:	80 93 45 23 	sts	0x2345, r24	; 0x802345 <intermediate+0x3>
    22ec:	84 81       	ldd	r24, Z+4	; 0x04
    22ee:	80 93 46 23 	sts	0x2346, r24	; 0x802346 <intermediate+0x4>
    22f2:	85 81       	ldd	r24, Z+5	; 0x05
    22f4:	80 93 47 23 	sts	0x2347, r24	; 0x802347 <intermediate+0x5>
    22f8:	86 81       	ldd	r24, Z+6	; 0x06
    22fa:	80 93 48 23 	sts	0x2348, r24	; 0x802348 <intermediate+0x6>
    22fe:	87 81       	ldd	r24, Z+7	; 0x07
    2300:	80 93 49 23 	sts	0x2349, r24	; 0x802349 <intermediate+0x7>
    2304:	80 85       	ldd	r24, Z+8	; 0x08
    2306:	80 93 4a 23 	sts	0x234A, r24	; 0x80234a <intermediate+0x8>
    230a:	81 85       	ldd	r24, Z+9	; 0x09
    230c:	80 93 4b 23 	sts	0x234B, r24	; 0x80234b <intermediate+0x9>
    2310:	82 85       	ldd	r24, Z+10	; 0x0a
    2312:	80 93 4c 23 	sts	0x234C, r24	; 0x80234c <intermediate+0xa>
    2316:	83 85       	ldd	r24, Z+11	; 0x0b
    2318:	80 93 4d 23 	sts	0x234D, r24	; 0x80234d <intermediate+0xb>
    231c:	84 85       	ldd	r24, Z+12	; 0x0c
    231e:	80 93 4e 23 	sts	0x234E, r24	; 0x80234e <intermediate+0xc>
    2322:	85 85       	ldd	r24, Z+13	; 0x0d
    2324:	80 93 4f 23 	sts	0x234F, r24	; 0x80234f <intermediate+0xd>
    2328:	86 85       	ldd	r24, Z+14	; 0x0e
    232a:	80 93 50 23 	sts	0x2350, r24	; 0x802350 <intermediate+0xe>
    232e:	87 85       	ldd	r24, Z+15	; 0x0f
    2330:	80 93 51 23 	sts	0x2351, r24	; 0x802351 <intermediate+0xf>

uint8_t intermediate[16];

void encInit( void )
{
	roundKeyGen((float)0.5987, RDKey);
    2334:	42 e1       	ldi	r20, 0x12	; 18
    2336:	53 e2       	ldi	r21, 0x23	; 35
    2338:	67 e6       	ldi	r22, 0x67	; 103
    233a:	74 e4       	ldi	r23, 0x44	; 68
    233c:	89 e1       	ldi	r24, 0x19	; 25
    233e:	9f e3       	ldi	r25, 0x3F	; 63
    2340:	0e 94 53 04 	call	0x8a6	; 0x8a6 <roundKeyGen>
	for (uint8_t i = 0; i < 16; i++)
		intermediate[i] = plaintext[i];
	
	encInit();
	////////////////////////////////////////////////////////////////////////////////////
	mask_gen(seed);//掩码生成
    2344:	60 91 32 22 	lds	r22, 0x2232	; 0x802232 <seed>
    2348:	70 91 33 22 	lds	r23, 0x2233	; 0x802233 <seed+0x1>
    234c:	80 91 34 22 	lds	r24, 0x2234	; 0x802234 <seed+0x2>
    2350:	90 91 35 22 	lds	r25, 0x2235	; 0x802235 <seed+0x3>
    2354:	0e 94 5d 05 	call	0xaba	; 0xaba <mask_gen>
	cons_sbox(s_mask_1, s_mask_2);//生成新sbox
    2358:	30 91 64 24 	lds	r19, 0x2464	; 0x802464 <s_mask_2>
    235c:	60 91 52 23 	lds	r22, 0x2352	; 0x802352 <s_mask_1>
    2360:	46 2f       	mov	r20, r22
    2362:	50 e0       	ldi	r21, 0x00	; 0
    2364:	ad e1       	ldi	r26, 0x1D	; 29
    2366:	b1 e2       	ldi	r27, 0x21	; 33
}

//**************************构建新的sbox**************************//
void cons_sbox(uint8_t mask_in, uint8_t mask_out)//construct_sbox构造 S-box
{
	for (int i = 0; i < 256; i++)
    2368:	80 e0       	ldi	r24, 0x00	; 0
    236a:	90 e0       	ldi	r25, 0x00	; 0
	msbox[i^mask_in] = sbox[i] ^ mask_out;
    236c:	2d 91       	ld	r18, X+
    236e:	fa 01       	movw	r30, r20
    2370:	e8 27       	eor	r30, r24
    2372:	f9 27       	eor	r31, r25
    2374:	ed 59       	subi	r30, 0x9D	; 157
    2376:	fc 4d       	sbci	r31, 0xDC	; 220
    2378:	23 27       	eor	r18, r19
    237a:	20 83       	st	Z, r18
}

//**************************构建新的sbox**************************//
void cons_sbox(uint8_t mask_in, uint8_t mask_out)//construct_sbox构造 S-box
{
	for (int i = 0; i < 256; i++)
    237c:	01 96       	adiw	r24, 0x01	; 1
    237e:	81 15       	cp	r24, r1
    2380:	11 e0       	ldi	r17, 0x01	; 1
    2382:	91 07       	cpc	r25, r17
    2384:	99 f7       	brne	.-26     	; 0x236c <encLuoMasked+0xcc>
    2386:	81 e0       	ldi	r24, 0x01	; 1
    2388:	80 93 05 06 	sts	0x0605, r24	; 0x800605 <__TEXT_REGION_LENGTH__+0x700605>
}
//*************************对数组的全体元素使用mask进行掩码*********//
void mask_all(uint8_t arr[], uint8_t mask)//对数组的全体使用mask进行掩码
{
	for (uint8_t i = 0; i < 16; i++)
	arr[i] ^= mask;
    238c:	80 91 42 23 	lds	r24, 0x2342	; 0x802342 <intermediate>
    2390:	86 27       	eor	r24, r22
    2392:	80 93 42 23 	sts	0x2342, r24	; 0x802342 <intermediate>
    2396:	80 91 43 23 	lds	r24, 0x2343	; 0x802343 <intermediate+0x1>
    239a:	86 27       	eor	r24, r22
    239c:	80 93 43 23 	sts	0x2343, r24	; 0x802343 <intermediate+0x1>
    23a0:	80 91 44 23 	lds	r24, 0x2344	; 0x802344 <intermediate+0x2>
    23a4:	86 27       	eor	r24, r22
    23a6:	80 93 44 23 	sts	0x2344, r24	; 0x802344 <intermediate+0x2>
    23aa:	80 91 45 23 	lds	r24, 0x2345	; 0x802345 <intermediate+0x3>
    23ae:	86 27       	eor	r24, r22
    23b0:	80 93 45 23 	sts	0x2345, r24	; 0x802345 <intermediate+0x3>
    23b4:	80 91 46 23 	lds	r24, 0x2346	; 0x802346 <intermediate+0x4>
    23b8:	86 27       	eor	r24, r22
    23ba:	80 93 46 23 	sts	0x2346, r24	; 0x802346 <intermediate+0x4>
    23be:	80 91 47 23 	lds	r24, 0x2347	; 0x802347 <intermediate+0x5>
    23c2:	86 27       	eor	r24, r22
    23c4:	80 93 47 23 	sts	0x2347, r24	; 0x802347 <intermediate+0x5>
    23c8:	80 91 48 23 	lds	r24, 0x2348	; 0x802348 <intermediate+0x6>
    23cc:	86 27       	eor	r24, r22
    23ce:	80 93 48 23 	sts	0x2348, r24	; 0x802348 <intermediate+0x6>
    23d2:	80 91 49 23 	lds	r24, 0x2349	; 0x802349 <intermediate+0x7>
    23d6:	86 27       	eor	r24, r22
    23d8:	80 93 49 23 	sts	0x2349, r24	; 0x802349 <intermediate+0x7>
    23dc:	80 91 4a 23 	lds	r24, 0x234A	; 0x80234a <intermediate+0x8>
    23e0:	86 27       	eor	r24, r22
    23e2:	80 93 4a 23 	sts	0x234A, r24	; 0x80234a <intermediate+0x8>
    23e6:	80 91 4b 23 	lds	r24, 0x234B	; 0x80234b <intermediate+0x9>
    23ea:	86 27       	eor	r24, r22
    23ec:	80 93 4b 23 	sts	0x234B, r24	; 0x80234b <intermediate+0x9>
    23f0:	80 91 4c 23 	lds	r24, 0x234C	; 0x80234c <intermediate+0xa>
    23f4:	86 27       	eor	r24, r22
    23f6:	80 93 4c 23 	sts	0x234C, r24	; 0x80234c <intermediate+0xa>
    23fa:	80 91 4d 23 	lds	r24, 0x234D	; 0x80234d <intermediate+0xb>
    23fe:	86 27       	eor	r24, r22
    2400:	80 93 4d 23 	sts	0x234D, r24	; 0x80234d <intermediate+0xb>
    2404:	80 91 4e 23 	lds	r24, 0x234E	; 0x80234e <intermediate+0xc>
    2408:	86 27       	eor	r24, r22
    240a:	80 93 4e 23 	sts	0x234E, r24	; 0x80234e <intermediate+0xc>
    240e:	80 91 4f 23 	lds	r24, 0x234F	; 0x80234f <intermediate+0xd>
    2412:	86 27       	eor	r24, r22
    2414:	80 93 4f 23 	sts	0x234F, r24	; 0x80234f <intermediate+0xd>
    2418:	80 91 50 23 	lds	r24, 0x2350	; 0x802350 <intermediate+0xe>
    241c:	86 27       	eor	r24, r22
    241e:	80 93 50 23 	sts	0x2350, r24	; 0x802350 <intermediate+0xe>
    2422:	80 91 51 23 	lds	r24, 0x2351	; 0x802351 <intermediate+0xf>
    2426:	68 27       	eor	r22, r24
    2428:	60 93 51 23 	sts	0x2351, r22	; 0x802351 <intermediate+0xf>
    242c:	c1 2c       	mov	r12, r1
    242e:	d1 2c       	mov	r13, r1
//**************************Add Round Key*****************************//
void addroundkey(uint8_t *interarray, uint8_t *roundkey)//
{
	for (uint8_t i = 0; i < 16; i++)
	{
		interarray[seqCtrl[i]]^=roundkey[seqCtrl[i]];
    2430:	80 91 22 22 	lds	r24, 0x2222	; 0x802222 <seqCtrl>
    2434:	90 e0       	ldi	r25, 0x00	; 0
    2436:	9c 01       	movw	r18, r24
    2438:	2e 5b       	subi	r18, 0xBE	; 190
    243a:	3c 4d       	sbci	r19, 0xDC	; 220
    243c:	79 01       	movw	r14, r18
    243e:	8c 0d       	add	r24, r12
    2440:	9d 1d       	adc	r25, r13
    2442:	fc 01       	movw	r30, r24
    2444:	ee 5e       	subi	r30, 0xEE	; 238
    2446:	fc 4d       	sbci	r31, 0xDC	; 220
    2448:	d9 01       	movw	r26, r18
    244a:	9c 91       	ld	r25, X
    244c:	80 81       	ld	r24, Z
    244e:	89 27       	eor	r24, r25
    2450:	8c 93       	st	X, r24
    2452:	80 91 23 22 	lds	r24, 0x2223	; 0x802223 <seqCtrl+0x1>
    2456:	90 e0       	ldi	r25, 0x00	; 0
    2458:	8c 01       	movw	r16, r24
    245a:	0e 5b       	subi	r16, 0xBE	; 190
    245c:	1c 4d       	sbci	r17, 0xDC	; 220
    245e:	8c 0d       	add	r24, r12
    2460:	9d 1d       	adc	r25, r13
    2462:	fc 01       	movw	r30, r24
    2464:	ee 5e       	subi	r30, 0xEE	; 238
    2466:	fc 4d       	sbci	r31, 0xDC	; 220
    2468:	d8 01       	movw	r26, r16
    246a:	9c 91       	ld	r25, X
    246c:	80 81       	ld	r24, Z
    246e:	89 27       	eor	r24, r25
    2470:	8c 93       	st	X, r24
    2472:	80 91 24 22 	lds	r24, 0x2224	; 0x802224 <seqCtrl+0x2>
    2476:	90 e0       	ldi	r25, 0x00	; 0
    2478:	bc 01       	movw	r22, r24
    247a:	6e 5b       	subi	r22, 0xBE	; 190
    247c:	7c 4d       	sbci	r23, 0xDC	; 220
    247e:	8c 0d       	add	r24, r12
    2480:	9d 1d       	adc	r25, r13
    2482:	fc 01       	movw	r30, r24
    2484:	ee 5e       	subi	r30, 0xEE	; 238
    2486:	fc 4d       	sbci	r31, 0xDC	; 220
    2488:	db 01       	movw	r26, r22
    248a:	9c 91       	ld	r25, X
    248c:	80 81       	ld	r24, Z
    248e:	89 27       	eor	r24, r25
    2490:	8c 93       	st	X, r24
    2492:	80 91 25 22 	lds	r24, 0x2225	; 0x802225 <seqCtrl+0x3>
    2496:	90 e0       	ldi	r25, 0x00	; 0
    2498:	ac 01       	movw	r20, r24
    249a:	4e 5b       	subi	r20, 0xBE	; 190
    249c:	5c 4d       	sbci	r21, 0xDC	; 220
    249e:	8c 0d       	add	r24, r12
    24a0:	9d 1d       	adc	r25, r13
    24a2:	fc 01       	movw	r30, r24
    24a4:	ee 5e       	subi	r30, 0xEE	; 238
    24a6:	fc 4d       	sbci	r31, 0xDC	; 220
    24a8:	da 01       	movw	r26, r20
    24aa:	9c 91       	ld	r25, X
    24ac:	80 81       	ld	r24, Z
    24ae:	89 27       	eor	r24, r25
    24b0:	8c 93       	st	X, r24
    24b2:	80 91 26 22 	lds	r24, 0x2226	; 0x802226 <seqCtrl+0x4>
    24b6:	90 e0       	ldi	r25, 0x00	; 0
    24b8:	9c 01       	movw	r18, r24
    24ba:	2e 5b       	subi	r18, 0xBE	; 190
    24bc:	3c 4d       	sbci	r19, 0xDC	; 220
    24be:	8c 0d       	add	r24, r12
    24c0:	9d 1d       	adc	r25, r13
    24c2:	fc 01       	movw	r30, r24
    24c4:	ee 5e       	subi	r30, 0xEE	; 238
    24c6:	fc 4d       	sbci	r31, 0xDC	; 220
    24c8:	d9 01       	movw	r26, r18
    24ca:	9c 91       	ld	r25, X
    24cc:	80 81       	ld	r24, Z
    24ce:	89 27       	eor	r24, r25
    24d0:	8c 93       	st	X, r24
    24d2:	80 91 27 22 	lds	r24, 0x2227	; 0x802227 <seqCtrl+0x5>
    24d6:	90 e0       	ldi	r25, 0x00	; 0
    24d8:	fc 01       	movw	r30, r24
    24da:	ee 5b       	subi	r30, 0xBE	; 190
    24dc:	fc 4d       	sbci	r31, 0xDC	; 220
    24de:	ea 87       	std	Y+10, r30	; 0x0a
    24e0:	fb 87       	std	Y+11, r31	; 0x0b
    24e2:	8c 0d       	add	r24, r12
    24e4:	9d 1d       	adc	r25, r13
    24e6:	fc 01       	movw	r30, r24
    24e8:	ee 5e       	subi	r30, 0xEE	; 238
    24ea:	fc 4d       	sbci	r31, 0xDC	; 220
    24ec:	aa 85       	ldd	r26, Y+10	; 0x0a
    24ee:	bb 85       	ldd	r27, Y+11	; 0x0b
    24f0:	9c 91       	ld	r25, X
    24f2:	80 81       	ld	r24, Z
    24f4:	89 27       	eor	r24, r25
    24f6:	8c 93       	st	X, r24
    24f8:	80 91 28 22 	lds	r24, 0x2228	; 0x802228 <seqCtrl+0x6>
    24fc:	90 e0       	ldi	r25, 0x00	; 0
    24fe:	dc 01       	movw	r26, r24
    2500:	ae 5b       	subi	r26, 0xBE	; 190
    2502:	bc 4d       	sbci	r27, 0xDC	; 220
    2504:	8c 0d       	add	r24, r12
    2506:	9d 1d       	adc	r25, r13
    2508:	fc 01       	movw	r30, r24
    250a:	ee 5e       	subi	r30, 0xEE	; 238
    250c:	fc 4d       	sbci	r31, 0xDC	; 220
    250e:	9c 91       	ld	r25, X
    2510:	80 81       	ld	r24, Z
    2512:	89 27       	eor	r24, r25
    2514:	8c 93       	st	X, r24
    2516:	80 91 29 22 	lds	r24, 0x2229	; 0x802229 <seqCtrl+0x7>
    251a:	90 e0       	ldi	r25, 0x00	; 0
    251c:	fc 01       	movw	r30, r24
    251e:	ee 5b       	subi	r30, 0xBE	; 190
    2520:	fc 4d       	sbci	r31, 0xDC	; 220
    2522:	ec 87       	std	Y+12, r30	; 0x0c
    2524:	fd 87       	std	Y+13, r31	; 0x0d
    2526:	8c 0d       	add	r24, r12
    2528:	9d 1d       	adc	r25, r13
    252a:	8e 5e       	subi	r24, 0xEE	; 238
    252c:	9c 4d       	sbci	r25, 0xDC	; 220
    252e:	b0 80       	ld	r11, Z
    2530:	fc 01       	movw	r30, r24
    2532:	80 81       	ld	r24, Z
    2534:	8b 25       	eor	r24, r11
    2536:	ec 85       	ldd	r30, Y+12	; 0x0c
    2538:	fd 85       	ldd	r31, Y+13	; 0x0d
    253a:	80 83       	st	Z, r24
    253c:	80 91 2a 22 	lds	r24, 0x222A	; 0x80222a <seqCtrl+0x8>
    2540:	90 e0       	ldi	r25, 0x00	; 0
    2542:	fc 01       	movw	r30, r24
    2544:	ee 5b       	subi	r30, 0xBE	; 190
    2546:	fc 4d       	sbci	r31, 0xDC	; 220
    2548:	5f 01       	movw	r10, r30
    254a:	8c 0d       	add	r24, r12
    254c:	9d 1d       	adc	r25, r13
    254e:	8e 5e       	subi	r24, 0xEE	; 238
    2550:	9c 4d       	sbci	r25, 0xDC	; 220
    2552:	90 80       	ld	r9, Z
    2554:	fc 01       	movw	r30, r24
    2556:	80 81       	ld	r24, Z
    2558:	89 25       	eor	r24, r9
    255a:	f5 01       	movw	r30, r10
    255c:	80 83       	st	Z, r24
    255e:	80 91 2b 22 	lds	r24, 0x222B	; 0x80222b <seqCtrl+0x9>
    2562:	90 e0       	ldi	r25, 0x00	; 0
    2564:	fc 01       	movw	r30, r24
    2566:	ee 5b       	subi	r30, 0xBE	; 190
    2568:	fc 4d       	sbci	r31, 0xDC	; 220
    256a:	4f 01       	movw	r8, r30
    256c:	8c 0d       	add	r24, r12
    256e:	9d 1d       	adc	r25, r13
    2570:	8e 5e       	subi	r24, 0xEE	; 238
    2572:	9c 4d       	sbci	r25, 0xDC	; 220
    2574:	70 80       	ld	r7, Z
    2576:	fc 01       	movw	r30, r24
    2578:	80 81       	ld	r24, Z
    257a:	87 25       	eor	r24, r7
    257c:	f4 01       	movw	r30, r8
    257e:	80 83       	st	Z, r24
    2580:	80 91 2c 22 	lds	r24, 0x222C	; 0x80222c <seqCtrl+0xa>
    2584:	90 e0       	ldi	r25, 0x00	; 0
    2586:	fc 01       	movw	r30, r24
    2588:	ee 5b       	subi	r30, 0xBE	; 190
    258a:	fc 4d       	sbci	r31, 0xDC	; 220
    258c:	3f 01       	movw	r6, r30
    258e:	8c 0d       	add	r24, r12
    2590:	9d 1d       	adc	r25, r13
    2592:	8e 5e       	subi	r24, 0xEE	; 238
    2594:	9c 4d       	sbci	r25, 0xDC	; 220
    2596:	50 80       	ld	r5, Z
    2598:	fc 01       	movw	r30, r24
    259a:	80 81       	ld	r24, Z
    259c:	85 25       	eor	r24, r5
    259e:	f3 01       	movw	r30, r6
    25a0:	80 83       	st	Z, r24
    25a2:	80 91 2d 22 	lds	r24, 0x222D	; 0x80222d <seqCtrl+0xb>
    25a6:	90 e0       	ldi	r25, 0x00	; 0
    25a8:	fc 01       	movw	r30, r24
    25aa:	ee 5b       	subi	r30, 0xBE	; 190
    25ac:	fc 4d       	sbci	r31, 0xDC	; 220
    25ae:	2f 01       	movw	r4, r30
    25b0:	8c 0d       	add	r24, r12
    25b2:	9d 1d       	adc	r25, r13
    25b4:	8e 5e       	subi	r24, 0xEE	; 238
    25b6:	9c 4d       	sbci	r25, 0xDC	; 220
    25b8:	30 80       	ld	r3, Z
    25ba:	fc 01       	movw	r30, r24
    25bc:	80 81       	ld	r24, Z
    25be:	83 25       	eor	r24, r3
    25c0:	f2 01       	movw	r30, r4
    25c2:	80 83       	st	Z, r24
    25c4:	80 91 2e 22 	lds	r24, 0x222E	; 0x80222e <seqCtrl+0xc>
    25c8:	90 e0       	ldi	r25, 0x00	; 0
    25ca:	fc 01       	movw	r30, r24
    25cc:	ee 5b       	subi	r30, 0xBE	; 190
    25ce:	fc 4d       	sbci	r31, 0xDC	; 220
    25d0:	1f 01       	movw	r2, r30
    25d2:	8c 0d       	add	r24, r12
    25d4:	9d 1d       	adc	r25, r13
    25d6:	8e 5e       	subi	r24, 0xEE	; 238
    25d8:	9c 4d       	sbci	r25, 0xDC	; 220
    25da:	f0 81       	ld	r31, Z
    25dc:	f9 83       	std	Y+1, r31	; 0x01
    25de:	fc 01       	movw	r30, r24
    25e0:	80 81       	ld	r24, Z
    25e2:	f9 81       	ldd	r31, Y+1	; 0x01
    25e4:	8f 27       	eor	r24, r31
    25e6:	f1 01       	movw	r30, r2
    25e8:	80 83       	st	Z, r24
    25ea:	80 91 2f 22 	lds	r24, 0x222F	; 0x80222f <seqCtrl+0xd>
    25ee:	90 e0       	ldi	r25, 0x00	; 0
    25f0:	fc 01       	movw	r30, r24
    25f2:	ee 5b       	subi	r30, 0xBE	; 190
    25f4:	fc 4d       	sbci	r31, 0xDC	; 220
    25f6:	e9 83       	std	Y+1, r30	; 0x01
    25f8:	fa 83       	std	Y+2, r31	; 0x02
    25fa:	8c 0d       	add	r24, r12
    25fc:	9d 1d       	adc	r25, r13
    25fe:	8e 5e       	subi	r24, 0xEE	; 238
    2600:	9c 4d       	sbci	r25, 0xDC	; 220
    2602:	f0 81       	ld	r31, Z
    2604:	fb 83       	std	Y+3, r31	; 0x03
    2606:	fc 01       	movw	r30, r24
    2608:	80 81       	ld	r24, Z
    260a:	fb 81       	ldd	r31, Y+3	; 0x03
    260c:	8f 27       	eor	r24, r31
    260e:	e9 81       	ldd	r30, Y+1	; 0x01
    2610:	fa 81       	ldd	r31, Y+2	; 0x02
    2612:	80 83       	st	Z, r24
    2614:	80 91 30 22 	lds	r24, 0x2230	; 0x802230 <seqCtrl+0xe>
    2618:	90 e0       	ldi	r25, 0x00	; 0
    261a:	fc 01       	movw	r30, r24
    261c:	ee 5b       	subi	r30, 0xBE	; 190
    261e:	fc 4d       	sbci	r31, 0xDC	; 220
    2620:	eb 83       	std	Y+3, r30	; 0x03
    2622:	fc 83       	std	Y+4, r31	; 0x04
    2624:	8c 0d       	add	r24, r12
    2626:	9d 1d       	adc	r25, r13
    2628:	8e 5e       	subi	r24, 0xEE	; 238
    262a:	9c 4d       	sbci	r25, 0xDC	; 220
    262c:	f0 81       	ld	r31, Z
    262e:	fd 83       	std	Y+5, r31	; 0x05
    2630:	fc 01       	movw	r30, r24
    2632:	80 81       	ld	r24, Z
    2634:	fd 81       	ldd	r31, Y+5	; 0x05
    2636:	8f 27       	eor	r24, r31
    2638:	eb 81       	ldd	r30, Y+3	; 0x03
    263a:	fc 81       	ldd	r31, Y+4	; 0x04
    263c:	80 83       	st	Z, r24
    263e:	80 91 31 22 	lds	r24, 0x2231	; 0x802231 <seqCtrl+0xf>
    2642:	90 e0       	ldi	r25, 0x00	; 0
    2644:	fc 01       	movw	r30, r24
    2646:	ee 5b       	subi	r30, 0xBE	; 190
    2648:	fc 4d       	sbci	r31, 0xDC	; 220
    264a:	ed 83       	std	Y+5, r30	; 0x05
    264c:	fe 83       	std	Y+6, r31	; 0x06
    264e:	8c 0d       	add	r24, r12
    2650:	9d 1d       	adc	r25, r13
    2652:	8e 5e       	subi	r24, 0xEE	; 238
    2654:	9c 4d       	sbci	r25, 0xDC	; 220
    2656:	f0 81       	ld	r31, Z
    2658:	f9 87       	std	Y+9, r31	; 0x09
    265a:	fc 01       	movw	r30, r24
    265c:	80 81       	ld	r24, Z
    265e:	f9 85       	ldd	r31, Y+9	; 0x09
    2660:	8f 27       	eor	r24, r31
    2662:	ed 81       	ldd	r30, Y+5	; 0x05
    2664:	fe 81       	ldd	r31, Y+6	; 0x06
    2666:	80 83       	st	Z, r24
//**************************S-box变换********************************//
void getboxvalue(uint8_t interarray[], uint8_t box[])//进行S-box正变换或者反变换
{
	for (uint8_t i = 0; i < 16; i++)
	{
		interarray[seqCtrl[i]] = box[interarray[seqCtrl[i]]];
    2668:	f7 01       	movw	r30, r14
    266a:	80 81       	ld	r24, Z
    266c:	90 e0       	ldi	r25, 0x00	; 0
    266e:	8d 59       	subi	r24, 0x9D	; 157
    2670:	9c 4d       	sbci	r25, 0xDC	; 220
    2672:	fc 01       	movw	r30, r24
    2674:	80 81       	ld	r24, Z
    2676:	f7 01       	movw	r30, r14
    2678:	80 83       	st	Z, r24
    267a:	f8 01       	movw	r30, r16
    267c:	80 81       	ld	r24, Z
    267e:	90 e0       	ldi	r25, 0x00	; 0
    2680:	8d 59       	subi	r24, 0x9D	; 157
    2682:	9c 4d       	sbci	r25, 0xDC	; 220
    2684:	fc 01       	movw	r30, r24
    2686:	80 81       	ld	r24, Z
    2688:	f8 01       	movw	r30, r16
    268a:	80 83       	st	Z, r24
    268c:	fb 01       	movw	r30, r22
    268e:	80 81       	ld	r24, Z
    2690:	90 e0       	ldi	r25, 0x00	; 0
    2692:	8d 59       	subi	r24, 0x9D	; 157
    2694:	9c 4d       	sbci	r25, 0xDC	; 220
    2696:	fc 01       	movw	r30, r24
    2698:	80 81       	ld	r24, Z
    269a:	fb 01       	movw	r30, r22
    269c:	80 83       	st	Z, r24
    269e:	fa 01       	movw	r30, r20
    26a0:	80 81       	ld	r24, Z
    26a2:	90 e0       	ldi	r25, 0x00	; 0
    26a4:	8d 59       	subi	r24, 0x9D	; 157
    26a6:	9c 4d       	sbci	r25, 0xDC	; 220
    26a8:	fc 01       	movw	r30, r24
    26aa:	80 81       	ld	r24, Z
    26ac:	fa 01       	movw	r30, r20
    26ae:	80 83       	st	Z, r24
    26b0:	f9 01       	movw	r30, r18
    26b2:	80 81       	ld	r24, Z
    26b4:	90 e0       	ldi	r25, 0x00	; 0
    26b6:	8d 59       	subi	r24, 0x9D	; 157
    26b8:	9c 4d       	sbci	r25, 0xDC	; 220
    26ba:	fc 01       	movw	r30, r24
    26bc:	80 81       	ld	r24, Z
    26be:	f9 01       	movw	r30, r18
    26c0:	80 83       	st	Z, r24
    26c2:	ea 85       	ldd	r30, Y+10	; 0x0a
    26c4:	fb 85       	ldd	r31, Y+11	; 0x0b
    26c6:	80 81       	ld	r24, Z
    26c8:	90 e0       	ldi	r25, 0x00	; 0
    26ca:	8d 59       	subi	r24, 0x9D	; 157
    26cc:	9c 4d       	sbci	r25, 0xDC	; 220
    26ce:	fc 01       	movw	r30, r24
    26d0:	80 81       	ld	r24, Z
    26d2:	ea 85       	ldd	r30, Y+10	; 0x0a
    26d4:	fb 85       	ldd	r31, Y+11	; 0x0b
    26d6:	80 83       	st	Z, r24
    26d8:	2c 91       	ld	r18, X
    26da:	30 e0       	ldi	r19, 0x00	; 0
    26dc:	2d 59       	subi	r18, 0x9D	; 157
    26de:	3c 4d       	sbci	r19, 0xDC	; 220
    26e0:	f9 01       	movw	r30, r18
    26e2:	80 81       	ld	r24, Z
    26e4:	8c 93       	st	X, r24
    26e6:	ec 85       	ldd	r30, Y+12	; 0x0c
    26e8:	fd 85       	ldd	r31, Y+13	; 0x0d
    26ea:	a0 81       	ld	r26, Z
    26ec:	b0 e0       	ldi	r27, 0x00	; 0
    26ee:	ad 59       	subi	r26, 0x9D	; 157
    26f0:	bc 4d       	sbci	r27, 0xDC	; 220
    26f2:	8c 91       	ld	r24, X
    26f4:	80 83       	st	Z, r24
    26f6:	d5 01       	movw	r26, r10
    26f8:	ec 91       	ld	r30, X
    26fa:	f0 e0       	ldi	r31, 0x00	; 0
    26fc:	ed 59       	subi	r30, 0x9D	; 157
    26fe:	fc 4d       	sbci	r31, 0xDC	; 220
    2700:	80 81       	ld	r24, Z
    2702:	8c 93       	st	X, r24
    2704:	d4 01       	movw	r26, r8
    2706:	ec 91       	ld	r30, X
    2708:	f0 e0       	ldi	r31, 0x00	; 0
    270a:	ed 59       	subi	r30, 0x9D	; 157
    270c:	fc 4d       	sbci	r31, 0xDC	; 220
    270e:	80 81       	ld	r24, Z
    2710:	8c 93       	st	X, r24
    2712:	d3 01       	movw	r26, r6
    2714:	ec 91       	ld	r30, X
    2716:	f0 e0       	ldi	r31, 0x00	; 0
    2718:	ed 59       	subi	r30, 0x9D	; 157
    271a:	fc 4d       	sbci	r31, 0xDC	; 220
    271c:	80 81       	ld	r24, Z
    271e:	8c 93       	st	X, r24
    2720:	d2 01       	movw	r26, r4
    2722:	ec 91       	ld	r30, X
    2724:	f0 e0       	ldi	r31, 0x00	; 0
    2726:	ed 59       	subi	r30, 0x9D	; 157
    2728:	fc 4d       	sbci	r31, 0xDC	; 220
    272a:	80 81       	ld	r24, Z
    272c:	8c 93       	st	X, r24
    272e:	d1 01       	movw	r26, r2
    2730:	ec 91       	ld	r30, X
    2732:	f0 e0       	ldi	r31, 0x00	; 0
    2734:	ed 59       	subi	r30, 0x9D	; 157
    2736:	fc 4d       	sbci	r31, 0xDC	; 220
    2738:	80 81       	ld	r24, Z
    273a:	8c 93       	st	X, r24
    273c:	a9 81       	ldd	r26, Y+1	; 0x01
    273e:	ba 81       	ldd	r27, Y+2	; 0x02
    2740:	ec 91       	ld	r30, X
    2742:	f0 e0       	ldi	r31, 0x00	; 0
    2744:	ed 59       	subi	r30, 0x9D	; 157
    2746:	fc 4d       	sbci	r31, 0xDC	; 220
    2748:	80 81       	ld	r24, Z
    274a:	8c 93       	st	X, r24
    274c:	ab 81       	ldd	r26, Y+3	; 0x03
    274e:	bc 81       	ldd	r27, Y+4	; 0x04
    2750:	ec 91       	ld	r30, X
    2752:	f0 e0       	ldi	r31, 0x00	; 0
    2754:	ed 59       	subi	r30, 0x9D	; 157
    2756:	fc 4d       	sbci	r31, 0xDC	; 220
    2758:	80 81       	ld	r24, Z
    275a:	8c 93       	st	X, r24
    275c:	ad 81       	ldd	r26, Y+5	; 0x05
    275e:	be 81       	ldd	r27, Y+6	; 0x06
    2760:	ec 91       	ld	r30, X
    2762:	f0 e0       	ldi	r31, 0x00	; 0
    2764:	ed 59       	subi	r30, 0x9D	; 157
    2766:	fc 4d       	sbci	r31, 0xDC	; 220
    2768:	80 81       	ld	r24, Z
    276a:	8c 93       	st	X, r24
	
	for (uint8_t i = 0; i < ROUND; i++)
	{
		addroundkey(intermediate, RDKey + 16 * i);//i是指轮数，RDKey+16*i是指选择哪一轮轮密钥//
		getboxvalue(intermediate, msbox);//
		diffusionmodule(intermediate);
    276c:	82 e4       	ldi	r24, 0x42	; 66
    276e:	93 e2       	ldi	r25, 0x23	; 35
    2770:	a2 d8       	rcall	.-3772   	; 0x18b6 <diffusionmodule>
	{
		for (uint8_t index = 0; index<16; index++)
		{
			switch (index)
			{
				case 0:dest[index] = origin[0]; break;
    2772:	f0 90 42 23 	lds	r15, 0x2342	; 0x802342 <intermediate>
				case 10:dest[index] = origin[2]; break;
				case 11:dest[index] = origin[12]; break;
				case 12:dest[index] = origin[13]; break;
				case 13:dest[index] = origin[11]; break;
				case 14:dest[index] = origin[5]; break;
				case 15:dest[index] = origin[3]; break;
    2776:	90 91 45 23 	lds	r25, 0x2345	; 0x802345 <intermediate+0x3>
				case 9:dest[index] = origin[4]; break;
				case 10:dest[index] = origin[2]; break;
				case 11:dest[index] = origin[12]; break;
				case 12:dest[index] = origin[13]; break;
				case 13:dest[index] = origin[11]; break;
				case 14:dest[index] = origin[5]; break;
    277a:	20 91 47 23 	lds	r18, 0x2347	; 0x802347 <intermediate+0x5>
				case 8:dest[index] = origin[10]; break;
				case 9:dest[index] = origin[4]; break;
				case 10:dest[index] = origin[2]; break;
				case 11:dest[index] = origin[12]; break;
				case 12:dest[index] = origin[13]; break;
				case 13:dest[index] = origin[11]; break;
    277e:	30 91 4d 23 	lds	r19, 0x234D	; 0x80234d <intermediate+0xb>
				case 7:dest[index] = origin[9]; break;
				case 8:dest[index] = origin[10]; break;
				case 9:dest[index] = origin[4]; break;
				case 10:dest[index] = origin[2]; break;
				case 11:dest[index] = origin[12]; break;
				case 12:dest[index] = origin[13]; break;
    2782:	40 91 4f 23 	lds	r20, 0x234F	; 0x80234f <intermediate+0xd>
				case 6:dest[index] = origin[15]; break;
				case 7:dest[index] = origin[9]; break;
				case 8:dest[index] = origin[10]; break;
				case 9:dest[index] = origin[4]; break;
				case 10:dest[index] = origin[2]; break;
				case 11:dest[index] = origin[12]; break;
    2786:	50 91 4e 23 	lds	r21, 0x234E	; 0x80234e <intermediate+0xc>
				case 5:dest[index] = origin[1]; break;
				case 6:dest[index] = origin[15]; break;
				case 7:dest[index] = origin[9]; break;
				case 8:dest[index] = origin[10]; break;
				case 9:dest[index] = origin[4]; break;
				case 10:dest[index] = origin[2]; break;
    278a:	60 91 44 23 	lds	r22, 0x2344	; 0x802344 <intermediate+0x2>
				case 4:dest[index] = origin[7]; break;
				case 5:dest[index] = origin[1]; break;
				case 6:dest[index] = origin[15]; break;
				case 7:dest[index] = origin[9]; break;
				case 8:dest[index] = origin[10]; break;
				case 9:dest[index] = origin[4]; break;
    278e:	70 91 46 23 	lds	r23, 0x2346	; 0x802346 <intermediate+0x4>
				case 3:dest[index] = origin[6]; break;
				case 4:dest[index] = origin[7]; break;
				case 5:dest[index] = origin[1]; break;
				case 6:dest[index] = origin[15]; break;
				case 7:dest[index] = origin[9]; break;
				case 8:dest[index] = origin[10]; break;
    2792:	e0 91 4c 23 	lds	r30, 0x234C	; 0x80234c <intermediate+0xa>
				case 2:dest[index] = origin[8]; break;
				case 3:dest[index] = origin[6]; break;
				case 4:dest[index] = origin[7]; break;
				case 5:dest[index] = origin[1]; break;
				case 6:dest[index] = origin[15]; break;
				case 7:dest[index] = origin[9]; break;
    2796:	f0 91 4b 23 	lds	r31, 0x234B	; 0x80234b <intermediate+0x9>
				case 1:dest[index] = origin[14]; break;
				case 2:dest[index] = origin[8]; break;
				case 3:dest[index] = origin[6]; break;
				case 4:dest[index] = origin[7]; break;
				case 5:dest[index] = origin[1]; break;
				case 6:dest[index] = origin[15]; break;
    279a:	a0 91 51 23 	lds	r26, 0x2351	; 0x802351 <intermediate+0xf>
				case 0:dest[index] = origin[0]; break;
				case 1:dest[index] = origin[14]; break;
				case 2:dest[index] = origin[8]; break;
				case 3:dest[index] = origin[6]; break;
				case 4:dest[index] = origin[7]; break;
				case 5:dest[index] = origin[1]; break;
    279e:	b0 91 43 23 	lds	r27, 0x2343	; 0x802343 <intermediate+0x1>
			{
				case 0:dest[index] = origin[0]; break;
				case 1:dest[index] = origin[14]; break;
				case 2:dest[index] = origin[8]; break;
				case 3:dest[index] = origin[6]; break;
				case 4:dest[index] = origin[7]; break;
    27a2:	10 91 49 23 	lds	r17, 0x2349	; 0x802349 <intermediate+0x7>
    27a6:	19 83       	std	Y+1, r17	; 0x01
			switch (index)
			{
				case 0:dest[index] = origin[0]; break;
				case 1:dest[index] = origin[14]; break;
				case 2:dest[index] = origin[8]; break;
				case 3:dest[index] = origin[6]; break;
    27a8:	80 91 48 23 	lds	r24, 0x2348	; 0x802348 <intermediate+0x6>
    27ac:	8b 83       	std	Y+3, r24	; 0x03
		{
			switch (index)
			{
				case 0:dest[index] = origin[0]; break;
				case 1:dest[index] = origin[14]; break;
				case 2:dest[index] = origin[8]; break;
    27ae:	10 91 4a 23 	lds	r17, 0x234A	; 0x80234a <intermediate+0x8>
		for (uint8_t index = 0; index<16; index++)
		{
			switch (index)
			{
				case 0:dest[index] = origin[0]; break;
				case 1:dest[index] = origin[14]; break;
    27b2:	00 91 50 23 	lds	r16, 0x2350	; 0x802350 <intermediate+0xe>
				case 15:dest[index] = origin[3]; break;
			}
		}
		for (uint8_t index = 0; index < 16; index++)
		{
			origin[index] = dest[index];
    27b6:	00 93 43 23 	sts	0x2343, r16	; 0x802343 <intermediate+0x1>
    27ba:	10 93 44 23 	sts	0x2344, r17	; 0x802344 <intermediate+0x2>
    27be:	80 93 45 23 	sts	0x2345, r24	; 0x802345 <intermediate+0x3>
    27c2:	89 81       	ldd	r24, Y+1	; 0x01
    27c4:	80 93 46 23 	sts	0x2346, r24	; 0x802346 <intermediate+0x4>
    27c8:	b0 93 47 23 	sts	0x2347, r27	; 0x802347 <intermediate+0x5>
    27cc:	a0 93 48 23 	sts	0x2348, r26	; 0x802348 <intermediate+0x6>
    27d0:	f0 93 49 23 	sts	0x2349, r31	; 0x802349 <intermediate+0x7>
    27d4:	e0 93 4a 23 	sts	0x234A, r30	; 0x80234a <intermediate+0x8>
    27d8:	70 93 4b 23 	sts	0x234B, r23	; 0x80234b <intermediate+0x9>
    27dc:	60 93 4c 23 	sts	0x234C, r22	; 0x80234c <intermediate+0xa>
    27e0:	50 93 4d 23 	sts	0x234D, r21	; 0x80234d <intermediate+0xb>
    27e4:	40 93 4e 23 	sts	0x234E, r20	; 0x80234e <intermediate+0xc>
    27e8:	30 93 4f 23 	sts	0x234F, r19	; 0x80234f <intermediate+0xd>
    27ec:	20 93 50 23 	sts	0x2350, r18	; 0x802350 <intermediate+0xe>
    27f0:	90 93 51 23 	sts	0x2351, r25	; 0x802351 <intermediate+0xf>
    27f4:	80 e1       	ldi	r24, 0x10	; 16
    27f6:	c8 0e       	add	r12, r24
    27f8:	d1 1c       	adc	r13, r1
	mask_gen(seed);//掩码生成
	cons_sbox(s_mask_1, s_mask_2);//生成新sbox
	ioport_set_pin_high(TRIGGER);//置高 PA0，触发能耗统计
	mask_all(intermediate, s_mask_1);//
	
	for (uint8_t i = 0; i < ROUND; i++)
    27fa:	80 e3       	ldi	r24, 0x30	; 48
    27fc:	c8 16       	cp	r12, r24
    27fe:	d1 04       	cpc	r13, r1
    2800:	09 f0       	breq	.+2      	; 0x2804 <encLuoMasked+0x564>
    2802:	16 ce       	rjmp	.-980    	; 0x2430 <encLuoMasked+0x190>
		addroundkey(intermediate, RDKey + 16 * i);//i是指轮数，RDKey+16*i是指选择哪一轮轮密钥//
		getboxvalue(intermediate, msbox);//
		diffusionmodule(intermediate);
		catmap(intermediate, 1, 1, 1);
	}
	mask_all(intermediate,s_mask_1);
    2804:	80 91 52 23 	lds	r24, 0x2352	; 0x802352 <s_mask_1>
}
//*************************对数组的全体元素使用mask进行掩码*********//
void mask_all(uint8_t arr[], uint8_t mask)//对数组的全体使用mask进行掩码
{
	for (uint8_t i = 0; i < 16; i++)
	arr[i] ^= mask;
    2808:	f8 26       	eor	r15, r24
    280a:	f0 92 42 23 	sts	0x2342, r15	; 0x802342 <intermediate>
    280e:	08 27       	eor	r16, r24
    2810:	00 93 43 23 	sts	0x2343, r16	; 0x802343 <intermediate+0x1>
    2814:	18 27       	eor	r17, r24
    2816:	10 93 44 23 	sts	0x2344, r17	; 0x802344 <intermediate+0x2>
    281a:	1b 81       	ldd	r17, Y+3	; 0x03
    281c:	18 27       	eor	r17, r24
    281e:	10 93 45 23 	sts	0x2345, r17	; 0x802345 <intermediate+0x3>
    2822:	19 81       	ldd	r17, Y+1	; 0x01
    2824:	18 27       	eor	r17, r24
    2826:	10 93 46 23 	sts	0x2346, r17	; 0x802346 <intermediate+0x4>
    282a:	b8 27       	eor	r27, r24
    282c:	b0 93 47 23 	sts	0x2347, r27	; 0x802347 <intermediate+0x5>
    2830:	a8 27       	eor	r26, r24
    2832:	a0 93 48 23 	sts	0x2348, r26	; 0x802348 <intermediate+0x6>
    2836:	f8 27       	eor	r31, r24
    2838:	f0 93 49 23 	sts	0x2349, r31	; 0x802349 <intermediate+0x7>
    283c:	e8 27       	eor	r30, r24
    283e:	e0 93 4a 23 	sts	0x234A, r30	; 0x80234a <intermediate+0x8>
    2842:	78 27       	eor	r23, r24
    2844:	70 93 4b 23 	sts	0x234B, r23	; 0x80234b <intermediate+0x9>
    2848:	68 27       	eor	r22, r24
    284a:	60 93 4c 23 	sts	0x234C, r22	; 0x80234c <intermediate+0xa>
    284e:	58 27       	eor	r21, r24
    2850:	50 93 4d 23 	sts	0x234D, r21	; 0x80234d <intermediate+0xb>
    2854:	48 27       	eor	r20, r24
    2856:	40 93 4e 23 	sts	0x234E, r20	; 0x80234e <intermediate+0xc>
    285a:	38 27       	eor	r19, r24
    285c:	30 93 4f 23 	sts	0x234F, r19	; 0x80234f <intermediate+0xd>
    2860:	28 27       	eor	r18, r24
    2862:	20 93 50 23 	sts	0x2350, r18	; 0x802350 <intermediate+0xe>
    2866:	89 27       	eor	r24, r25
    2868:	80 93 51 23 	sts	0x2351, r24	; 0x802351 <intermediate+0xf>
	} else {
		base->OUTCLR = arch_ioport_pin_to_mask(pin);
    286c:	81 e0       	ldi	r24, 0x01	; 1
    286e:	80 93 06 06 	sts	0x0606, r24	; 0x800606 <__TEXT_REGION_LENGTH__+0x700606>
	mask_all(intermediate,s_mask_1);

	ioport_set_pin_low(TRIGGER);//置零 PA0，触发能耗统计停止
	
	for (uint8_t i = 0; i < 16; i++)
		ciphertext[i] = RDKey[i];
    2872:	80 91 12 23 	lds	r24, 0x2312	; 0x802312 <RDKey>
    2876:	af 81       	ldd	r26, Y+7	; 0x07
    2878:	b8 85       	ldd	r27, Y+8	; 0x08
    287a:	8c 93       	st	X, r24
    287c:	80 91 13 23 	lds	r24, 0x2313	; 0x802313 <RDKey+0x1>
    2880:	11 96       	adiw	r26, 0x01	; 1
    2882:	8c 93       	st	X, r24
    2884:	11 97       	sbiw	r26, 0x01	; 1
    2886:	80 91 14 23 	lds	r24, 0x2314	; 0x802314 <RDKey+0x2>
    288a:	12 96       	adiw	r26, 0x02	; 2
    288c:	8c 93       	st	X, r24
    288e:	12 97       	sbiw	r26, 0x02	; 2
    2890:	80 91 15 23 	lds	r24, 0x2315	; 0x802315 <RDKey+0x3>
    2894:	13 96       	adiw	r26, 0x03	; 3
    2896:	8c 93       	st	X, r24
    2898:	13 97       	sbiw	r26, 0x03	; 3
    289a:	80 91 16 23 	lds	r24, 0x2316	; 0x802316 <RDKey+0x4>
    289e:	14 96       	adiw	r26, 0x04	; 4
    28a0:	8c 93       	st	X, r24
    28a2:	14 97       	sbiw	r26, 0x04	; 4
    28a4:	80 91 17 23 	lds	r24, 0x2317	; 0x802317 <RDKey+0x5>
    28a8:	15 96       	adiw	r26, 0x05	; 5
    28aa:	8c 93       	st	X, r24
    28ac:	15 97       	sbiw	r26, 0x05	; 5
    28ae:	80 91 18 23 	lds	r24, 0x2318	; 0x802318 <RDKey+0x6>
    28b2:	16 96       	adiw	r26, 0x06	; 6
    28b4:	8c 93       	st	X, r24
    28b6:	16 97       	sbiw	r26, 0x06	; 6
    28b8:	80 91 19 23 	lds	r24, 0x2319	; 0x802319 <RDKey+0x7>
    28bc:	17 96       	adiw	r26, 0x07	; 7
    28be:	8c 93       	st	X, r24
    28c0:	17 97       	sbiw	r26, 0x07	; 7
    28c2:	80 91 1a 23 	lds	r24, 0x231A	; 0x80231a <RDKey+0x8>
    28c6:	18 96       	adiw	r26, 0x08	; 8
    28c8:	8c 93       	st	X, r24
    28ca:	18 97       	sbiw	r26, 0x08	; 8
    28cc:	80 91 1b 23 	lds	r24, 0x231B	; 0x80231b <RDKey+0x9>
    28d0:	19 96       	adiw	r26, 0x09	; 9
    28d2:	8c 93       	st	X, r24
    28d4:	19 97       	sbiw	r26, 0x09	; 9
    28d6:	80 91 1c 23 	lds	r24, 0x231C	; 0x80231c <RDKey+0xa>
    28da:	1a 96       	adiw	r26, 0x0a	; 10
    28dc:	8c 93       	st	X, r24
    28de:	1a 97       	sbiw	r26, 0x0a	; 10
    28e0:	80 91 1d 23 	lds	r24, 0x231D	; 0x80231d <RDKey+0xb>
    28e4:	1b 96       	adiw	r26, 0x0b	; 11
    28e6:	8c 93       	st	X, r24
    28e8:	1b 97       	sbiw	r26, 0x0b	; 11
    28ea:	80 91 1e 23 	lds	r24, 0x231E	; 0x80231e <RDKey+0xc>
    28ee:	1c 96       	adiw	r26, 0x0c	; 12
    28f0:	8c 93       	st	X, r24
    28f2:	1c 97       	sbiw	r26, 0x0c	; 12
    28f4:	80 91 1f 23 	lds	r24, 0x231F	; 0x80231f <RDKey+0xd>
    28f8:	1d 96       	adiw	r26, 0x0d	; 13
    28fa:	8c 93       	st	X, r24
    28fc:	1d 97       	sbiw	r26, 0x0d	; 13
    28fe:	80 91 20 23 	lds	r24, 0x2320	; 0x802320 <RDKey+0xe>
    2902:	1e 96       	adiw	r26, 0x0e	; 14
    2904:	8c 93       	st	X, r24
    2906:	1e 97       	sbiw	r26, 0x0e	; 14
    2908:	80 91 21 23 	lds	r24, 0x2321	; 0x802321 <RDKey+0xf>
    290c:	1f 96       	adiw	r26, 0x0f	; 15
    290e:	8c 93       	st	X, r24
}
    2910:	2d 96       	adiw	r28, 0x0d	; 13
    2912:	cd bf       	out	0x3d, r28	; 61
    2914:	de bf       	out	0x3e, r29	; 62
    2916:	df 91       	pop	r29
    2918:	cf 91       	pop	r28
    291a:	1f 91       	pop	r17
    291c:	0f 91       	pop	r16
    291e:	ff 90       	pop	r15
    2920:	ef 90       	pop	r14
    2922:	df 90       	pop	r13
    2924:	cf 90       	pop	r12
    2926:	bf 90       	pop	r11
    2928:	af 90       	pop	r10
    292a:	9f 90       	pop	r9
    292c:	8f 90       	pop	r8
    292e:	7f 90       	pop	r7
    2930:	6f 90       	pop	r6
    2932:	5f 90       	pop	r5
    2934:	4f 90       	pop	r4
    2936:	3f 90       	pop	r3
    2938:	2f 90       	pop	r2
    293a:	08 95       	ret

0000293c <sysclk_init>:
#  include <nvm.h>
#endif


void sysclk_init(void)
{
    293c:	cf 93       	push	r28
    293e:	df 93       	push	r29
    2940:	1f 92       	push	r1
    2942:	1f 92       	push	r1
    2944:	cd b7       	in	r28, 0x3d	; 61
    2946:	de b7       	in	r29, 0x3e	; 62
    2948:	47 e0       	ldi	r20, 0x07	; 7
    294a:	50 e0       	ldi	r21, 0x00	; 0
    294c:	6f ef       	ldi	r22, 0xFF	; 255
    294e:	70 e0       	ldi	r23, 0x00	; 0
    2950:	80 e7       	ldi	r24, 0x70	; 112
    2952:	90 e0       	ldi	r25, 0x00	; 0
    2954:	0e 94 ae 1c 	call	0x395c	; 0x395c <memset>

#ifndef CONFIG_XOSC_32KHZ_LPM
#  if (XMEGA_E && (BOARD_XOSC_TYPE == XOSC_TYPE_EXTERNAL) && defined(CONFIG_XOSC_EXTERNAL_PC4))
	OSC.XOSCCTRL = OSC_XOSCSEL4_bm;
#  else
	OSC.XOSCCTRL = BOARD_XOSC_TYPE | (CONFIG_XOSC_STARTUP << 2) |
    2958:	10 92 52 00 	sts	0x0052, r1	; 0x800052 <__TEXT_REGION_LENGTH__+0x700052>

typedef uint8_t irqflags_t;

static inline irqflags_t cpu_irq_save(void)
{
	volatile irqflags_t flags = SREG;
    295c:	8f b7       	in	r24, 0x3f	; 63
    295e:	8a 83       	std	Y+2, r24	; 0x02
	cpu_irq_disable();
    2960:	f8 94       	cli
	return flags;
    2962:	9a 81       	ldd	r25, Y+2	; 0x02
	OSC.XOSCCTRL = BOARD_XOSC_TYPE | (CONFIG_XOSC_STARTUP << 2) |
			CONFIG_XOSC_RANGE | OSC_X32KLPM_bm;
#endif /* CONFIG_XOSC_32KHZ_LPM */

	flags = cpu_irq_save();
	OSC.CTRL |= id;
    2964:	80 91 50 00 	lds	r24, 0x0050	; 0x800050 <__TEXT_REGION_LENGTH__+0x700050>
    2968:	88 60       	ori	r24, 0x08	; 8
    296a:	80 93 50 00 	sts	0x0050, r24	; 0x800050 <__TEXT_REGION_LENGTH__+0x700050>
}

static inline void cpu_irq_restore(irqflags_t flags)
{
	barrier();
	SREG = flags;
    296e:	9f bf       	out	0x3f, r25	; 63

static inline bool osc_is_ready(uint8_t id)
{
	Assert(id != OSC_ID_USBSOF);

	return OSC.STATUS & id;
    2970:	80 91 51 00 	lds	r24, 0x0051	; 0x800051 <__TEXT_REGION_LENGTH__+0x700051>
 *
 * \param id A number identifying the oscillator to wait for.
 */
static inline void osc_wait_ready(uint8_t id)
{
	while (!osc_is_ready(id)) {
    2974:	83 ff       	sbrs	r24, 3
    2976:	fc cf       	rjmp	.-8      	; 0x2970 <sysclk_init+0x34>
		default:
			//unhandled_case(CONFIG_SYSCLK_SOURCE);
			return;
		}

		ccp_write_io((uint8_t *)&CLK.CTRL, CONFIG_SYSCLK_SOURCE);
    2978:	63 e0       	ldi	r22, 0x03	; 3
    297a:	80 e4       	ldi	r24, 0x40	; 64
    297c:	90 e0       	ldi	r25, 0x00	; 0
    297e:	75 d4       	rcall	.+2282   	; 0x326a <ccp_write_io>

typedef uint8_t irqflags_t;

static inline irqflags_t cpu_irq_save(void)
{
	volatile irqflags_t flags = SREG;
    2980:	8f b7       	in	r24, 0x3f	; 63
    2982:	89 83       	std	Y+1, r24	; 0x01
	cpu_irq_disable();
    2984:	f8 94       	cli
	return flags;
    2986:	99 81       	ldd	r25, Y+1	; 0x01
	irqflags_t flags;

	Assert(id != OSC_ID_USBSOF);

	flags = cpu_irq_save();
	OSC.CTRL &= ~id;
    2988:	80 91 50 00 	lds	r24, 0x0050	; 0x800050 <__TEXT_REGION_LENGTH__+0x700050>
    298c:	8e 7f       	andi	r24, 0xFE	; 254
    298e:	80 93 50 00 	sts	0x0050, r24	; 0x800050 <__TEXT_REGION_LENGTH__+0x700050>
}

static inline void cpu_irq_restore(irqflags_t flags)
{
	barrier();
	SREG = flags;
    2992:	9f bf       	out	0x3f, r25	; 63
	}

#ifdef CONFIG_RTC_SOURCE
	sysclk_rtcsrc_enable(CONFIG_RTC_SOURCE);
#endif
}
    2994:	0f 90       	pop	r0
    2996:	0f 90       	pop	r0
    2998:	df 91       	pop	r29
    299a:	cf 91       	pop	r28
    299c:	08 95       	ret

0000299e <sysclk_enable_module>:

void sysclk_enable_module(enum sysclk_port_id port, uint8_t id)
{
    299e:	cf 93       	push	r28
    29a0:	df 93       	push	r29
    29a2:	1f 92       	push	r1
    29a4:	cd b7       	in	r28, 0x3d	; 61
    29a6:	de b7       	in	r29, 0x3e	; 62

typedef uint8_t irqflags_t;

static inline irqflags_t cpu_irq_save(void)
{
	volatile irqflags_t flags = SREG;
    29a8:	9f b7       	in	r25, 0x3f	; 63
    29aa:	99 83       	std	Y+1, r25	; 0x01
	cpu_irq_disable();
    29ac:	f8 94       	cli
	return flags;
    29ae:	99 81       	ldd	r25, Y+1	; 0x01
	irqflags_t flags = cpu_irq_save();

	*((uint8_t *)&PR.PRGEN + port) &= ~id;
    29b0:	e8 2f       	mov	r30, r24
    29b2:	f0 e0       	ldi	r31, 0x00	; 0
    29b4:	e0 59       	subi	r30, 0x90	; 144
    29b6:	ff 4f       	sbci	r31, 0xFF	; 255
    29b8:	60 95       	com	r22
    29ba:	80 81       	ld	r24, Z
    29bc:	68 23       	and	r22, r24
    29be:	60 83       	st	Z, r22
}

static inline void cpu_irq_restore(irqflags_t flags)
{
	barrier();
	SREG = flags;
    29c0:	9f bf       	out	0x3f, r25	; 63

	cpu_irq_restore(flags);
}
    29c2:	0f 90       	pop	r0
    29c4:	df 91       	pop	r29
    29c6:	cf 91       	pop	r28
    29c8:	08 95       	ret

000029ca <__vector_14>:
		sysclk_disable_module(SYSCLK_PORT_C, SYSCLK_HIRES);
	} else
#endif
#ifdef TCC1
	if ((uintptr_t) tc == (uintptr_t) & TCC1) {
		sysclk_disable_module(SYSCLK_PORT_C, SYSCLK_TC1);
    29ca:	1f 92       	push	r1
    29cc:	0f 92       	push	r0
    29ce:	0f b6       	in	r0, 0x3f	; 63
    29d0:	0f 92       	push	r0
    29d2:	11 24       	eor	r1, r1
    29d4:	0b b6       	in	r0, 0x3b	; 59
    29d6:	0f 92       	push	r0
    29d8:	2f 93       	push	r18
    29da:	3f 93       	push	r19
    29dc:	4f 93       	push	r20
    29de:	5f 93       	push	r21
    29e0:	6f 93       	push	r22
    29e2:	7f 93       	push	r23
    29e4:	8f 93       	push	r24
    29e6:	9f 93       	push	r25
    29e8:	af 93       	push	r26
    29ea:	bf 93       	push	r27
    29ec:	ef 93       	push	r30
    29ee:	ff 93       	push	r31
    29f0:	e0 91 60 22 	lds	r30, 0x2260	; 0x802260 <tc_tcc0_ovf_callback>
    29f4:	f0 91 61 22 	lds	r31, 0x2261	; 0x802261 <tc_tcc0_ovf_callback+0x1>
    29f8:	30 97       	sbiw	r30, 0x00	; 0
    29fa:	09 f0       	breq	.+2      	; 0x29fe <__vector_14+0x34>
    29fc:	19 95       	eicall
    29fe:	ff 91       	pop	r31
    2a00:	ef 91       	pop	r30
    2a02:	bf 91       	pop	r27
    2a04:	af 91       	pop	r26
    2a06:	9f 91       	pop	r25
    2a08:	8f 91       	pop	r24
    2a0a:	7f 91       	pop	r23
    2a0c:	6f 91       	pop	r22
    2a0e:	5f 91       	pop	r21
    2a10:	4f 91       	pop	r20
    2a12:	3f 91       	pop	r19
    2a14:	2f 91       	pop	r18
    2a16:	0f 90       	pop	r0
    2a18:	0b be       	out	0x3b, r0	; 59
    2a1a:	0f 90       	pop	r0
    2a1c:	0f be       	out	0x3f, r0	; 63
    2a1e:	0f 90       	pop	r0
    2a20:	1f 90       	pop	r1
    2a22:	18 95       	reti

00002a24 <__vector_15>:
    2a24:	1f 92       	push	r1
    2a26:	0f 92       	push	r0
    2a28:	0f b6       	in	r0, 0x3f	; 63
    2a2a:	0f 92       	push	r0
    2a2c:	11 24       	eor	r1, r1
    2a2e:	0b b6       	in	r0, 0x3b	; 59
    2a30:	0f 92       	push	r0
    2a32:	2f 93       	push	r18
    2a34:	3f 93       	push	r19
    2a36:	4f 93       	push	r20
    2a38:	5f 93       	push	r21
    2a3a:	6f 93       	push	r22
    2a3c:	7f 93       	push	r23
    2a3e:	8f 93       	push	r24
    2a40:	9f 93       	push	r25
    2a42:	af 93       	push	r26
    2a44:	bf 93       	push	r27
    2a46:	ef 93       	push	r30
    2a48:	ff 93       	push	r31
    2a4a:	e0 91 5e 22 	lds	r30, 0x225E	; 0x80225e <tc_tcc0_err_callback>
    2a4e:	f0 91 5f 22 	lds	r31, 0x225F	; 0x80225f <tc_tcc0_err_callback+0x1>
    2a52:	30 97       	sbiw	r30, 0x00	; 0
    2a54:	09 f0       	breq	.+2      	; 0x2a58 <__vector_15+0x34>
    2a56:	19 95       	eicall
    2a58:	ff 91       	pop	r31
    2a5a:	ef 91       	pop	r30
    2a5c:	bf 91       	pop	r27
    2a5e:	af 91       	pop	r26
    2a60:	9f 91       	pop	r25
    2a62:	8f 91       	pop	r24
    2a64:	7f 91       	pop	r23
    2a66:	6f 91       	pop	r22
    2a68:	5f 91       	pop	r21
    2a6a:	4f 91       	pop	r20
    2a6c:	3f 91       	pop	r19
    2a6e:	2f 91       	pop	r18
    2a70:	0f 90       	pop	r0
    2a72:	0b be       	out	0x3b, r0	; 59
    2a74:	0f 90       	pop	r0
    2a76:	0f be       	out	0x3f, r0	; 63
    2a78:	0f 90       	pop	r0
    2a7a:	1f 90       	pop	r1
    2a7c:	18 95       	reti

00002a7e <__vector_16>:
    2a7e:	1f 92       	push	r1
    2a80:	0f 92       	push	r0
    2a82:	0f b6       	in	r0, 0x3f	; 63
    2a84:	0f 92       	push	r0
    2a86:	11 24       	eor	r1, r1
    2a88:	0b b6       	in	r0, 0x3b	; 59
    2a8a:	0f 92       	push	r0
    2a8c:	2f 93       	push	r18
    2a8e:	3f 93       	push	r19
    2a90:	4f 93       	push	r20
    2a92:	5f 93       	push	r21
    2a94:	6f 93       	push	r22
    2a96:	7f 93       	push	r23
    2a98:	8f 93       	push	r24
    2a9a:	9f 93       	push	r25
    2a9c:	af 93       	push	r26
    2a9e:	bf 93       	push	r27
    2aa0:	ef 93       	push	r30
    2aa2:	ff 93       	push	r31
    2aa4:	e0 91 5c 22 	lds	r30, 0x225C	; 0x80225c <tc_tcc0_cca_callback>
    2aa8:	f0 91 5d 22 	lds	r31, 0x225D	; 0x80225d <tc_tcc0_cca_callback+0x1>
    2aac:	30 97       	sbiw	r30, 0x00	; 0
    2aae:	09 f0       	breq	.+2      	; 0x2ab2 <__vector_16+0x34>
    2ab0:	19 95       	eicall
    2ab2:	ff 91       	pop	r31
    2ab4:	ef 91       	pop	r30
    2ab6:	bf 91       	pop	r27
    2ab8:	af 91       	pop	r26
    2aba:	9f 91       	pop	r25
    2abc:	8f 91       	pop	r24
    2abe:	7f 91       	pop	r23
    2ac0:	6f 91       	pop	r22
    2ac2:	5f 91       	pop	r21
    2ac4:	4f 91       	pop	r20
    2ac6:	3f 91       	pop	r19
    2ac8:	2f 91       	pop	r18
    2aca:	0f 90       	pop	r0
    2acc:	0b be       	out	0x3b, r0	; 59
    2ace:	0f 90       	pop	r0
    2ad0:	0f be       	out	0x3f, r0	; 63
    2ad2:	0f 90       	pop	r0
    2ad4:	1f 90       	pop	r1
    2ad6:	18 95       	reti

00002ad8 <__vector_17>:
    2ad8:	1f 92       	push	r1
    2ada:	0f 92       	push	r0
    2adc:	0f b6       	in	r0, 0x3f	; 63
    2ade:	0f 92       	push	r0
    2ae0:	11 24       	eor	r1, r1
    2ae2:	0b b6       	in	r0, 0x3b	; 59
    2ae4:	0f 92       	push	r0
    2ae6:	2f 93       	push	r18
    2ae8:	3f 93       	push	r19
    2aea:	4f 93       	push	r20
    2aec:	5f 93       	push	r21
    2aee:	6f 93       	push	r22
    2af0:	7f 93       	push	r23
    2af2:	8f 93       	push	r24
    2af4:	9f 93       	push	r25
    2af6:	af 93       	push	r26
    2af8:	bf 93       	push	r27
    2afa:	ef 93       	push	r30
    2afc:	ff 93       	push	r31
    2afe:	e0 91 5a 22 	lds	r30, 0x225A	; 0x80225a <tc_tcc0_ccb_callback>
    2b02:	f0 91 5b 22 	lds	r31, 0x225B	; 0x80225b <tc_tcc0_ccb_callback+0x1>
    2b06:	30 97       	sbiw	r30, 0x00	; 0
    2b08:	09 f0       	breq	.+2      	; 0x2b0c <__vector_17+0x34>
    2b0a:	19 95       	eicall
    2b0c:	ff 91       	pop	r31
    2b0e:	ef 91       	pop	r30
    2b10:	bf 91       	pop	r27
    2b12:	af 91       	pop	r26
    2b14:	9f 91       	pop	r25
    2b16:	8f 91       	pop	r24
    2b18:	7f 91       	pop	r23
    2b1a:	6f 91       	pop	r22
    2b1c:	5f 91       	pop	r21
    2b1e:	4f 91       	pop	r20
    2b20:	3f 91       	pop	r19
    2b22:	2f 91       	pop	r18
    2b24:	0f 90       	pop	r0
    2b26:	0b be       	out	0x3b, r0	; 59
    2b28:	0f 90       	pop	r0
    2b2a:	0f be       	out	0x3f, r0	; 63
    2b2c:	0f 90       	pop	r0
    2b2e:	1f 90       	pop	r1
    2b30:	18 95       	reti

00002b32 <__vector_18>:
    2b32:	1f 92       	push	r1
    2b34:	0f 92       	push	r0
    2b36:	0f b6       	in	r0, 0x3f	; 63
    2b38:	0f 92       	push	r0
    2b3a:	11 24       	eor	r1, r1
    2b3c:	0b b6       	in	r0, 0x3b	; 59
    2b3e:	0f 92       	push	r0
    2b40:	2f 93       	push	r18
    2b42:	3f 93       	push	r19
    2b44:	4f 93       	push	r20
    2b46:	5f 93       	push	r21
    2b48:	6f 93       	push	r22
    2b4a:	7f 93       	push	r23
    2b4c:	8f 93       	push	r24
    2b4e:	9f 93       	push	r25
    2b50:	af 93       	push	r26
    2b52:	bf 93       	push	r27
    2b54:	ef 93       	push	r30
    2b56:	ff 93       	push	r31
    2b58:	e0 91 58 22 	lds	r30, 0x2258	; 0x802258 <tc_tcc0_ccc_callback>
    2b5c:	f0 91 59 22 	lds	r31, 0x2259	; 0x802259 <tc_tcc0_ccc_callback+0x1>
    2b60:	30 97       	sbiw	r30, 0x00	; 0
    2b62:	09 f0       	breq	.+2      	; 0x2b66 <__vector_18+0x34>
    2b64:	19 95       	eicall
    2b66:	ff 91       	pop	r31
    2b68:	ef 91       	pop	r30
    2b6a:	bf 91       	pop	r27
    2b6c:	af 91       	pop	r26
    2b6e:	9f 91       	pop	r25
    2b70:	8f 91       	pop	r24
    2b72:	7f 91       	pop	r23
    2b74:	6f 91       	pop	r22
    2b76:	5f 91       	pop	r21
    2b78:	4f 91       	pop	r20
    2b7a:	3f 91       	pop	r19
    2b7c:	2f 91       	pop	r18
    2b7e:	0f 90       	pop	r0
    2b80:	0b be       	out	0x3b, r0	; 59
    2b82:	0f 90       	pop	r0
    2b84:	0f be       	out	0x3f, r0	; 63
    2b86:	0f 90       	pop	r0
    2b88:	1f 90       	pop	r1
    2b8a:	18 95       	reti

00002b8c <__vector_19>:
    2b8c:	1f 92       	push	r1
    2b8e:	0f 92       	push	r0
    2b90:	0f b6       	in	r0, 0x3f	; 63
    2b92:	0f 92       	push	r0
    2b94:	11 24       	eor	r1, r1
    2b96:	0b b6       	in	r0, 0x3b	; 59
    2b98:	0f 92       	push	r0
    2b9a:	2f 93       	push	r18
    2b9c:	3f 93       	push	r19
    2b9e:	4f 93       	push	r20
    2ba0:	5f 93       	push	r21
    2ba2:	6f 93       	push	r22
    2ba4:	7f 93       	push	r23
    2ba6:	8f 93       	push	r24
    2ba8:	9f 93       	push	r25
    2baa:	af 93       	push	r26
    2bac:	bf 93       	push	r27
    2bae:	ef 93       	push	r30
    2bb0:	ff 93       	push	r31
    2bb2:	e0 91 56 22 	lds	r30, 0x2256	; 0x802256 <tc_tcc0_ccd_callback>
    2bb6:	f0 91 57 22 	lds	r31, 0x2257	; 0x802257 <tc_tcc0_ccd_callback+0x1>
    2bba:	30 97       	sbiw	r30, 0x00	; 0
    2bbc:	09 f0       	breq	.+2      	; 0x2bc0 <__vector_19+0x34>
    2bbe:	19 95       	eicall
    2bc0:	ff 91       	pop	r31
    2bc2:	ef 91       	pop	r30
    2bc4:	bf 91       	pop	r27
    2bc6:	af 91       	pop	r26
    2bc8:	9f 91       	pop	r25
    2bca:	8f 91       	pop	r24
    2bcc:	7f 91       	pop	r23
    2bce:	6f 91       	pop	r22
    2bd0:	5f 91       	pop	r21
    2bd2:	4f 91       	pop	r20
    2bd4:	3f 91       	pop	r19
    2bd6:	2f 91       	pop	r18
    2bd8:	0f 90       	pop	r0
    2bda:	0b be       	out	0x3b, r0	; 59
    2bdc:	0f 90       	pop	r0
    2bde:	0f be       	out	0x3f, r0	; 63
    2be0:	0f 90       	pop	r0
    2be2:	1f 90       	pop	r1
    2be4:	18 95       	reti

00002be6 <__vector_20>:
    2be6:	1f 92       	push	r1
    2be8:	0f 92       	push	r0
    2bea:	0f b6       	in	r0, 0x3f	; 63
    2bec:	0f 92       	push	r0
    2bee:	11 24       	eor	r1, r1
    2bf0:	0b b6       	in	r0, 0x3b	; 59
    2bf2:	0f 92       	push	r0
    2bf4:	2f 93       	push	r18
    2bf6:	3f 93       	push	r19
    2bf8:	4f 93       	push	r20
    2bfa:	5f 93       	push	r21
    2bfc:	6f 93       	push	r22
    2bfe:	7f 93       	push	r23
    2c00:	8f 93       	push	r24
    2c02:	9f 93       	push	r25
    2c04:	af 93       	push	r26
    2c06:	bf 93       	push	r27
    2c08:	ef 93       	push	r30
    2c0a:	ff 93       	push	r31
    2c0c:	e0 91 54 22 	lds	r30, 0x2254	; 0x802254 <tc_tcc1_ovf_callback>
    2c10:	f0 91 55 22 	lds	r31, 0x2255	; 0x802255 <tc_tcc1_ovf_callback+0x1>
    2c14:	30 97       	sbiw	r30, 0x00	; 0
    2c16:	09 f0       	breq	.+2      	; 0x2c1a <__vector_20+0x34>
    2c18:	19 95       	eicall
    2c1a:	ff 91       	pop	r31
    2c1c:	ef 91       	pop	r30
    2c1e:	bf 91       	pop	r27
    2c20:	af 91       	pop	r26
    2c22:	9f 91       	pop	r25
    2c24:	8f 91       	pop	r24
    2c26:	7f 91       	pop	r23
    2c28:	6f 91       	pop	r22
    2c2a:	5f 91       	pop	r21
    2c2c:	4f 91       	pop	r20
    2c2e:	3f 91       	pop	r19
    2c30:	2f 91       	pop	r18
    2c32:	0f 90       	pop	r0
    2c34:	0b be       	out	0x3b, r0	; 59
    2c36:	0f 90       	pop	r0
    2c38:	0f be       	out	0x3f, r0	; 63
    2c3a:	0f 90       	pop	r0
    2c3c:	1f 90       	pop	r1
    2c3e:	18 95       	reti

00002c40 <__vector_21>:
    2c40:	1f 92       	push	r1
    2c42:	0f 92       	push	r0
    2c44:	0f b6       	in	r0, 0x3f	; 63
    2c46:	0f 92       	push	r0
    2c48:	11 24       	eor	r1, r1
    2c4a:	0b b6       	in	r0, 0x3b	; 59
    2c4c:	0f 92       	push	r0
    2c4e:	2f 93       	push	r18
    2c50:	3f 93       	push	r19
    2c52:	4f 93       	push	r20
    2c54:	5f 93       	push	r21
    2c56:	6f 93       	push	r22
    2c58:	7f 93       	push	r23
    2c5a:	8f 93       	push	r24
    2c5c:	9f 93       	push	r25
    2c5e:	af 93       	push	r26
    2c60:	bf 93       	push	r27
    2c62:	ef 93       	push	r30
    2c64:	ff 93       	push	r31
    2c66:	e0 91 52 22 	lds	r30, 0x2252	; 0x802252 <tc_tcc1_err_callback>
    2c6a:	f0 91 53 22 	lds	r31, 0x2253	; 0x802253 <tc_tcc1_err_callback+0x1>
    2c6e:	30 97       	sbiw	r30, 0x00	; 0
    2c70:	09 f0       	breq	.+2      	; 0x2c74 <__vector_21+0x34>
    2c72:	19 95       	eicall
    2c74:	ff 91       	pop	r31
    2c76:	ef 91       	pop	r30
    2c78:	bf 91       	pop	r27
    2c7a:	af 91       	pop	r26
    2c7c:	9f 91       	pop	r25
    2c7e:	8f 91       	pop	r24
    2c80:	7f 91       	pop	r23
    2c82:	6f 91       	pop	r22
    2c84:	5f 91       	pop	r21
    2c86:	4f 91       	pop	r20
    2c88:	3f 91       	pop	r19
    2c8a:	2f 91       	pop	r18
    2c8c:	0f 90       	pop	r0
    2c8e:	0b be       	out	0x3b, r0	; 59
    2c90:	0f 90       	pop	r0
    2c92:	0f be       	out	0x3f, r0	; 63
    2c94:	0f 90       	pop	r0
    2c96:	1f 90       	pop	r1
    2c98:	18 95       	reti

00002c9a <__vector_22>:
    2c9a:	1f 92       	push	r1
    2c9c:	0f 92       	push	r0
    2c9e:	0f b6       	in	r0, 0x3f	; 63
    2ca0:	0f 92       	push	r0
    2ca2:	11 24       	eor	r1, r1
    2ca4:	0b b6       	in	r0, 0x3b	; 59
    2ca6:	0f 92       	push	r0
    2ca8:	2f 93       	push	r18
    2caa:	3f 93       	push	r19
    2cac:	4f 93       	push	r20
    2cae:	5f 93       	push	r21
    2cb0:	6f 93       	push	r22
    2cb2:	7f 93       	push	r23
    2cb4:	8f 93       	push	r24
    2cb6:	9f 93       	push	r25
    2cb8:	af 93       	push	r26
    2cba:	bf 93       	push	r27
    2cbc:	ef 93       	push	r30
    2cbe:	ff 93       	push	r31
    2cc0:	e0 91 50 22 	lds	r30, 0x2250	; 0x802250 <tc_tcc1_cca_callback>
    2cc4:	f0 91 51 22 	lds	r31, 0x2251	; 0x802251 <tc_tcc1_cca_callback+0x1>
    2cc8:	30 97       	sbiw	r30, 0x00	; 0
    2cca:	09 f0       	breq	.+2      	; 0x2cce <__vector_22+0x34>
    2ccc:	19 95       	eicall
    2cce:	ff 91       	pop	r31
    2cd0:	ef 91       	pop	r30
    2cd2:	bf 91       	pop	r27
    2cd4:	af 91       	pop	r26
    2cd6:	9f 91       	pop	r25
    2cd8:	8f 91       	pop	r24
    2cda:	7f 91       	pop	r23
    2cdc:	6f 91       	pop	r22
    2cde:	5f 91       	pop	r21
    2ce0:	4f 91       	pop	r20
    2ce2:	3f 91       	pop	r19
    2ce4:	2f 91       	pop	r18
    2ce6:	0f 90       	pop	r0
    2ce8:	0b be       	out	0x3b, r0	; 59
    2cea:	0f 90       	pop	r0
    2cec:	0f be       	out	0x3f, r0	; 63
    2cee:	0f 90       	pop	r0
    2cf0:	1f 90       	pop	r1
    2cf2:	18 95       	reti

00002cf4 <__vector_23>:
    2cf4:	1f 92       	push	r1
    2cf6:	0f 92       	push	r0
    2cf8:	0f b6       	in	r0, 0x3f	; 63
    2cfa:	0f 92       	push	r0
    2cfc:	11 24       	eor	r1, r1
    2cfe:	0b b6       	in	r0, 0x3b	; 59
    2d00:	0f 92       	push	r0
    2d02:	2f 93       	push	r18
    2d04:	3f 93       	push	r19
    2d06:	4f 93       	push	r20
    2d08:	5f 93       	push	r21
    2d0a:	6f 93       	push	r22
    2d0c:	7f 93       	push	r23
    2d0e:	8f 93       	push	r24
    2d10:	9f 93       	push	r25
    2d12:	af 93       	push	r26
    2d14:	bf 93       	push	r27
    2d16:	ef 93       	push	r30
    2d18:	ff 93       	push	r31
    2d1a:	e0 91 4e 22 	lds	r30, 0x224E	; 0x80224e <tc_tcc1_ccb_callback>
    2d1e:	f0 91 4f 22 	lds	r31, 0x224F	; 0x80224f <tc_tcc1_ccb_callback+0x1>
    2d22:	30 97       	sbiw	r30, 0x00	; 0
    2d24:	09 f0       	breq	.+2      	; 0x2d28 <__vector_23+0x34>
    2d26:	19 95       	eicall
    2d28:	ff 91       	pop	r31
    2d2a:	ef 91       	pop	r30
    2d2c:	bf 91       	pop	r27
    2d2e:	af 91       	pop	r26
    2d30:	9f 91       	pop	r25
    2d32:	8f 91       	pop	r24
    2d34:	7f 91       	pop	r23
    2d36:	6f 91       	pop	r22
    2d38:	5f 91       	pop	r21
    2d3a:	4f 91       	pop	r20
    2d3c:	3f 91       	pop	r19
    2d3e:	2f 91       	pop	r18
    2d40:	0f 90       	pop	r0
    2d42:	0b be       	out	0x3b, r0	; 59
    2d44:	0f 90       	pop	r0
    2d46:	0f be       	out	0x3f, r0	; 63
    2d48:	0f 90       	pop	r0
    2d4a:	1f 90       	pop	r1
    2d4c:	18 95       	reti

00002d4e <__vector_77>:
    2d4e:	1f 92       	push	r1
    2d50:	0f 92       	push	r0
    2d52:	0f b6       	in	r0, 0x3f	; 63
    2d54:	0f 92       	push	r0
    2d56:	11 24       	eor	r1, r1
    2d58:	0b b6       	in	r0, 0x3b	; 59
    2d5a:	0f 92       	push	r0
    2d5c:	2f 93       	push	r18
    2d5e:	3f 93       	push	r19
    2d60:	4f 93       	push	r20
    2d62:	5f 93       	push	r21
    2d64:	6f 93       	push	r22
    2d66:	7f 93       	push	r23
    2d68:	8f 93       	push	r24
    2d6a:	9f 93       	push	r25
    2d6c:	af 93       	push	r26
    2d6e:	bf 93       	push	r27
    2d70:	ef 93       	push	r30
    2d72:	ff 93       	push	r31
    2d74:	e0 91 4c 22 	lds	r30, 0x224C	; 0x80224c <tc_tcd0_ovf_callback>
    2d78:	f0 91 4d 22 	lds	r31, 0x224D	; 0x80224d <tc_tcd0_ovf_callback+0x1>
    2d7c:	30 97       	sbiw	r30, 0x00	; 0
    2d7e:	09 f0       	breq	.+2      	; 0x2d82 <__vector_77+0x34>
    2d80:	19 95       	eicall
    2d82:	ff 91       	pop	r31
    2d84:	ef 91       	pop	r30
    2d86:	bf 91       	pop	r27
    2d88:	af 91       	pop	r26
    2d8a:	9f 91       	pop	r25
    2d8c:	8f 91       	pop	r24
    2d8e:	7f 91       	pop	r23
    2d90:	6f 91       	pop	r22
    2d92:	5f 91       	pop	r21
    2d94:	4f 91       	pop	r20
    2d96:	3f 91       	pop	r19
    2d98:	2f 91       	pop	r18
    2d9a:	0f 90       	pop	r0
    2d9c:	0b be       	out	0x3b, r0	; 59
    2d9e:	0f 90       	pop	r0
    2da0:	0f be       	out	0x3f, r0	; 63
    2da2:	0f 90       	pop	r0
    2da4:	1f 90       	pop	r1
    2da6:	18 95       	reti

00002da8 <__vector_78>:
    2da8:	1f 92       	push	r1
    2daa:	0f 92       	push	r0
    2dac:	0f b6       	in	r0, 0x3f	; 63
    2dae:	0f 92       	push	r0
    2db0:	11 24       	eor	r1, r1
    2db2:	0b b6       	in	r0, 0x3b	; 59
    2db4:	0f 92       	push	r0
    2db6:	2f 93       	push	r18
    2db8:	3f 93       	push	r19
    2dba:	4f 93       	push	r20
    2dbc:	5f 93       	push	r21
    2dbe:	6f 93       	push	r22
    2dc0:	7f 93       	push	r23
    2dc2:	8f 93       	push	r24
    2dc4:	9f 93       	push	r25
    2dc6:	af 93       	push	r26
    2dc8:	bf 93       	push	r27
    2dca:	ef 93       	push	r30
    2dcc:	ff 93       	push	r31
    2dce:	e0 91 4a 22 	lds	r30, 0x224A	; 0x80224a <tc_tcd0_err_callback>
    2dd2:	f0 91 4b 22 	lds	r31, 0x224B	; 0x80224b <tc_tcd0_err_callback+0x1>
    2dd6:	30 97       	sbiw	r30, 0x00	; 0
    2dd8:	09 f0       	breq	.+2      	; 0x2ddc <__vector_78+0x34>
    2dda:	19 95       	eicall
    2ddc:	ff 91       	pop	r31
    2dde:	ef 91       	pop	r30
    2de0:	bf 91       	pop	r27
    2de2:	af 91       	pop	r26
    2de4:	9f 91       	pop	r25
    2de6:	8f 91       	pop	r24
    2de8:	7f 91       	pop	r23
    2dea:	6f 91       	pop	r22
    2dec:	5f 91       	pop	r21
    2dee:	4f 91       	pop	r20
    2df0:	3f 91       	pop	r19
    2df2:	2f 91       	pop	r18
    2df4:	0f 90       	pop	r0
    2df6:	0b be       	out	0x3b, r0	; 59
    2df8:	0f 90       	pop	r0
    2dfa:	0f be       	out	0x3f, r0	; 63
    2dfc:	0f 90       	pop	r0
    2dfe:	1f 90       	pop	r1
    2e00:	18 95       	reti

00002e02 <__vector_79>:
    2e02:	1f 92       	push	r1
    2e04:	0f 92       	push	r0
    2e06:	0f b6       	in	r0, 0x3f	; 63
    2e08:	0f 92       	push	r0
    2e0a:	11 24       	eor	r1, r1
    2e0c:	0b b6       	in	r0, 0x3b	; 59
    2e0e:	0f 92       	push	r0
    2e10:	2f 93       	push	r18
    2e12:	3f 93       	push	r19
    2e14:	4f 93       	push	r20
    2e16:	5f 93       	push	r21
    2e18:	6f 93       	push	r22
    2e1a:	7f 93       	push	r23
    2e1c:	8f 93       	push	r24
    2e1e:	9f 93       	push	r25
    2e20:	af 93       	push	r26
    2e22:	bf 93       	push	r27
    2e24:	ef 93       	push	r30
    2e26:	ff 93       	push	r31
    2e28:	e0 91 48 22 	lds	r30, 0x2248	; 0x802248 <tc_tcd0_cca_callback>
    2e2c:	f0 91 49 22 	lds	r31, 0x2249	; 0x802249 <tc_tcd0_cca_callback+0x1>
    2e30:	30 97       	sbiw	r30, 0x00	; 0
    2e32:	09 f0       	breq	.+2      	; 0x2e36 <__vector_79+0x34>
    2e34:	19 95       	eicall
    2e36:	ff 91       	pop	r31
    2e38:	ef 91       	pop	r30
    2e3a:	bf 91       	pop	r27
    2e3c:	af 91       	pop	r26
    2e3e:	9f 91       	pop	r25
    2e40:	8f 91       	pop	r24
    2e42:	7f 91       	pop	r23
    2e44:	6f 91       	pop	r22
    2e46:	5f 91       	pop	r21
    2e48:	4f 91       	pop	r20
    2e4a:	3f 91       	pop	r19
    2e4c:	2f 91       	pop	r18
    2e4e:	0f 90       	pop	r0
    2e50:	0b be       	out	0x3b, r0	; 59
    2e52:	0f 90       	pop	r0
    2e54:	0f be       	out	0x3f, r0	; 63
    2e56:	0f 90       	pop	r0
    2e58:	1f 90       	pop	r1
    2e5a:	18 95       	reti

00002e5c <__vector_80>:
    2e5c:	1f 92       	push	r1
    2e5e:	0f 92       	push	r0
    2e60:	0f b6       	in	r0, 0x3f	; 63
    2e62:	0f 92       	push	r0
    2e64:	11 24       	eor	r1, r1
    2e66:	0b b6       	in	r0, 0x3b	; 59
    2e68:	0f 92       	push	r0
    2e6a:	2f 93       	push	r18
    2e6c:	3f 93       	push	r19
    2e6e:	4f 93       	push	r20
    2e70:	5f 93       	push	r21
    2e72:	6f 93       	push	r22
    2e74:	7f 93       	push	r23
    2e76:	8f 93       	push	r24
    2e78:	9f 93       	push	r25
    2e7a:	af 93       	push	r26
    2e7c:	bf 93       	push	r27
    2e7e:	ef 93       	push	r30
    2e80:	ff 93       	push	r31
    2e82:	e0 91 46 22 	lds	r30, 0x2246	; 0x802246 <tc_tcd0_ccb_callback>
    2e86:	f0 91 47 22 	lds	r31, 0x2247	; 0x802247 <tc_tcd0_ccb_callback+0x1>
    2e8a:	30 97       	sbiw	r30, 0x00	; 0
    2e8c:	09 f0       	breq	.+2      	; 0x2e90 <__vector_80+0x34>
    2e8e:	19 95       	eicall
    2e90:	ff 91       	pop	r31
    2e92:	ef 91       	pop	r30
    2e94:	bf 91       	pop	r27
    2e96:	af 91       	pop	r26
    2e98:	9f 91       	pop	r25
    2e9a:	8f 91       	pop	r24
    2e9c:	7f 91       	pop	r23
    2e9e:	6f 91       	pop	r22
    2ea0:	5f 91       	pop	r21
    2ea2:	4f 91       	pop	r20
    2ea4:	3f 91       	pop	r19
    2ea6:	2f 91       	pop	r18
    2ea8:	0f 90       	pop	r0
    2eaa:	0b be       	out	0x3b, r0	; 59
    2eac:	0f 90       	pop	r0
    2eae:	0f be       	out	0x3f, r0	; 63
    2eb0:	0f 90       	pop	r0
    2eb2:	1f 90       	pop	r1
    2eb4:	18 95       	reti

00002eb6 <__vector_81>:
    2eb6:	1f 92       	push	r1
    2eb8:	0f 92       	push	r0
    2eba:	0f b6       	in	r0, 0x3f	; 63
    2ebc:	0f 92       	push	r0
    2ebe:	11 24       	eor	r1, r1
    2ec0:	0b b6       	in	r0, 0x3b	; 59
    2ec2:	0f 92       	push	r0
    2ec4:	2f 93       	push	r18
    2ec6:	3f 93       	push	r19
    2ec8:	4f 93       	push	r20
    2eca:	5f 93       	push	r21
    2ecc:	6f 93       	push	r22
    2ece:	7f 93       	push	r23
    2ed0:	8f 93       	push	r24
    2ed2:	9f 93       	push	r25
    2ed4:	af 93       	push	r26
    2ed6:	bf 93       	push	r27
    2ed8:	ef 93       	push	r30
    2eda:	ff 93       	push	r31
    2edc:	e0 91 44 22 	lds	r30, 0x2244	; 0x802244 <tc_tcd0_ccc_callback>
    2ee0:	f0 91 45 22 	lds	r31, 0x2245	; 0x802245 <tc_tcd0_ccc_callback+0x1>
    2ee4:	30 97       	sbiw	r30, 0x00	; 0
    2ee6:	09 f0       	breq	.+2      	; 0x2eea <__vector_81+0x34>
    2ee8:	19 95       	eicall
    2eea:	ff 91       	pop	r31
    2eec:	ef 91       	pop	r30
    2eee:	bf 91       	pop	r27
    2ef0:	af 91       	pop	r26
    2ef2:	9f 91       	pop	r25
    2ef4:	8f 91       	pop	r24
    2ef6:	7f 91       	pop	r23
    2ef8:	6f 91       	pop	r22
    2efa:	5f 91       	pop	r21
    2efc:	4f 91       	pop	r20
    2efe:	3f 91       	pop	r19
    2f00:	2f 91       	pop	r18
    2f02:	0f 90       	pop	r0
    2f04:	0b be       	out	0x3b, r0	; 59
    2f06:	0f 90       	pop	r0
    2f08:	0f be       	out	0x3f, r0	; 63
    2f0a:	0f 90       	pop	r0
    2f0c:	1f 90       	pop	r1
    2f0e:	18 95       	reti

00002f10 <__vector_82>:
    2f10:	1f 92       	push	r1
    2f12:	0f 92       	push	r0
    2f14:	0f b6       	in	r0, 0x3f	; 63
    2f16:	0f 92       	push	r0
    2f18:	11 24       	eor	r1, r1
    2f1a:	0b b6       	in	r0, 0x3b	; 59
    2f1c:	0f 92       	push	r0
    2f1e:	2f 93       	push	r18
    2f20:	3f 93       	push	r19
    2f22:	4f 93       	push	r20
    2f24:	5f 93       	push	r21
    2f26:	6f 93       	push	r22
    2f28:	7f 93       	push	r23
    2f2a:	8f 93       	push	r24
    2f2c:	9f 93       	push	r25
    2f2e:	af 93       	push	r26
    2f30:	bf 93       	push	r27
    2f32:	ef 93       	push	r30
    2f34:	ff 93       	push	r31
    2f36:	e0 91 42 22 	lds	r30, 0x2242	; 0x802242 <tc_tcd0_ccd_callback>
    2f3a:	f0 91 43 22 	lds	r31, 0x2243	; 0x802243 <tc_tcd0_ccd_callback+0x1>
    2f3e:	30 97       	sbiw	r30, 0x00	; 0
    2f40:	09 f0       	breq	.+2      	; 0x2f44 <__vector_82+0x34>
    2f42:	19 95       	eicall
    2f44:	ff 91       	pop	r31
    2f46:	ef 91       	pop	r30
    2f48:	bf 91       	pop	r27
    2f4a:	af 91       	pop	r26
    2f4c:	9f 91       	pop	r25
    2f4e:	8f 91       	pop	r24
    2f50:	7f 91       	pop	r23
    2f52:	6f 91       	pop	r22
    2f54:	5f 91       	pop	r21
    2f56:	4f 91       	pop	r20
    2f58:	3f 91       	pop	r19
    2f5a:	2f 91       	pop	r18
    2f5c:	0f 90       	pop	r0
    2f5e:	0b be       	out	0x3b, r0	; 59
    2f60:	0f 90       	pop	r0
    2f62:	0f be       	out	0x3f, r0	; 63
    2f64:	0f 90       	pop	r0
    2f66:	1f 90       	pop	r1
    2f68:	18 95       	reti

00002f6a <__vector_47>:
    2f6a:	1f 92       	push	r1
    2f6c:	0f 92       	push	r0
    2f6e:	0f b6       	in	r0, 0x3f	; 63
    2f70:	0f 92       	push	r0
    2f72:	11 24       	eor	r1, r1
    2f74:	0b b6       	in	r0, 0x3b	; 59
    2f76:	0f 92       	push	r0
    2f78:	2f 93       	push	r18
    2f7a:	3f 93       	push	r19
    2f7c:	4f 93       	push	r20
    2f7e:	5f 93       	push	r21
    2f80:	6f 93       	push	r22
    2f82:	7f 93       	push	r23
    2f84:	8f 93       	push	r24
    2f86:	9f 93       	push	r25
    2f88:	af 93       	push	r26
    2f8a:	bf 93       	push	r27
    2f8c:	ef 93       	push	r30
    2f8e:	ff 93       	push	r31
    2f90:	e0 91 40 22 	lds	r30, 0x2240	; 0x802240 <tc_tce0_ovf_callback>
    2f94:	f0 91 41 22 	lds	r31, 0x2241	; 0x802241 <tc_tce0_ovf_callback+0x1>
    2f98:	30 97       	sbiw	r30, 0x00	; 0
    2f9a:	09 f0       	breq	.+2      	; 0x2f9e <__vector_47+0x34>
    2f9c:	19 95       	eicall
    2f9e:	ff 91       	pop	r31
    2fa0:	ef 91       	pop	r30
    2fa2:	bf 91       	pop	r27
    2fa4:	af 91       	pop	r26
    2fa6:	9f 91       	pop	r25
    2fa8:	8f 91       	pop	r24
    2faa:	7f 91       	pop	r23
    2fac:	6f 91       	pop	r22
    2fae:	5f 91       	pop	r21
    2fb0:	4f 91       	pop	r20
    2fb2:	3f 91       	pop	r19
    2fb4:	2f 91       	pop	r18
    2fb6:	0f 90       	pop	r0
    2fb8:	0b be       	out	0x3b, r0	; 59
    2fba:	0f 90       	pop	r0
    2fbc:	0f be       	out	0x3f, r0	; 63
    2fbe:	0f 90       	pop	r0
    2fc0:	1f 90       	pop	r1
    2fc2:	18 95       	reti

00002fc4 <__vector_48>:
    2fc4:	1f 92       	push	r1
    2fc6:	0f 92       	push	r0
    2fc8:	0f b6       	in	r0, 0x3f	; 63
    2fca:	0f 92       	push	r0
    2fcc:	11 24       	eor	r1, r1
    2fce:	0b b6       	in	r0, 0x3b	; 59
    2fd0:	0f 92       	push	r0
    2fd2:	2f 93       	push	r18
    2fd4:	3f 93       	push	r19
    2fd6:	4f 93       	push	r20
    2fd8:	5f 93       	push	r21
    2fda:	6f 93       	push	r22
    2fdc:	7f 93       	push	r23
    2fde:	8f 93       	push	r24
    2fe0:	9f 93       	push	r25
    2fe2:	af 93       	push	r26
    2fe4:	bf 93       	push	r27
    2fe6:	ef 93       	push	r30
    2fe8:	ff 93       	push	r31
    2fea:	e0 91 3e 22 	lds	r30, 0x223E	; 0x80223e <tc_tce0_err_callback>
    2fee:	f0 91 3f 22 	lds	r31, 0x223F	; 0x80223f <tc_tce0_err_callback+0x1>
    2ff2:	30 97       	sbiw	r30, 0x00	; 0
    2ff4:	09 f0       	breq	.+2      	; 0x2ff8 <__vector_48+0x34>
    2ff6:	19 95       	eicall
    2ff8:	ff 91       	pop	r31
    2ffa:	ef 91       	pop	r30
    2ffc:	bf 91       	pop	r27
    2ffe:	af 91       	pop	r26
    3000:	9f 91       	pop	r25
    3002:	8f 91       	pop	r24
    3004:	7f 91       	pop	r23
    3006:	6f 91       	pop	r22
    3008:	5f 91       	pop	r21
    300a:	4f 91       	pop	r20
    300c:	3f 91       	pop	r19
    300e:	2f 91       	pop	r18
    3010:	0f 90       	pop	r0
    3012:	0b be       	out	0x3b, r0	; 59
    3014:	0f 90       	pop	r0
    3016:	0f be       	out	0x3f, r0	; 63
    3018:	0f 90       	pop	r0
    301a:	1f 90       	pop	r1
    301c:	18 95       	reti

0000301e <__vector_49>:
    301e:	1f 92       	push	r1
    3020:	0f 92       	push	r0
    3022:	0f b6       	in	r0, 0x3f	; 63
    3024:	0f 92       	push	r0
    3026:	11 24       	eor	r1, r1
    3028:	0b b6       	in	r0, 0x3b	; 59
    302a:	0f 92       	push	r0
    302c:	2f 93       	push	r18
    302e:	3f 93       	push	r19
    3030:	4f 93       	push	r20
    3032:	5f 93       	push	r21
    3034:	6f 93       	push	r22
    3036:	7f 93       	push	r23
    3038:	8f 93       	push	r24
    303a:	9f 93       	push	r25
    303c:	af 93       	push	r26
    303e:	bf 93       	push	r27
    3040:	ef 93       	push	r30
    3042:	ff 93       	push	r31
    3044:	e0 91 3c 22 	lds	r30, 0x223C	; 0x80223c <tc_tce0_cca_callback>
    3048:	f0 91 3d 22 	lds	r31, 0x223D	; 0x80223d <tc_tce0_cca_callback+0x1>
    304c:	30 97       	sbiw	r30, 0x00	; 0
    304e:	09 f0       	breq	.+2      	; 0x3052 <__vector_49+0x34>
    3050:	19 95       	eicall
    3052:	ff 91       	pop	r31
    3054:	ef 91       	pop	r30
    3056:	bf 91       	pop	r27
    3058:	af 91       	pop	r26
    305a:	9f 91       	pop	r25
    305c:	8f 91       	pop	r24
    305e:	7f 91       	pop	r23
    3060:	6f 91       	pop	r22
    3062:	5f 91       	pop	r21
    3064:	4f 91       	pop	r20
    3066:	3f 91       	pop	r19
    3068:	2f 91       	pop	r18
    306a:	0f 90       	pop	r0
    306c:	0b be       	out	0x3b, r0	; 59
    306e:	0f 90       	pop	r0
    3070:	0f be       	out	0x3f, r0	; 63
    3072:	0f 90       	pop	r0
    3074:	1f 90       	pop	r1
    3076:	18 95       	reti

00003078 <__vector_50>:
    3078:	1f 92       	push	r1
    307a:	0f 92       	push	r0
    307c:	0f b6       	in	r0, 0x3f	; 63
    307e:	0f 92       	push	r0
    3080:	11 24       	eor	r1, r1
    3082:	0b b6       	in	r0, 0x3b	; 59
    3084:	0f 92       	push	r0
    3086:	2f 93       	push	r18
    3088:	3f 93       	push	r19
    308a:	4f 93       	push	r20
    308c:	5f 93       	push	r21
    308e:	6f 93       	push	r22
    3090:	7f 93       	push	r23
    3092:	8f 93       	push	r24
    3094:	9f 93       	push	r25
    3096:	af 93       	push	r26
    3098:	bf 93       	push	r27
    309a:	ef 93       	push	r30
    309c:	ff 93       	push	r31
    309e:	e0 91 3a 22 	lds	r30, 0x223A	; 0x80223a <tc_tce0_ccb_callback>
    30a2:	f0 91 3b 22 	lds	r31, 0x223B	; 0x80223b <tc_tce0_ccb_callback+0x1>
    30a6:	30 97       	sbiw	r30, 0x00	; 0
    30a8:	09 f0       	breq	.+2      	; 0x30ac <__vector_50+0x34>
    30aa:	19 95       	eicall
    30ac:	ff 91       	pop	r31
    30ae:	ef 91       	pop	r30
    30b0:	bf 91       	pop	r27
    30b2:	af 91       	pop	r26
    30b4:	9f 91       	pop	r25
    30b6:	8f 91       	pop	r24
    30b8:	7f 91       	pop	r23
    30ba:	6f 91       	pop	r22
    30bc:	5f 91       	pop	r21
    30be:	4f 91       	pop	r20
    30c0:	3f 91       	pop	r19
    30c2:	2f 91       	pop	r18
    30c4:	0f 90       	pop	r0
    30c6:	0b be       	out	0x3b, r0	; 59
    30c8:	0f 90       	pop	r0
    30ca:	0f be       	out	0x3f, r0	; 63
    30cc:	0f 90       	pop	r0
    30ce:	1f 90       	pop	r1
    30d0:	18 95       	reti

000030d2 <__vector_51>:
    30d2:	1f 92       	push	r1
    30d4:	0f 92       	push	r0
    30d6:	0f b6       	in	r0, 0x3f	; 63
    30d8:	0f 92       	push	r0
    30da:	11 24       	eor	r1, r1
    30dc:	0b b6       	in	r0, 0x3b	; 59
    30de:	0f 92       	push	r0
    30e0:	2f 93       	push	r18
    30e2:	3f 93       	push	r19
    30e4:	4f 93       	push	r20
    30e6:	5f 93       	push	r21
    30e8:	6f 93       	push	r22
    30ea:	7f 93       	push	r23
    30ec:	8f 93       	push	r24
    30ee:	9f 93       	push	r25
    30f0:	af 93       	push	r26
    30f2:	bf 93       	push	r27
    30f4:	ef 93       	push	r30
    30f6:	ff 93       	push	r31
    30f8:	e0 91 38 22 	lds	r30, 0x2238	; 0x802238 <tc_tce0_ccc_callback>
    30fc:	f0 91 39 22 	lds	r31, 0x2239	; 0x802239 <tc_tce0_ccc_callback+0x1>
    3100:	30 97       	sbiw	r30, 0x00	; 0
    3102:	09 f0       	breq	.+2      	; 0x3106 <__vector_51+0x34>
    3104:	19 95       	eicall
    3106:	ff 91       	pop	r31
    3108:	ef 91       	pop	r30
    310a:	bf 91       	pop	r27
    310c:	af 91       	pop	r26
    310e:	9f 91       	pop	r25
    3110:	8f 91       	pop	r24
    3112:	7f 91       	pop	r23
    3114:	6f 91       	pop	r22
    3116:	5f 91       	pop	r21
    3118:	4f 91       	pop	r20
    311a:	3f 91       	pop	r19
    311c:	2f 91       	pop	r18
    311e:	0f 90       	pop	r0
    3120:	0b be       	out	0x3b, r0	; 59
    3122:	0f 90       	pop	r0
    3124:	0f be       	out	0x3f, r0	; 63
    3126:	0f 90       	pop	r0
    3128:	1f 90       	pop	r1
    312a:	18 95       	reti

0000312c <__vector_52>:
    312c:	1f 92       	push	r1
    312e:	0f 92       	push	r0
    3130:	0f b6       	in	r0, 0x3f	; 63
    3132:	0f 92       	push	r0
    3134:	11 24       	eor	r1, r1
    3136:	0b b6       	in	r0, 0x3b	; 59
    3138:	0f 92       	push	r0
    313a:	2f 93       	push	r18
    313c:	3f 93       	push	r19
    313e:	4f 93       	push	r20
    3140:	5f 93       	push	r21
    3142:	6f 93       	push	r22
    3144:	7f 93       	push	r23
    3146:	8f 93       	push	r24
    3148:	9f 93       	push	r25
    314a:	af 93       	push	r26
    314c:	bf 93       	push	r27
    314e:	ef 93       	push	r30
    3150:	ff 93       	push	r31
    3152:	e0 91 36 22 	lds	r30, 0x2236	; 0x802236 <tc_tce0_ccd_callback>
    3156:	f0 91 37 22 	lds	r31, 0x2237	; 0x802237 <tc_tce0_ccd_callback+0x1>
    315a:	30 97       	sbiw	r30, 0x00	; 0
    315c:	09 f0       	breq	.+2      	; 0x3160 <__vector_52+0x34>
    315e:	19 95       	eicall
    3160:	ff 91       	pop	r31
    3162:	ef 91       	pop	r30
    3164:	bf 91       	pop	r27
    3166:	af 91       	pop	r26
    3168:	9f 91       	pop	r25
    316a:	8f 91       	pop	r24
    316c:	7f 91       	pop	r23
    316e:	6f 91       	pop	r22
    3170:	5f 91       	pop	r21
    3172:	4f 91       	pop	r20
    3174:	3f 91       	pop	r19
    3176:	2f 91       	pop	r18
    3178:	0f 90       	pop	r0
    317a:	0b be       	out	0x3b, r0	; 59
    317c:	0f 90       	pop	r0
    317e:	0f be       	out	0x3f, r0	; 63
    3180:	0f 90       	pop	r0
    3182:	1f 90       	pop	r1
    3184:	18 95       	reti

00003186 <tc_enable>:
    3186:	1f 93       	push	r17
    3188:	cf 93       	push	r28
    318a:	df 93       	push	r29
    318c:	1f 92       	push	r1
    318e:	1f 92       	push	r1
    3190:	cd b7       	in	r28, 0x3d	; 61
    3192:	de b7       	in	r29, 0x3e	; 62
    3194:	2f b7       	in	r18, 0x3f	; 63
    3196:	2a 83       	std	Y+2, r18	; 0x02
    3198:	f8 94       	cli
    319a:	1a 81       	ldd	r17, Y+2	; 0x02
    319c:	81 15       	cp	r24, r1
    319e:	28 e0       	ldi	r18, 0x08	; 8
    31a0:	92 07       	cpc	r25, r18
    31a2:	99 f0       	breq	.+38     	; 0x31ca <tc_enable+0x44>
    31a4:	80 34       	cpi	r24, 0x40	; 64
    31a6:	28 e0       	ldi	r18, 0x08	; 8
    31a8:	92 07       	cpc	r25, r18
    31aa:	09 f4       	brne	.+2      	; 0x31ae <tc_enable+0x28>
    31ac:	38 c0       	rjmp	.+112    	; 0x321e <tc_enable+0x98>
    31ae:	81 15       	cp	r24, r1
    31b0:	29 e0       	ldi	r18, 0x09	; 9
    31b2:	92 07       	cpc	r25, r18
    31b4:	69 f1       	breq	.+90     	; 0x3210 <tc_enable+0x8a>
    31b6:	81 15       	cp	r24, r1
    31b8:	9a 40       	sbci	r25, 0x0A	; 10
    31ba:	19 f1       	breq	.+70     	; 0x3202 <tc_enable+0x7c>
    31bc:	1f bf       	out	0x3f, r17	; 63
    31be:	0f 90       	pop	r0
    31c0:	0f 90       	pop	r0
    31c2:	df 91       	pop	r29
    31c4:	cf 91       	pop	r28
    31c6:	1f 91       	pop	r17
    31c8:	08 95       	ret
    31ca:	61 e0       	ldi	r22, 0x01	; 1
    31cc:	83 e0       	ldi	r24, 0x03	; 3
    31ce:	e7 db       	rcall	.-2098   	; 0x299e <sysclk_enable_module>
    31d0:	64 e0       	ldi	r22, 0x04	; 4
    31d2:	83 e0       	ldi	r24, 0x03	; 3
    31d4:	e4 db       	rcall	.-2104   	; 0x299e <sysclk_enable_module>
    31d6:	80 91 67 24 	lds	r24, 0x2467	; 0x802467 <sleepmgr_locks+0x1>
    31da:	8f 3f       	cpi	r24, 0xFF	; 255
    31dc:	89 f0       	breq	.+34     	; 0x3200 <tc_enable+0x7a>
    31de:	8f b7       	in	r24, 0x3f	; 63
    31e0:	89 83       	std	Y+1, r24	; 0x01
    31e2:	f8 94       	cli
    31e4:	99 81       	ldd	r25, Y+1	; 0x01
    31e6:	80 91 67 24 	lds	r24, 0x2467	; 0x802467 <sleepmgr_locks+0x1>
    31ea:	8f 5f       	subi	r24, 0xFF	; 255
    31ec:	80 93 67 24 	sts	0x2467, r24	; 0x802467 <sleepmgr_locks+0x1>
    31f0:	9f bf       	out	0x3f, r25	; 63
    31f2:	1f bf       	out	0x3f, r17	; 63
    31f4:	0f 90       	pop	r0
    31f6:	0f 90       	pop	r0
    31f8:	df 91       	pop	r29
    31fa:	cf 91       	pop	r28
    31fc:	1f 91       	pop	r17
    31fe:	08 95       	ret
    3200:	ff cf       	rjmp	.-2      	; 0x3200 <tc_enable+0x7a>
    3202:	61 e0       	ldi	r22, 0x01	; 1
    3204:	85 e0       	ldi	r24, 0x05	; 5
    3206:	cb db       	rcall	.-2154   	; 0x299e <sysclk_enable_module>
    3208:	64 e0       	ldi	r22, 0x04	; 4
    320a:	85 e0       	ldi	r24, 0x05	; 5
    320c:	c8 db       	rcall	.-2160   	; 0x299e <sysclk_enable_module>
    320e:	e3 cf       	rjmp	.-58     	; 0x31d6 <tc_enable+0x50>
    3210:	61 e0       	ldi	r22, 0x01	; 1
    3212:	84 e0       	ldi	r24, 0x04	; 4
    3214:	c4 db       	rcall	.-2168   	; 0x299e <sysclk_enable_module>
    3216:	64 e0       	ldi	r22, 0x04	; 4
    3218:	84 e0       	ldi	r24, 0x04	; 4
    321a:	c1 db       	rcall	.-2174   	; 0x299e <sysclk_enable_module>
    321c:	dc cf       	rjmp	.-72     	; 0x31d6 <tc_enable+0x50>
    321e:	62 e0       	ldi	r22, 0x02	; 2
    3220:	d5 cf       	rjmp	.-86     	; 0x31cc <tc_enable+0x46>

00003222 <tc_set_overflow_interrupt_callback>:

void tc_set_overflow_interrupt_callback(volatile void *tc,
		tc_callback_t callback)
{
#ifdef TCC0
	if ((uintptr_t) tc == (uintptr_t) & TCC0) {
    3222:	81 15       	cp	r24, r1
    3224:	28 e0       	ldi	r18, 0x08	; 8
    3226:	92 07       	cpc	r25, r18
    3228:	89 f0       	breq	.+34     	; 0x324c <tc_set_overflow_interrupt_callback+0x2a>
		tc_tcc0_ovf_callback = callback;
	} else
#endif
#ifdef TCC1
	if ((uintptr_t) tc == (uintptr_t) & TCC1) {
    322a:	80 34       	cpi	r24, 0x40	; 64
    322c:	28 e0       	ldi	r18, 0x08	; 8
    322e:	92 07       	cpc	r25, r18
    3230:	91 f0       	breq	.+36     	; 0x3256 <tc_set_overflow_interrupt_callback+0x34>
		tc_tcc1_ovf_callback = callback;
	} else
#endif
#ifdef TCD0
	if ((uintptr_t) tc == (uintptr_t) & TCD0) {
    3232:	81 15       	cp	r24, r1
    3234:	29 e0       	ldi	r18, 0x09	; 9
    3236:	92 07       	cpc	r25, r18
    3238:	99 f0       	breq	.+38     	; 0x3260 <tc_set_overflow_interrupt_callback+0x3e>
	if ((uintptr_t) tc == (uintptr_t) & TCD1) {
		tc_tcd1_ovf_callback = callback;
	} else
#endif
#ifdef TCE0
	if ((uintptr_t) tc == (uintptr_t) & TCE0) {
    323a:	81 15       	cp	r24, r1
    323c:	9a 40       	sbci	r25, 0x0A	; 10
    323e:	09 f0       	breq	.+2      	; 0x3242 <tc_set_overflow_interrupt_callback+0x20>
    3240:	08 95       	ret
		tc_tce0_ovf_callback = callback;
    3242:	60 93 40 22 	sts	0x2240, r22	; 0x802240 <tc_tce0_ovf_callback>
    3246:	70 93 41 22 	sts	0x2241, r23	; 0x802241 <tc_tce0_ovf_callback+0x1>
    324a:	08 95       	ret
void tc_set_overflow_interrupt_callback(volatile void *tc,
		tc_callback_t callback)
{
#ifdef TCC0
	if ((uintptr_t) tc == (uintptr_t) & TCC0) {
		tc_tcc0_ovf_callback = callback;
    324c:	60 93 60 22 	sts	0x2260, r22	; 0x802260 <tc_tcc0_ovf_callback>
    3250:	70 93 61 22 	sts	0x2261, r23	; 0x802261 <tc_tcc0_ovf_callback+0x1>
    3254:	08 95       	ret
	} else
#endif
#ifdef TCC1
	if ((uintptr_t) tc == (uintptr_t) & TCC1) {
		tc_tcc1_ovf_callback = callback;
    3256:	60 93 54 22 	sts	0x2254, r22	; 0x802254 <tc_tcc1_ovf_callback>
    325a:	70 93 55 22 	sts	0x2255, r23	; 0x802255 <tc_tcc1_ovf_callback+0x1>
    325e:	08 95       	ret
	} else
#endif
#ifdef TCD0
	if ((uintptr_t) tc == (uintptr_t) & TCD0) {
		tc_tcd0_ovf_callback = callback;
    3260:	60 93 4c 22 	sts	0x224C, r22	; 0x80224c <tc_tcd0_ovf_callback>
    3264:	70 93 4d 22 	sts	0x224D, r23	; 0x80224d <tc_tcd0_ovf_callback+0x1>
    3268:	08 95       	ret

0000326a <ccp_write_io>:

	PUBLIC_FUNCTION(ccp_write_io)

#if defined(__GNUC__)

	out     RAMPZ, r1               // Reset bits 23:16 of Z
    326a:	1b be       	out	0x3b, r1	; 59
	movw    r30, r24                // Load addr into Z
    326c:	fc 01       	movw	r30, r24
	ldi     r18, CCP_IOREG          // Load magic CCP value
    326e:	28 ed       	ldi	r18, 0xD8	; 216
	out     CCP, r18                // Start CCP handshake
    3270:	24 bf       	out	0x34, r18	; 52
	st      Z, r22                  // Write value to I/O register
    3272:	60 83       	st	Z, r22
	ret                             // Return to caller
    3274:	08 95       	ret

00003276 <__subsf3>:
    3276:	50 58       	subi	r21, 0x80	; 128

00003278 <__addsf3>:
    3278:	bb 27       	eor	r27, r27
    327a:	aa 27       	eor	r26, r26
    327c:	0e d0       	rcall	.+28     	; 0x329a <__addsf3x>
    327e:	70 c1       	rjmp	.+736    	; 0x3560 <__fp_round>
    3280:	61 d1       	rcall	.+706    	; 0x3544 <__fp_pscA>
    3282:	30 f0       	brcs	.+12     	; 0x3290 <__addsf3+0x18>
    3284:	66 d1       	rcall	.+716    	; 0x3552 <__fp_pscB>
    3286:	20 f0       	brcs	.+8      	; 0x3290 <__addsf3+0x18>
    3288:	31 f4       	brne	.+12     	; 0x3296 <__addsf3+0x1e>
    328a:	9f 3f       	cpi	r25, 0xFF	; 255
    328c:	11 f4       	brne	.+4      	; 0x3292 <__addsf3+0x1a>
    328e:	1e f4       	brtc	.+6      	; 0x3296 <__addsf3+0x1e>
    3290:	56 c1       	rjmp	.+684    	; 0x353e <__fp_nan>
    3292:	0e f4       	brtc	.+2      	; 0x3296 <__addsf3+0x1e>
    3294:	e0 95       	com	r30
    3296:	e7 fb       	bst	r30, 7
    3298:	4c c1       	rjmp	.+664    	; 0x3532 <__fp_inf>

0000329a <__addsf3x>:
    329a:	e9 2f       	mov	r30, r25
    329c:	72 d1       	rcall	.+740    	; 0x3582 <__fp_split3>
    329e:	80 f3       	brcs	.-32     	; 0x3280 <__addsf3+0x8>
    32a0:	ba 17       	cp	r27, r26
    32a2:	62 07       	cpc	r22, r18
    32a4:	73 07       	cpc	r23, r19
    32a6:	84 07       	cpc	r24, r20
    32a8:	95 07       	cpc	r25, r21
    32aa:	18 f0       	brcs	.+6      	; 0x32b2 <__addsf3x+0x18>
    32ac:	71 f4       	brne	.+28     	; 0x32ca <__addsf3x+0x30>
    32ae:	9e f5       	brtc	.+102    	; 0x3316 <__addsf3x+0x7c>
    32b0:	8a c1       	rjmp	.+788    	; 0x35c6 <__fp_zero>
    32b2:	0e f4       	brtc	.+2      	; 0x32b6 <__addsf3x+0x1c>
    32b4:	e0 95       	com	r30
    32b6:	0b 2e       	mov	r0, r27
    32b8:	ba 2f       	mov	r27, r26
    32ba:	a0 2d       	mov	r26, r0
    32bc:	0b 01       	movw	r0, r22
    32be:	b9 01       	movw	r22, r18
    32c0:	90 01       	movw	r18, r0
    32c2:	0c 01       	movw	r0, r24
    32c4:	ca 01       	movw	r24, r20
    32c6:	a0 01       	movw	r20, r0
    32c8:	11 24       	eor	r1, r1
    32ca:	ff 27       	eor	r31, r31
    32cc:	59 1b       	sub	r21, r25
    32ce:	99 f0       	breq	.+38     	; 0x32f6 <__addsf3x+0x5c>
    32d0:	59 3f       	cpi	r21, 0xF9	; 249
    32d2:	50 f4       	brcc	.+20     	; 0x32e8 <__addsf3x+0x4e>
    32d4:	50 3e       	cpi	r21, 0xE0	; 224
    32d6:	68 f1       	brcs	.+90     	; 0x3332 <__addsf3x+0x98>
    32d8:	1a 16       	cp	r1, r26
    32da:	f0 40       	sbci	r31, 0x00	; 0
    32dc:	a2 2f       	mov	r26, r18
    32de:	23 2f       	mov	r18, r19
    32e0:	34 2f       	mov	r19, r20
    32e2:	44 27       	eor	r20, r20
    32e4:	58 5f       	subi	r21, 0xF8	; 248
    32e6:	f3 cf       	rjmp	.-26     	; 0x32ce <__addsf3x+0x34>
    32e8:	46 95       	lsr	r20
    32ea:	37 95       	ror	r19
    32ec:	27 95       	ror	r18
    32ee:	a7 95       	ror	r26
    32f0:	f0 40       	sbci	r31, 0x00	; 0
    32f2:	53 95       	inc	r21
    32f4:	c9 f7       	brne	.-14     	; 0x32e8 <__addsf3x+0x4e>
    32f6:	7e f4       	brtc	.+30     	; 0x3316 <__addsf3x+0x7c>
    32f8:	1f 16       	cp	r1, r31
    32fa:	ba 0b       	sbc	r27, r26
    32fc:	62 0b       	sbc	r22, r18
    32fe:	73 0b       	sbc	r23, r19
    3300:	84 0b       	sbc	r24, r20
    3302:	ba f0       	brmi	.+46     	; 0x3332 <__addsf3x+0x98>
    3304:	91 50       	subi	r25, 0x01	; 1
    3306:	a1 f0       	breq	.+40     	; 0x3330 <__addsf3x+0x96>
    3308:	ff 0f       	add	r31, r31
    330a:	bb 1f       	adc	r27, r27
    330c:	66 1f       	adc	r22, r22
    330e:	77 1f       	adc	r23, r23
    3310:	88 1f       	adc	r24, r24
    3312:	c2 f7       	brpl	.-16     	; 0x3304 <__addsf3x+0x6a>
    3314:	0e c0       	rjmp	.+28     	; 0x3332 <__addsf3x+0x98>
    3316:	ba 0f       	add	r27, r26
    3318:	62 1f       	adc	r22, r18
    331a:	73 1f       	adc	r23, r19
    331c:	84 1f       	adc	r24, r20
    331e:	48 f4       	brcc	.+18     	; 0x3332 <__addsf3x+0x98>
    3320:	87 95       	ror	r24
    3322:	77 95       	ror	r23
    3324:	67 95       	ror	r22
    3326:	b7 95       	ror	r27
    3328:	f7 95       	ror	r31
    332a:	9e 3f       	cpi	r25, 0xFE	; 254
    332c:	08 f0       	brcs	.+2      	; 0x3330 <__addsf3x+0x96>
    332e:	b3 cf       	rjmp	.-154    	; 0x3296 <__addsf3+0x1e>
    3330:	93 95       	inc	r25
    3332:	88 0f       	add	r24, r24
    3334:	08 f0       	brcs	.+2      	; 0x3338 <__addsf3x+0x9e>
    3336:	99 27       	eor	r25, r25
    3338:	ee 0f       	add	r30, r30
    333a:	97 95       	ror	r25
    333c:	87 95       	ror	r24
    333e:	08 95       	ret

00003340 <__cmpsf2>:
    3340:	d4 d0       	rcall	.+424    	; 0x34ea <__fp_cmp>
    3342:	08 f4       	brcc	.+2      	; 0x3346 <__cmpsf2+0x6>
    3344:	81 e0       	ldi	r24, 0x01	; 1
    3346:	08 95       	ret

00003348 <__divsf3>:
    3348:	0c d0       	rcall	.+24     	; 0x3362 <__divsf3x>
    334a:	0a c1       	rjmp	.+532    	; 0x3560 <__fp_round>
    334c:	02 d1       	rcall	.+516    	; 0x3552 <__fp_pscB>
    334e:	40 f0       	brcs	.+16     	; 0x3360 <__divsf3+0x18>
    3350:	f9 d0       	rcall	.+498    	; 0x3544 <__fp_pscA>
    3352:	30 f0       	brcs	.+12     	; 0x3360 <__divsf3+0x18>
    3354:	21 f4       	brne	.+8      	; 0x335e <__divsf3+0x16>
    3356:	5f 3f       	cpi	r21, 0xFF	; 255
    3358:	19 f0       	breq	.+6      	; 0x3360 <__divsf3+0x18>
    335a:	eb c0       	rjmp	.+470    	; 0x3532 <__fp_inf>
    335c:	51 11       	cpse	r21, r1
    335e:	34 c1       	rjmp	.+616    	; 0x35c8 <__fp_szero>
    3360:	ee c0       	rjmp	.+476    	; 0x353e <__fp_nan>

00003362 <__divsf3x>:
    3362:	0f d1       	rcall	.+542    	; 0x3582 <__fp_split3>
    3364:	98 f3       	brcs	.-26     	; 0x334c <__divsf3+0x4>

00003366 <__divsf3_pse>:
    3366:	99 23       	and	r25, r25
    3368:	c9 f3       	breq	.-14     	; 0x335c <__divsf3+0x14>
    336a:	55 23       	and	r21, r21
    336c:	b1 f3       	breq	.-20     	; 0x335a <__divsf3+0x12>
    336e:	95 1b       	sub	r25, r21
    3370:	55 0b       	sbc	r21, r21
    3372:	bb 27       	eor	r27, r27
    3374:	aa 27       	eor	r26, r26
    3376:	62 17       	cp	r22, r18
    3378:	73 07       	cpc	r23, r19
    337a:	84 07       	cpc	r24, r20
    337c:	38 f0       	brcs	.+14     	; 0x338c <__divsf3_pse+0x26>
    337e:	9f 5f       	subi	r25, 0xFF	; 255
    3380:	5f 4f       	sbci	r21, 0xFF	; 255
    3382:	22 0f       	add	r18, r18
    3384:	33 1f       	adc	r19, r19
    3386:	44 1f       	adc	r20, r20
    3388:	aa 1f       	adc	r26, r26
    338a:	a9 f3       	breq	.-22     	; 0x3376 <__divsf3_pse+0x10>
    338c:	33 d0       	rcall	.+102    	; 0x33f4 <__divsf3_pse+0x8e>
    338e:	0e 2e       	mov	r0, r30
    3390:	3a f0       	brmi	.+14     	; 0x33a0 <__divsf3_pse+0x3a>
    3392:	e0 e8       	ldi	r30, 0x80	; 128
    3394:	30 d0       	rcall	.+96     	; 0x33f6 <__divsf3_pse+0x90>
    3396:	91 50       	subi	r25, 0x01	; 1
    3398:	50 40       	sbci	r21, 0x00	; 0
    339a:	e6 95       	lsr	r30
    339c:	00 1c       	adc	r0, r0
    339e:	ca f7       	brpl	.-14     	; 0x3392 <__divsf3_pse+0x2c>
    33a0:	29 d0       	rcall	.+82     	; 0x33f4 <__divsf3_pse+0x8e>
    33a2:	fe 2f       	mov	r31, r30
    33a4:	27 d0       	rcall	.+78     	; 0x33f4 <__divsf3_pse+0x8e>
    33a6:	66 0f       	add	r22, r22
    33a8:	77 1f       	adc	r23, r23
    33aa:	88 1f       	adc	r24, r24
    33ac:	bb 1f       	adc	r27, r27
    33ae:	26 17       	cp	r18, r22
    33b0:	37 07       	cpc	r19, r23
    33b2:	48 07       	cpc	r20, r24
    33b4:	ab 07       	cpc	r26, r27
    33b6:	b0 e8       	ldi	r27, 0x80	; 128
    33b8:	09 f0       	breq	.+2      	; 0x33bc <__divsf3_pse+0x56>
    33ba:	bb 0b       	sbc	r27, r27
    33bc:	80 2d       	mov	r24, r0
    33be:	bf 01       	movw	r22, r30
    33c0:	ff 27       	eor	r31, r31
    33c2:	93 58       	subi	r25, 0x83	; 131
    33c4:	5f 4f       	sbci	r21, 0xFF	; 255
    33c6:	2a f0       	brmi	.+10     	; 0x33d2 <__divsf3_pse+0x6c>
    33c8:	9e 3f       	cpi	r25, 0xFE	; 254
    33ca:	51 05       	cpc	r21, r1
    33cc:	68 f0       	brcs	.+26     	; 0x33e8 <__divsf3_pse+0x82>
    33ce:	b1 c0       	rjmp	.+354    	; 0x3532 <__fp_inf>
    33d0:	fb c0       	rjmp	.+502    	; 0x35c8 <__fp_szero>
    33d2:	5f 3f       	cpi	r21, 0xFF	; 255
    33d4:	ec f3       	brlt	.-6      	; 0x33d0 <__divsf3_pse+0x6a>
    33d6:	98 3e       	cpi	r25, 0xE8	; 232
    33d8:	dc f3       	brlt	.-10     	; 0x33d0 <__divsf3_pse+0x6a>
    33da:	86 95       	lsr	r24
    33dc:	77 95       	ror	r23
    33de:	67 95       	ror	r22
    33e0:	b7 95       	ror	r27
    33e2:	f7 95       	ror	r31
    33e4:	9f 5f       	subi	r25, 0xFF	; 255
    33e6:	c9 f7       	brne	.-14     	; 0x33da <__divsf3_pse+0x74>
    33e8:	88 0f       	add	r24, r24
    33ea:	91 1d       	adc	r25, r1
    33ec:	96 95       	lsr	r25
    33ee:	87 95       	ror	r24
    33f0:	97 f9       	bld	r25, 7
    33f2:	08 95       	ret
    33f4:	e1 e0       	ldi	r30, 0x01	; 1
    33f6:	66 0f       	add	r22, r22
    33f8:	77 1f       	adc	r23, r23
    33fa:	88 1f       	adc	r24, r24
    33fc:	bb 1f       	adc	r27, r27
    33fe:	62 17       	cp	r22, r18
    3400:	73 07       	cpc	r23, r19
    3402:	84 07       	cpc	r24, r20
    3404:	ba 07       	cpc	r27, r26
    3406:	20 f0       	brcs	.+8      	; 0x3410 <__divsf3_pse+0xaa>
    3408:	62 1b       	sub	r22, r18
    340a:	73 0b       	sbc	r23, r19
    340c:	84 0b       	sbc	r24, r20
    340e:	ba 0b       	sbc	r27, r26
    3410:	ee 1f       	adc	r30, r30
    3412:	88 f7       	brcc	.-30     	; 0x33f6 <__divsf3_pse+0x90>
    3414:	e0 95       	com	r30
    3416:	08 95       	ret

00003418 <__fixunssfsi>:
    3418:	bc d0       	rcall	.+376    	; 0x3592 <__fp_splitA>
    341a:	88 f0       	brcs	.+34     	; 0x343e <__fixunssfsi+0x26>
    341c:	9f 57       	subi	r25, 0x7F	; 127
    341e:	90 f0       	brcs	.+36     	; 0x3444 <__fixunssfsi+0x2c>
    3420:	b9 2f       	mov	r27, r25
    3422:	99 27       	eor	r25, r25
    3424:	b7 51       	subi	r27, 0x17	; 23
    3426:	a0 f0       	brcs	.+40     	; 0x3450 <__fixunssfsi+0x38>
    3428:	d1 f0       	breq	.+52     	; 0x345e <__fixunssfsi+0x46>
    342a:	66 0f       	add	r22, r22
    342c:	77 1f       	adc	r23, r23
    342e:	88 1f       	adc	r24, r24
    3430:	99 1f       	adc	r25, r25
    3432:	1a f0       	brmi	.+6      	; 0x343a <__fixunssfsi+0x22>
    3434:	ba 95       	dec	r27
    3436:	c9 f7       	brne	.-14     	; 0x342a <__fixunssfsi+0x12>
    3438:	12 c0       	rjmp	.+36     	; 0x345e <__fixunssfsi+0x46>
    343a:	b1 30       	cpi	r27, 0x01	; 1
    343c:	81 f0       	breq	.+32     	; 0x345e <__fixunssfsi+0x46>
    343e:	c3 d0       	rcall	.+390    	; 0x35c6 <__fp_zero>
    3440:	b1 e0       	ldi	r27, 0x01	; 1
    3442:	08 95       	ret
    3444:	c0 c0       	rjmp	.+384    	; 0x35c6 <__fp_zero>
    3446:	67 2f       	mov	r22, r23
    3448:	78 2f       	mov	r23, r24
    344a:	88 27       	eor	r24, r24
    344c:	b8 5f       	subi	r27, 0xF8	; 248
    344e:	39 f0       	breq	.+14     	; 0x345e <__fixunssfsi+0x46>
    3450:	b9 3f       	cpi	r27, 0xF9	; 249
    3452:	cc f3       	brlt	.-14     	; 0x3446 <__fixunssfsi+0x2e>
    3454:	86 95       	lsr	r24
    3456:	77 95       	ror	r23
    3458:	67 95       	ror	r22
    345a:	b3 95       	inc	r27
    345c:	d9 f7       	brne	.-10     	; 0x3454 <__fixunssfsi+0x3c>
    345e:	3e f4       	brtc	.+14     	; 0x346e <__fixunssfsi+0x56>
    3460:	90 95       	com	r25
    3462:	80 95       	com	r24
    3464:	70 95       	com	r23
    3466:	61 95       	neg	r22
    3468:	7f 4f       	sbci	r23, 0xFF	; 255
    346a:	8f 4f       	sbci	r24, 0xFF	; 255
    346c:	9f 4f       	sbci	r25, 0xFF	; 255
    346e:	08 95       	ret

00003470 <__floatunsisf>:
    3470:	e8 94       	clt
    3472:	09 c0       	rjmp	.+18     	; 0x3486 <__floatsisf+0x12>

00003474 <__floatsisf>:
    3474:	97 fb       	bst	r25, 7
    3476:	3e f4       	brtc	.+14     	; 0x3486 <__floatsisf+0x12>
    3478:	90 95       	com	r25
    347a:	80 95       	com	r24
    347c:	70 95       	com	r23
    347e:	61 95       	neg	r22
    3480:	7f 4f       	sbci	r23, 0xFF	; 255
    3482:	8f 4f       	sbci	r24, 0xFF	; 255
    3484:	9f 4f       	sbci	r25, 0xFF	; 255
    3486:	99 23       	and	r25, r25
    3488:	a9 f0       	breq	.+42     	; 0x34b4 <__floatsisf+0x40>
    348a:	f9 2f       	mov	r31, r25
    348c:	96 e9       	ldi	r25, 0x96	; 150
    348e:	bb 27       	eor	r27, r27
    3490:	93 95       	inc	r25
    3492:	f6 95       	lsr	r31
    3494:	87 95       	ror	r24
    3496:	77 95       	ror	r23
    3498:	67 95       	ror	r22
    349a:	b7 95       	ror	r27
    349c:	f1 11       	cpse	r31, r1
    349e:	f8 cf       	rjmp	.-16     	; 0x3490 <__floatsisf+0x1c>
    34a0:	fa f4       	brpl	.+62     	; 0x34e0 <__floatsisf+0x6c>
    34a2:	bb 0f       	add	r27, r27
    34a4:	11 f4       	brne	.+4      	; 0x34aa <__floatsisf+0x36>
    34a6:	60 ff       	sbrs	r22, 0
    34a8:	1b c0       	rjmp	.+54     	; 0x34e0 <__floatsisf+0x6c>
    34aa:	6f 5f       	subi	r22, 0xFF	; 255
    34ac:	7f 4f       	sbci	r23, 0xFF	; 255
    34ae:	8f 4f       	sbci	r24, 0xFF	; 255
    34b0:	9f 4f       	sbci	r25, 0xFF	; 255
    34b2:	16 c0       	rjmp	.+44     	; 0x34e0 <__floatsisf+0x6c>
    34b4:	88 23       	and	r24, r24
    34b6:	11 f0       	breq	.+4      	; 0x34bc <__floatsisf+0x48>
    34b8:	96 e9       	ldi	r25, 0x96	; 150
    34ba:	11 c0       	rjmp	.+34     	; 0x34de <__floatsisf+0x6a>
    34bc:	77 23       	and	r23, r23
    34be:	21 f0       	breq	.+8      	; 0x34c8 <__floatsisf+0x54>
    34c0:	9e e8       	ldi	r25, 0x8E	; 142
    34c2:	87 2f       	mov	r24, r23
    34c4:	76 2f       	mov	r23, r22
    34c6:	05 c0       	rjmp	.+10     	; 0x34d2 <__floatsisf+0x5e>
    34c8:	66 23       	and	r22, r22
    34ca:	71 f0       	breq	.+28     	; 0x34e8 <__floatsisf+0x74>
    34cc:	96 e8       	ldi	r25, 0x86	; 134
    34ce:	86 2f       	mov	r24, r22
    34d0:	70 e0       	ldi	r23, 0x00	; 0
    34d2:	60 e0       	ldi	r22, 0x00	; 0
    34d4:	2a f0       	brmi	.+10     	; 0x34e0 <__floatsisf+0x6c>
    34d6:	9a 95       	dec	r25
    34d8:	66 0f       	add	r22, r22
    34da:	77 1f       	adc	r23, r23
    34dc:	88 1f       	adc	r24, r24
    34de:	da f7       	brpl	.-10     	; 0x34d6 <__floatsisf+0x62>
    34e0:	88 0f       	add	r24, r24
    34e2:	96 95       	lsr	r25
    34e4:	87 95       	ror	r24
    34e6:	97 f9       	bld	r25, 7
    34e8:	08 95       	ret

000034ea <__fp_cmp>:
    34ea:	99 0f       	add	r25, r25
    34ec:	00 08       	sbc	r0, r0
    34ee:	55 0f       	add	r21, r21
    34f0:	aa 0b       	sbc	r26, r26
    34f2:	e0 e8       	ldi	r30, 0x80	; 128
    34f4:	fe ef       	ldi	r31, 0xFE	; 254
    34f6:	16 16       	cp	r1, r22
    34f8:	17 06       	cpc	r1, r23
    34fa:	e8 07       	cpc	r30, r24
    34fc:	f9 07       	cpc	r31, r25
    34fe:	c0 f0       	brcs	.+48     	; 0x3530 <__fp_cmp+0x46>
    3500:	12 16       	cp	r1, r18
    3502:	13 06       	cpc	r1, r19
    3504:	e4 07       	cpc	r30, r20
    3506:	f5 07       	cpc	r31, r21
    3508:	98 f0       	brcs	.+38     	; 0x3530 <__fp_cmp+0x46>
    350a:	62 1b       	sub	r22, r18
    350c:	73 0b       	sbc	r23, r19
    350e:	84 0b       	sbc	r24, r20
    3510:	95 0b       	sbc	r25, r21
    3512:	39 f4       	brne	.+14     	; 0x3522 <__fp_cmp+0x38>
    3514:	0a 26       	eor	r0, r26
    3516:	61 f0       	breq	.+24     	; 0x3530 <__fp_cmp+0x46>
    3518:	23 2b       	or	r18, r19
    351a:	24 2b       	or	r18, r20
    351c:	25 2b       	or	r18, r21
    351e:	21 f4       	brne	.+8      	; 0x3528 <__fp_cmp+0x3e>
    3520:	08 95       	ret
    3522:	0a 26       	eor	r0, r26
    3524:	09 f4       	brne	.+2      	; 0x3528 <__fp_cmp+0x3e>
    3526:	a1 40       	sbci	r26, 0x01	; 1
    3528:	a6 95       	lsr	r26
    352a:	8f ef       	ldi	r24, 0xFF	; 255
    352c:	81 1d       	adc	r24, r1
    352e:	81 1d       	adc	r24, r1
    3530:	08 95       	ret

00003532 <__fp_inf>:
    3532:	97 f9       	bld	r25, 7
    3534:	9f 67       	ori	r25, 0x7F	; 127
    3536:	80 e8       	ldi	r24, 0x80	; 128
    3538:	70 e0       	ldi	r23, 0x00	; 0
    353a:	60 e0       	ldi	r22, 0x00	; 0
    353c:	08 95       	ret

0000353e <__fp_nan>:
    353e:	9f ef       	ldi	r25, 0xFF	; 255
    3540:	80 ec       	ldi	r24, 0xC0	; 192
    3542:	08 95       	ret

00003544 <__fp_pscA>:
    3544:	00 24       	eor	r0, r0
    3546:	0a 94       	dec	r0
    3548:	16 16       	cp	r1, r22
    354a:	17 06       	cpc	r1, r23
    354c:	18 06       	cpc	r1, r24
    354e:	09 06       	cpc	r0, r25
    3550:	08 95       	ret

00003552 <__fp_pscB>:
    3552:	00 24       	eor	r0, r0
    3554:	0a 94       	dec	r0
    3556:	12 16       	cp	r1, r18
    3558:	13 06       	cpc	r1, r19
    355a:	14 06       	cpc	r1, r20
    355c:	05 06       	cpc	r0, r21
    355e:	08 95       	ret

00003560 <__fp_round>:
    3560:	09 2e       	mov	r0, r25
    3562:	03 94       	inc	r0
    3564:	00 0c       	add	r0, r0
    3566:	11 f4       	brne	.+4      	; 0x356c <__fp_round+0xc>
    3568:	88 23       	and	r24, r24
    356a:	52 f0       	brmi	.+20     	; 0x3580 <__fp_round+0x20>
    356c:	bb 0f       	add	r27, r27
    356e:	40 f4       	brcc	.+16     	; 0x3580 <__fp_round+0x20>
    3570:	bf 2b       	or	r27, r31
    3572:	11 f4       	brne	.+4      	; 0x3578 <__fp_round+0x18>
    3574:	60 ff       	sbrs	r22, 0
    3576:	04 c0       	rjmp	.+8      	; 0x3580 <__fp_round+0x20>
    3578:	6f 5f       	subi	r22, 0xFF	; 255
    357a:	7f 4f       	sbci	r23, 0xFF	; 255
    357c:	8f 4f       	sbci	r24, 0xFF	; 255
    357e:	9f 4f       	sbci	r25, 0xFF	; 255
    3580:	08 95       	ret

00003582 <__fp_split3>:
    3582:	57 fd       	sbrc	r21, 7
    3584:	90 58       	subi	r25, 0x80	; 128
    3586:	44 0f       	add	r20, r20
    3588:	55 1f       	adc	r21, r21
    358a:	59 f0       	breq	.+22     	; 0x35a2 <__fp_splitA+0x10>
    358c:	5f 3f       	cpi	r21, 0xFF	; 255
    358e:	71 f0       	breq	.+28     	; 0x35ac <__fp_splitA+0x1a>
    3590:	47 95       	ror	r20

00003592 <__fp_splitA>:
    3592:	88 0f       	add	r24, r24
    3594:	97 fb       	bst	r25, 7
    3596:	99 1f       	adc	r25, r25
    3598:	61 f0       	breq	.+24     	; 0x35b2 <__fp_splitA+0x20>
    359a:	9f 3f       	cpi	r25, 0xFF	; 255
    359c:	79 f0       	breq	.+30     	; 0x35bc <__fp_splitA+0x2a>
    359e:	87 95       	ror	r24
    35a0:	08 95       	ret
    35a2:	12 16       	cp	r1, r18
    35a4:	13 06       	cpc	r1, r19
    35a6:	14 06       	cpc	r1, r20
    35a8:	55 1f       	adc	r21, r21
    35aa:	f2 cf       	rjmp	.-28     	; 0x3590 <__fp_split3+0xe>
    35ac:	46 95       	lsr	r20
    35ae:	f1 df       	rcall	.-30     	; 0x3592 <__fp_splitA>
    35b0:	08 c0       	rjmp	.+16     	; 0x35c2 <__fp_splitA+0x30>
    35b2:	16 16       	cp	r1, r22
    35b4:	17 06       	cpc	r1, r23
    35b6:	18 06       	cpc	r1, r24
    35b8:	99 1f       	adc	r25, r25
    35ba:	f1 cf       	rjmp	.-30     	; 0x359e <__fp_splitA+0xc>
    35bc:	86 95       	lsr	r24
    35be:	71 05       	cpc	r23, r1
    35c0:	61 05       	cpc	r22, r1
    35c2:	08 94       	sec
    35c4:	08 95       	ret

000035c6 <__fp_zero>:
    35c6:	e8 94       	clt

000035c8 <__fp_szero>:
    35c8:	bb 27       	eor	r27, r27
    35ca:	66 27       	eor	r22, r22
    35cc:	77 27       	eor	r23, r23
    35ce:	cb 01       	movw	r24, r22
    35d0:	97 f9       	bld	r25, 7
    35d2:	08 95       	ret

000035d4 <__gesf2>:
    35d4:	8a df       	rcall	.-236    	; 0x34ea <__fp_cmp>
    35d6:	08 f4       	brcc	.+2      	; 0x35da <__gesf2+0x6>
    35d8:	8f ef       	ldi	r24, 0xFF	; 255
    35da:	08 95       	ret

000035dc <__mulsf3>:
    35dc:	0b d0       	rcall	.+22     	; 0x35f4 <__mulsf3x>
    35de:	c0 cf       	rjmp	.-128    	; 0x3560 <__fp_round>
    35e0:	b1 df       	rcall	.-158    	; 0x3544 <__fp_pscA>
    35e2:	28 f0       	brcs	.+10     	; 0x35ee <__mulsf3+0x12>
    35e4:	b6 df       	rcall	.-148    	; 0x3552 <__fp_pscB>
    35e6:	18 f0       	brcs	.+6      	; 0x35ee <__mulsf3+0x12>
    35e8:	95 23       	and	r25, r21
    35ea:	09 f0       	breq	.+2      	; 0x35ee <__mulsf3+0x12>
    35ec:	a2 cf       	rjmp	.-188    	; 0x3532 <__fp_inf>
    35ee:	a7 cf       	rjmp	.-178    	; 0x353e <__fp_nan>
    35f0:	11 24       	eor	r1, r1
    35f2:	ea cf       	rjmp	.-44     	; 0x35c8 <__fp_szero>

000035f4 <__mulsf3x>:
    35f4:	c6 df       	rcall	.-116    	; 0x3582 <__fp_split3>
    35f6:	a0 f3       	brcs	.-24     	; 0x35e0 <__mulsf3+0x4>

000035f8 <__mulsf3_pse>:
    35f8:	95 9f       	mul	r25, r21
    35fa:	d1 f3       	breq	.-12     	; 0x35f0 <__mulsf3+0x14>
    35fc:	95 0f       	add	r25, r21
    35fe:	50 e0       	ldi	r21, 0x00	; 0
    3600:	55 1f       	adc	r21, r21
    3602:	62 9f       	mul	r22, r18
    3604:	f0 01       	movw	r30, r0
    3606:	72 9f       	mul	r23, r18
    3608:	bb 27       	eor	r27, r27
    360a:	f0 0d       	add	r31, r0
    360c:	b1 1d       	adc	r27, r1
    360e:	63 9f       	mul	r22, r19
    3610:	aa 27       	eor	r26, r26
    3612:	f0 0d       	add	r31, r0
    3614:	b1 1d       	adc	r27, r1
    3616:	aa 1f       	adc	r26, r26
    3618:	64 9f       	mul	r22, r20
    361a:	66 27       	eor	r22, r22
    361c:	b0 0d       	add	r27, r0
    361e:	a1 1d       	adc	r26, r1
    3620:	66 1f       	adc	r22, r22
    3622:	82 9f       	mul	r24, r18
    3624:	22 27       	eor	r18, r18
    3626:	b0 0d       	add	r27, r0
    3628:	a1 1d       	adc	r26, r1
    362a:	62 1f       	adc	r22, r18
    362c:	73 9f       	mul	r23, r19
    362e:	b0 0d       	add	r27, r0
    3630:	a1 1d       	adc	r26, r1
    3632:	62 1f       	adc	r22, r18
    3634:	83 9f       	mul	r24, r19
    3636:	a0 0d       	add	r26, r0
    3638:	61 1d       	adc	r22, r1
    363a:	22 1f       	adc	r18, r18
    363c:	74 9f       	mul	r23, r20
    363e:	33 27       	eor	r19, r19
    3640:	a0 0d       	add	r26, r0
    3642:	61 1d       	adc	r22, r1
    3644:	23 1f       	adc	r18, r19
    3646:	84 9f       	mul	r24, r20
    3648:	60 0d       	add	r22, r0
    364a:	21 1d       	adc	r18, r1
    364c:	82 2f       	mov	r24, r18
    364e:	76 2f       	mov	r23, r22
    3650:	6a 2f       	mov	r22, r26
    3652:	11 24       	eor	r1, r1
    3654:	9f 57       	subi	r25, 0x7F	; 127
    3656:	50 40       	sbci	r21, 0x00	; 0
    3658:	8a f0       	brmi	.+34     	; 0x367c <__mulsf3_pse+0x84>
    365a:	e1 f0       	breq	.+56     	; 0x3694 <__mulsf3_pse+0x9c>
    365c:	88 23       	and	r24, r24
    365e:	4a f0       	brmi	.+18     	; 0x3672 <__mulsf3_pse+0x7a>
    3660:	ee 0f       	add	r30, r30
    3662:	ff 1f       	adc	r31, r31
    3664:	bb 1f       	adc	r27, r27
    3666:	66 1f       	adc	r22, r22
    3668:	77 1f       	adc	r23, r23
    366a:	88 1f       	adc	r24, r24
    366c:	91 50       	subi	r25, 0x01	; 1
    366e:	50 40       	sbci	r21, 0x00	; 0
    3670:	a9 f7       	brne	.-22     	; 0x365c <__mulsf3_pse+0x64>
    3672:	9e 3f       	cpi	r25, 0xFE	; 254
    3674:	51 05       	cpc	r21, r1
    3676:	70 f0       	brcs	.+28     	; 0x3694 <__mulsf3_pse+0x9c>
    3678:	5c cf       	rjmp	.-328    	; 0x3532 <__fp_inf>
    367a:	a6 cf       	rjmp	.-180    	; 0x35c8 <__fp_szero>
    367c:	5f 3f       	cpi	r21, 0xFF	; 255
    367e:	ec f3       	brlt	.-6      	; 0x367a <__mulsf3_pse+0x82>
    3680:	98 3e       	cpi	r25, 0xE8	; 232
    3682:	dc f3       	brlt	.-10     	; 0x367a <__mulsf3_pse+0x82>
    3684:	86 95       	lsr	r24
    3686:	77 95       	ror	r23
    3688:	67 95       	ror	r22
    368a:	b7 95       	ror	r27
    368c:	f7 95       	ror	r31
    368e:	e7 95       	ror	r30
    3690:	9f 5f       	subi	r25, 0xFF	; 255
    3692:	c1 f7       	brne	.-16     	; 0x3684 <__mulsf3_pse+0x8c>
    3694:	fe 2b       	or	r31, r30
    3696:	88 0f       	add	r24, r24
    3698:	91 1d       	adc	r25, r1
    369a:	96 95       	lsr	r25
    369c:	87 95       	ror	r24
    369e:	97 f9       	bld	r25, 7
    36a0:	08 95       	ret

000036a2 <__udivmodsi4>:
    36a2:	a1 e2       	ldi	r26, 0x21	; 33
    36a4:	1a 2e       	mov	r1, r26
    36a6:	aa 1b       	sub	r26, r26
    36a8:	bb 1b       	sub	r27, r27
    36aa:	fd 01       	movw	r30, r26
    36ac:	0d c0       	rjmp	.+26     	; 0x36c8 <__udivmodsi4_ep>

000036ae <__udivmodsi4_loop>:
    36ae:	aa 1f       	adc	r26, r26
    36b0:	bb 1f       	adc	r27, r27
    36b2:	ee 1f       	adc	r30, r30
    36b4:	ff 1f       	adc	r31, r31
    36b6:	a2 17       	cp	r26, r18
    36b8:	b3 07       	cpc	r27, r19
    36ba:	e4 07       	cpc	r30, r20
    36bc:	f5 07       	cpc	r31, r21
    36be:	20 f0       	brcs	.+8      	; 0x36c8 <__udivmodsi4_ep>
    36c0:	a2 1b       	sub	r26, r18
    36c2:	b3 0b       	sbc	r27, r19
    36c4:	e4 0b       	sbc	r30, r20
    36c6:	f5 0b       	sbc	r31, r21

000036c8 <__udivmodsi4_ep>:
    36c8:	66 1f       	adc	r22, r22
    36ca:	77 1f       	adc	r23, r23
    36cc:	88 1f       	adc	r24, r24
    36ce:	99 1f       	adc	r25, r25
    36d0:	1a 94       	dec	r1
    36d2:	69 f7       	brne	.-38     	; 0x36ae <__udivmodsi4_loop>
    36d4:	60 95       	com	r22
    36d6:	70 95       	com	r23
    36d8:	80 95       	com	r24
    36da:	90 95       	com	r25
    36dc:	9b 01       	movw	r18, r22
    36de:	ac 01       	movw	r20, r24
    36e0:	bd 01       	movw	r22, r26
    36e2:	cf 01       	movw	r24, r30
    36e4:	08 95       	ret

000036e6 <calloc>:
    36e6:	0f 93       	push	r16
    36e8:	1f 93       	push	r17
    36ea:	cf 93       	push	r28
    36ec:	df 93       	push	r29
    36ee:	86 9f       	mul	r24, r22
    36f0:	80 01       	movw	r16, r0
    36f2:	87 9f       	mul	r24, r23
    36f4:	10 0d       	add	r17, r0
    36f6:	96 9f       	mul	r25, r22
    36f8:	10 0d       	add	r17, r0
    36fa:	11 24       	eor	r1, r1
    36fc:	c8 01       	movw	r24, r16
    36fe:	0d d0       	rcall	.+26     	; 0x371a <malloc>
    3700:	ec 01       	movw	r28, r24
    3702:	00 97       	sbiw	r24, 0x00	; 0
    3704:	21 f0       	breq	.+8      	; 0x370e <calloc+0x28>
    3706:	a8 01       	movw	r20, r16
    3708:	60 e0       	ldi	r22, 0x00	; 0
    370a:	70 e0       	ldi	r23, 0x00	; 0
    370c:	27 d1       	rcall	.+590    	; 0x395c <memset>
    370e:	ce 01       	movw	r24, r28
    3710:	df 91       	pop	r29
    3712:	cf 91       	pop	r28
    3714:	1f 91       	pop	r17
    3716:	0f 91       	pop	r16
    3718:	08 95       	ret

0000371a <malloc>:
    371a:	0f 93       	push	r16
    371c:	1f 93       	push	r17
    371e:	cf 93       	push	r28
    3720:	df 93       	push	r29
    3722:	82 30       	cpi	r24, 0x02	; 2
    3724:	91 05       	cpc	r25, r1
    3726:	10 f4       	brcc	.+4      	; 0x372c <malloc+0x12>
    3728:	82 e0       	ldi	r24, 0x02	; 2
    372a:	90 e0       	ldi	r25, 0x00	; 0
    372c:	e0 91 6e 24 	lds	r30, 0x246E	; 0x80246e <__flp>
    3730:	f0 91 6f 24 	lds	r31, 0x246F	; 0x80246f <__flp+0x1>
    3734:	20 e0       	ldi	r18, 0x00	; 0
    3736:	30 e0       	ldi	r19, 0x00	; 0
    3738:	a0 e0       	ldi	r26, 0x00	; 0
    373a:	b0 e0       	ldi	r27, 0x00	; 0
    373c:	30 97       	sbiw	r30, 0x00	; 0
    373e:	19 f1       	breq	.+70     	; 0x3786 <malloc+0x6c>
    3740:	40 81       	ld	r20, Z
    3742:	51 81       	ldd	r21, Z+1	; 0x01
    3744:	02 81       	ldd	r16, Z+2	; 0x02
    3746:	13 81       	ldd	r17, Z+3	; 0x03
    3748:	48 17       	cp	r20, r24
    374a:	59 07       	cpc	r21, r25
    374c:	c8 f0       	brcs	.+50     	; 0x3780 <malloc+0x66>
    374e:	84 17       	cp	r24, r20
    3750:	95 07       	cpc	r25, r21
    3752:	69 f4       	brne	.+26     	; 0x376e <malloc+0x54>
    3754:	10 97       	sbiw	r26, 0x00	; 0
    3756:	31 f0       	breq	.+12     	; 0x3764 <malloc+0x4a>
    3758:	12 96       	adiw	r26, 0x02	; 2
    375a:	0c 93       	st	X, r16
    375c:	12 97       	sbiw	r26, 0x02	; 2
    375e:	13 96       	adiw	r26, 0x03	; 3
    3760:	1c 93       	st	X, r17
    3762:	27 c0       	rjmp	.+78     	; 0x37b2 <malloc+0x98>
    3764:	00 93 6e 24 	sts	0x246E, r16	; 0x80246e <__flp>
    3768:	10 93 6f 24 	sts	0x246F, r17	; 0x80246f <__flp+0x1>
    376c:	22 c0       	rjmp	.+68     	; 0x37b2 <malloc+0x98>
    376e:	21 15       	cp	r18, r1
    3770:	31 05       	cpc	r19, r1
    3772:	19 f0       	breq	.+6      	; 0x377a <malloc+0x60>
    3774:	42 17       	cp	r20, r18
    3776:	53 07       	cpc	r21, r19
    3778:	18 f4       	brcc	.+6      	; 0x3780 <malloc+0x66>
    377a:	9a 01       	movw	r18, r20
    377c:	bd 01       	movw	r22, r26
    377e:	ef 01       	movw	r28, r30
    3780:	df 01       	movw	r26, r30
    3782:	f8 01       	movw	r30, r16
    3784:	db cf       	rjmp	.-74     	; 0x373c <malloc+0x22>
    3786:	21 15       	cp	r18, r1
    3788:	31 05       	cpc	r19, r1
    378a:	f9 f0       	breq	.+62     	; 0x37ca <malloc+0xb0>
    378c:	28 1b       	sub	r18, r24
    378e:	39 0b       	sbc	r19, r25
    3790:	24 30       	cpi	r18, 0x04	; 4
    3792:	31 05       	cpc	r19, r1
    3794:	80 f4       	brcc	.+32     	; 0x37b6 <malloc+0x9c>
    3796:	8a 81       	ldd	r24, Y+2	; 0x02
    3798:	9b 81       	ldd	r25, Y+3	; 0x03
    379a:	61 15       	cp	r22, r1
    379c:	71 05       	cpc	r23, r1
    379e:	21 f0       	breq	.+8      	; 0x37a8 <malloc+0x8e>
    37a0:	fb 01       	movw	r30, r22
    37a2:	82 83       	std	Z+2, r24	; 0x02
    37a4:	93 83       	std	Z+3, r25	; 0x03
    37a6:	04 c0       	rjmp	.+8      	; 0x37b0 <malloc+0x96>
    37a8:	80 93 6e 24 	sts	0x246E, r24	; 0x80246e <__flp>
    37ac:	90 93 6f 24 	sts	0x246F, r25	; 0x80246f <__flp+0x1>
    37b0:	fe 01       	movw	r30, r28
    37b2:	32 96       	adiw	r30, 0x02	; 2
    37b4:	44 c0       	rjmp	.+136    	; 0x383e <malloc+0x124>
    37b6:	fe 01       	movw	r30, r28
    37b8:	e2 0f       	add	r30, r18
    37ba:	f3 1f       	adc	r31, r19
    37bc:	81 93       	st	Z+, r24
    37be:	91 93       	st	Z+, r25
    37c0:	22 50       	subi	r18, 0x02	; 2
    37c2:	31 09       	sbc	r19, r1
    37c4:	28 83       	st	Y, r18
    37c6:	39 83       	std	Y+1, r19	; 0x01
    37c8:	3a c0       	rjmp	.+116    	; 0x383e <malloc+0x124>
    37ca:	20 91 6c 24 	lds	r18, 0x246C	; 0x80246c <__brkval>
    37ce:	30 91 6d 24 	lds	r19, 0x246D	; 0x80246d <__brkval+0x1>
    37d2:	23 2b       	or	r18, r19
    37d4:	41 f4       	brne	.+16     	; 0x37e6 <malloc+0xcc>
    37d6:	20 91 02 20 	lds	r18, 0x2002	; 0x802002 <__malloc_heap_start>
    37da:	30 91 03 20 	lds	r19, 0x2003	; 0x802003 <__malloc_heap_start+0x1>
    37de:	20 93 6c 24 	sts	0x246C, r18	; 0x80246c <__brkval>
    37e2:	30 93 6d 24 	sts	0x246D, r19	; 0x80246d <__brkval+0x1>
    37e6:	20 91 00 20 	lds	r18, 0x2000	; 0x802000 <__data_start>
    37ea:	30 91 01 20 	lds	r19, 0x2001	; 0x802001 <__data_start+0x1>
    37ee:	21 15       	cp	r18, r1
    37f0:	31 05       	cpc	r19, r1
    37f2:	41 f4       	brne	.+16     	; 0x3804 <malloc+0xea>
    37f4:	2d b7       	in	r18, 0x3d	; 61
    37f6:	3e b7       	in	r19, 0x3e	; 62
    37f8:	40 91 04 20 	lds	r20, 0x2004	; 0x802004 <__malloc_margin>
    37fc:	50 91 05 20 	lds	r21, 0x2005	; 0x802005 <__malloc_margin+0x1>
    3800:	24 1b       	sub	r18, r20
    3802:	35 0b       	sbc	r19, r21
    3804:	e0 91 6c 24 	lds	r30, 0x246C	; 0x80246c <__brkval>
    3808:	f0 91 6d 24 	lds	r31, 0x246D	; 0x80246d <__brkval+0x1>
    380c:	e2 17       	cp	r30, r18
    380e:	f3 07       	cpc	r31, r19
    3810:	a0 f4       	brcc	.+40     	; 0x383a <malloc+0x120>
    3812:	2e 1b       	sub	r18, r30
    3814:	3f 0b       	sbc	r19, r31
    3816:	28 17       	cp	r18, r24
    3818:	39 07       	cpc	r19, r25
    381a:	78 f0       	brcs	.+30     	; 0x383a <malloc+0x120>
    381c:	ac 01       	movw	r20, r24
    381e:	4e 5f       	subi	r20, 0xFE	; 254
    3820:	5f 4f       	sbci	r21, 0xFF	; 255
    3822:	24 17       	cp	r18, r20
    3824:	35 07       	cpc	r19, r21
    3826:	48 f0       	brcs	.+18     	; 0x383a <malloc+0x120>
    3828:	4e 0f       	add	r20, r30
    382a:	5f 1f       	adc	r21, r31
    382c:	40 93 6c 24 	sts	0x246C, r20	; 0x80246c <__brkval>
    3830:	50 93 6d 24 	sts	0x246D, r21	; 0x80246d <__brkval+0x1>
    3834:	81 93       	st	Z+, r24
    3836:	91 93       	st	Z+, r25
    3838:	02 c0       	rjmp	.+4      	; 0x383e <malloc+0x124>
    383a:	e0 e0       	ldi	r30, 0x00	; 0
    383c:	f0 e0       	ldi	r31, 0x00	; 0
    383e:	cf 01       	movw	r24, r30
    3840:	df 91       	pop	r29
    3842:	cf 91       	pop	r28
    3844:	1f 91       	pop	r17
    3846:	0f 91       	pop	r16
    3848:	08 95       	ret

0000384a <free>:
    384a:	cf 93       	push	r28
    384c:	df 93       	push	r29
    384e:	00 97       	sbiw	r24, 0x00	; 0
    3850:	09 f4       	brne	.+2      	; 0x3854 <free+0xa>
    3852:	81 c0       	rjmp	.+258    	; 0x3956 <free+0x10c>
    3854:	fc 01       	movw	r30, r24
    3856:	32 97       	sbiw	r30, 0x02	; 2
    3858:	12 82       	std	Z+2, r1	; 0x02
    385a:	13 82       	std	Z+3, r1	; 0x03
    385c:	a0 91 6e 24 	lds	r26, 0x246E	; 0x80246e <__flp>
    3860:	b0 91 6f 24 	lds	r27, 0x246F	; 0x80246f <__flp+0x1>
    3864:	10 97       	sbiw	r26, 0x00	; 0
    3866:	81 f4       	brne	.+32     	; 0x3888 <free+0x3e>
    3868:	20 81       	ld	r18, Z
    386a:	31 81       	ldd	r19, Z+1	; 0x01
    386c:	82 0f       	add	r24, r18
    386e:	93 1f       	adc	r25, r19
    3870:	20 91 6c 24 	lds	r18, 0x246C	; 0x80246c <__brkval>
    3874:	30 91 6d 24 	lds	r19, 0x246D	; 0x80246d <__brkval+0x1>
    3878:	28 17       	cp	r18, r24
    387a:	39 07       	cpc	r19, r25
    387c:	51 f5       	brne	.+84     	; 0x38d2 <free+0x88>
    387e:	e0 93 6c 24 	sts	0x246C, r30	; 0x80246c <__brkval>
    3882:	f0 93 6d 24 	sts	0x246D, r31	; 0x80246d <__brkval+0x1>
    3886:	67 c0       	rjmp	.+206    	; 0x3956 <free+0x10c>
    3888:	ed 01       	movw	r28, r26
    388a:	20 e0       	ldi	r18, 0x00	; 0
    388c:	30 e0       	ldi	r19, 0x00	; 0
    388e:	ce 17       	cp	r28, r30
    3890:	df 07       	cpc	r29, r31
    3892:	40 f4       	brcc	.+16     	; 0x38a4 <free+0x5a>
    3894:	4a 81       	ldd	r20, Y+2	; 0x02
    3896:	5b 81       	ldd	r21, Y+3	; 0x03
    3898:	9e 01       	movw	r18, r28
    389a:	41 15       	cp	r20, r1
    389c:	51 05       	cpc	r21, r1
    389e:	f1 f0       	breq	.+60     	; 0x38dc <free+0x92>
    38a0:	ea 01       	movw	r28, r20
    38a2:	f5 cf       	rjmp	.-22     	; 0x388e <free+0x44>
    38a4:	c2 83       	std	Z+2, r28	; 0x02
    38a6:	d3 83       	std	Z+3, r29	; 0x03
    38a8:	40 81       	ld	r20, Z
    38aa:	51 81       	ldd	r21, Z+1	; 0x01
    38ac:	84 0f       	add	r24, r20
    38ae:	95 1f       	adc	r25, r21
    38b0:	c8 17       	cp	r28, r24
    38b2:	d9 07       	cpc	r29, r25
    38b4:	59 f4       	brne	.+22     	; 0x38cc <free+0x82>
    38b6:	88 81       	ld	r24, Y
    38b8:	99 81       	ldd	r25, Y+1	; 0x01
    38ba:	84 0f       	add	r24, r20
    38bc:	95 1f       	adc	r25, r21
    38be:	02 96       	adiw	r24, 0x02	; 2
    38c0:	80 83       	st	Z, r24
    38c2:	91 83       	std	Z+1, r25	; 0x01
    38c4:	8a 81       	ldd	r24, Y+2	; 0x02
    38c6:	9b 81       	ldd	r25, Y+3	; 0x03
    38c8:	82 83       	std	Z+2, r24	; 0x02
    38ca:	93 83       	std	Z+3, r25	; 0x03
    38cc:	21 15       	cp	r18, r1
    38ce:	31 05       	cpc	r19, r1
    38d0:	29 f4       	brne	.+10     	; 0x38dc <free+0x92>
    38d2:	e0 93 6e 24 	sts	0x246E, r30	; 0x80246e <__flp>
    38d6:	f0 93 6f 24 	sts	0x246F, r31	; 0x80246f <__flp+0x1>
    38da:	3d c0       	rjmp	.+122    	; 0x3956 <free+0x10c>
    38dc:	e9 01       	movw	r28, r18
    38de:	ea 83       	std	Y+2, r30	; 0x02
    38e0:	fb 83       	std	Y+3, r31	; 0x03
    38e2:	49 91       	ld	r20, Y+
    38e4:	59 91       	ld	r21, Y+
    38e6:	c4 0f       	add	r28, r20
    38e8:	d5 1f       	adc	r29, r21
    38ea:	ec 17       	cp	r30, r28
    38ec:	fd 07       	cpc	r31, r29
    38ee:	61 f4       	brne	.+24     	; 0x3908 <free+0xbe>
    38f0:	80 81       	ld	r24, Z
    38f2:	91 81       	ldd	r25, Z+1	; 0x01
    38f4:	84 0f       	add	r24, r20
    38f6:	95 1f       	adc	r25, r21
    38f8:	02 96       	adiw	r24, 0x02	; 2
    38fa:	e9 01       	movw	r28, r18
    38fc:	88 83       	st	Y, r24
    38fe:	99 83       	std	Y+1, r25	; 0x01
    3900:	82 81       	ldd	r24, Z+2	; 0x02
    3902:	93 81       	ldd	r25, Z+3	; 0x03
    3904:	8a 83       	std	Y+2, r24	; 0x02
    3906:	9b 83       	std	Y+3, r25	; 0x03
    3908:	e0 e0       	ldi	r30, 0x00	; 0
    390a:	f0 e0       	ldi	r31, 0x00	; 0
    390c:	12 96       	adiw	r26, 0x02	; 2
    390e:	8d 91       	ld	r24, X+
    3910:	9c 91       	ld	r25, X
    3912:	13 97       	sbiw	r26, 0x03	; 3
    3914:	00 97       	sbiw	r24, 0x00	; 0
    3916:	19 f0       	breq	.+6      	; 0x391e <free+0xd4>
    3918:	fd 01       	movw	r30, r26
    391a:	dc 01       	movw	r26, r24
    391c:	f7 cf       	rjmp	.-18     	; 0x390c <free+0xc2>
    391e:	8d 91       	ld	r24, X+
    3920:	9c 91       	ld	r25, X
    3922:	11 97       	sbiw	r26, 0x01	; 1
    3924:	9d 01       	movw	r18, r26
    3926:	2e 5f       	subi	r18, 0xFE	; 254
    3928:	3f 4f       	sbci	r19, 0xFF	; 255
    392a:	82 0f       	add	r24, r18
    392c:	93 1f       	adc	r25, r19
    392e:	20 91 6c 24 	lds	r18, 0x246C	; 0x80246c <__brkval>
    3932:	30 91 6d 24 	lds	r19, 0x246D	; 0x80246d <__brkval+0x1>
    3936:	28 17       	cp	r18, r24
    3938:	39 07       	cpc	r19, r25
    393a:	69 f4       	brne	.+26     	; 0x3956 <free+0x10c>
    393c:	30 97       	sbiw	r30, 0x00	; 0
    393e:	29 f4       	brne	.+10     	; 0x394a <free+0x100>
    3940:	10 92 6e 24 	sts	0x246E, r1	; 0x80246e <__flp>
    3944:	10 92 6f 24 	sts	0x246F, r1	; 0x80246f <__flp+0x1>
    3948:	02 c0       	rjmp	.+4      	; 0x394e <free+0x104>
    394a:	12 82       	std	Z+2, r1	; 0x02
    394c:	13 82       	std	Z+3, r1	; 0x03
    394e:	a0 93 6c 24 	sts	0x246C, r26	; 0x80246c <__brkval>
    3952:	b0 93 6d 24 	sts	0x246D, r27	; 0x80246d <__brkval+0x1>
    3956:	df 91       	pop	r29
    3958:	cf 91       	pop	r28
    395a:	08 95       	ret

0000395c <memset>:
    395c:	dc 01       	movw	r26, r24
    395e:	01 c0       	rjmp	.+2      	; 0x3962 <memset+0x6>
    3960:	6d 93       	st	X+, r22
    3962:	41 50       	subi	r20, 0x01	; 1
    3964:	50 40       	sbci	r21, 0x00	; 0
    3966:	e0 f7       	brcc	.-8      	; 0x3960 <memset+0x4>
    3968:	08 95       	ret

0000396a <_exit>:
    396a:	f8 94       	cli

0000396c <__stop_program>:
    396c:	ff cf       	rjmp	.-2      	; 0x396c <__stop_program>
