
CWMaskAndRandChaotic.elf:     file format elf32-avr

Sections:
Idx Name          Size      VMA       LMA       File off  Algn
  0 .text         0000358c  00000000  00000000  00000094  2**1
                  CONTENTS, ALLOC, LOAD, READONLY, CODE
  1 .data         00000124  00802000  0000358c  00003620  2**0
                  CONTENTS, ALLOC, LOAD, DATA
  2 .bss          000000f0  00802124  00802124  00003744  2**0
                  ALLOC
  3 .comment      00000030  00000000  00000000  00003744  2**0
                  CONTENTS, READONLY
  4 .note.gnu.avr.deviceinfo 00000040  00000000  00000000  00003774  2**2
                  CONTENTS, READONLY
  5 .debug_aranges 00000458  00000000  00000000  000037b8  2**3
                  CONTENTS, READONLY, DEBUGGING
  6 .debug_info   00007be6  00000000  00000000  00003c10  2**0
                  CONTENTS, READONLY, DEBUGGING
  7 .debug_abbrev 00002d58  00000000  00000000  0000b7f6  2**0
                  CONTENTS, READONLY, DEBUGGING
  8 .debug_line   00004221  00000000  00000000  0000e54e  2**0
                  CONTENTS, READONLY, DEBUGGING
  9 .debug_frame  0000150c  00000000  00000000  00012770  2**2
                  CONTENTS, READONLY, DEBUGGING
 10 .debug_str    000272c0  00000000  00000000  00013c7c  2**0
                  CONTENTS, READONLY, DEBUGGING
 11 .debug_loc    00002f50  00000000  00000000  0003af3c  2**0
                  CONTENTS, READONLY, DEBUGGING
 12 .debug_ranges 00000438  00000000  00000000  0003de8c  2**0
                  CONTENTS, READONLY, DEBUGGING
 13 .debug_macro  0000864f  00000000  00000000  0003e2c4  2**0
                  CONTENTS, READONLY, DEBUGGING

Disassembly of section .text:

00000000 <__vectors>:
       0:	b5 c0       	rjmp	.+362    	; 0x16c <__ctors_end>
       2:	00 00       	nop
       4:	d4 c0       	rjmp	.+424    	; 0x1ae <__bad_interrupt>
       6:	00 00       	nop
       8:	d2 c0       	rjmp	.+420    	; 0x1ae <__bad_interrupt>
       a:	00 00       	nop
       c:	d0 c0       	rjmp	.+416    	; 0x1ae <__bad_interrupt>
       e:	00 00       	nop
      10:	ce c0       	rjmp	.+412    	; 0x1ae <__bad_interrupt>
      12:	00 00       	nop
      14:	cc c0       	rjmp	.+408    	; 0x1ae <__bad_interrupt>
      16:	00 00       	nop
      18:	ca c0       	rjmp	.+404    	; 0x1ae <__bad_interrupt>
      1a:	00 00       	nop
      1c:	c8 c0       	rjmp	.+400    	; 0x1ae <__bad_interrupt>
      1e:	00 00       	nop
      20:	c6 c0       	rjmp	.+396    	; 0x1ae <__bad_interrupt>
      22:	00 00       	nop
      24:	c4 c0       	rjmp	.+392    	; 0x1ae <__bad_interrupt>
      26:	00 00       	nop
      28:	c2 c0       	rjmp	.+388    	; 0x1ae <__bad_interrupt>
      2a:	00 00       	nop
      2c:	c0 c0       	rjmp	.+384    	; 0x1ae <__bad_interrupt>
      2e:	00 00       	nop
      30:	be c0       	rjmp	.+380    	; 0x1ae <__bad_interrupt>
      32:	00 00       	nop
      34:	bc c0       	rjmp	.+376    	; 0x1ae <__bad_interrupt>
      36:	00 00       	nop
      38:	0c 94 81 13 	jmp	0x2702	; 0x2702 <__vector_14>
      3c:	0c 94 be 13 	jmp	0x277c	; 0x277c <__vector_15>
      40:	0c 94 fb 13 	jmp	0x27f6	; 0x27f6 <__vector_16>
      44:	0c 94 38 14 	jmp	0x2870	; 0x2870 <__vector_17>
      48:	0c 94 75 14 	jmp	0x28ea	; 0x28ea <__vector_18>
      4c:	0c 94 b2 14 	jmp	0x2964	; 0x2964 <__vector_19>
      50:	0c 94 ef 14 	jmp	0x29de	; 0x29de <__vector_20>
      54:	0c 94 2c 15 	jmp	0x2a58	; 0x2a58 <__vector_21>
      58:	0c 94 69 15 	jmp	0x2ad2	; 0x2ad2 <__vector_22>
      5c:	0c 94 a6 15 	jmp	0x2b4c	; 0x2b4c <__vector_23>
      60:	a6 c0       	rjmp	.+332    	; 0x1ae <__bad_interrupt>
      62:	00 00       	nop
      64:	a4 c0       	rjmp	.+328    	; 0x1ae <__bad_interrupt>
      66:	00 00       	nop
      68:	a2 c0       	rjmp	.+324    	; 0x1ae <__bad_interrupt>
      6a:	00 00       	nop
      6c:	a0 c0       	rjmp	.+320    	; 0x1ae <__bad_interrupt>
      6e:	00 00       	nop
      70:	9e c0       	rjmp	.+316    	; 0x1ae <__bad_interrupt>
      72:	00 00       	nop
      74:	9c c0       	rjmp	.+312    	; 0x1ae <__bad_interrupt>
      76:	00 00       	nop
      78:	9a c0       	rjmp	.+308    	; 0x1ae <__bad_interrupt>
      7a:	00 00       	nop
      7c:	98 c0       	rjmp	.+304    	; 0x1ae <__bad_interrupt>
      7e:	00 00       	nop
      80:	96 c0       	rjmp	.+300    	; 0x1ae <__bad_interrupt>
      82:	00 00       	nop
      84:	94 c0       	rjmp	.+296    	; 0x1ae <__bad_interrupt>
      86:	00 00       	nop
      88:	92 c0       	rjmp	.+292    	; 0x1ae <__bad_interrupt>
      8a:	00 00       	nop
      8c:	90 c0       	rjmp	.+288    	; 0x1ae <__bad_interrupt>
      8e:	00 00       	nop
      90:	8e c0       	rjmp	.+284    	; 0x1ae <__bad_interrupt>
      92:	00 00       	nop
      94:	8c c0       	rjmp	.+280    	; 0x1ae <__bad_interrupt>
      96:	00 00       	nop
      98:	8a c0       	rjmp	.+276    	; 0x1ae <__bad_interrupt>
      9a:	00 00       	nop
      9c:	88 c0       	rjmp	.+272    	; 0x1ae <__bad_interrupt>
      9e:	00 00       	nop
      a0:	86 c0       	rjmp	.+268    	; 0x1ae <__bad_interrupt>
      a2:	00 00       	nop
      a4:	84 c0       	rjmp	.+264    	; 0x1ae <__bad_interrupt>
      a6:	00 00       	nop
      a8:	82 c0       	rjmp	.+260    	; 0x1ae <__bad_interrupt>
      aa:	00 00       	nop
      ac:	80 c0       	rjmp	.+256    	; 0x1ae <__bad_interrupt>
      ae:	00 00       	nop
      b0:	7e c0       	rjmp	.+252    	; 0x1ae <__bad_interrupt>
      b2:	00 00       	nop
      b4:	7c c0       	rjmp	.+248    	; 0x1ae <__bad_interrupt>
      b6:	00 00       	nop
      b8:	7a c0       	rjmp	.+244    	; 0x1ae <__bad_interrupt>
      ba:	00 00       	nop
      bc:	0c 94 51 17 	jmp	0x2ea2	; 0x2ea2 <__vector_47>
      c0:	0c 94 8e 17 	jmp	0x2f1c	; 0x2f1c <__vector_48>
      c4:	0c 94 cb 17 	jmp	0x2f96	; 0x2f96 <__vector_49>
      c8:	0c 94 08 18 	jmp	0x3010	; 0x3010 <__vector_50>
      cc:	0c 94 45 18 	jmp	0x308a	; 0x308a <__vector_51>
      d0:	0c 94 82 18 	jmp	0x3104	; 0x3104 <__vector_52>
      d4:	6c c0       	rjmp	.+216    	; 0x1ae <__bad_interrupt>
      d6:	00 00       	nop
      d8:	6a c0       	rjmp	.+212    	; 0x1ae <__bad_interrupt>
      da:	00 00       	nop
      dc:	68 c0       	rjmp	.+208    	; 0x1ae <__bad_interrupt>
      de:	00 00       	nop
      e0:	66 c0       	rjmp	.+204    	; 0x1ae <__bad_interrupt>
      e2:	00 00       	nop
      e4:	64 c0       	rjmp	.+200    	; 0x1ae <__bad_interrupt>
      e6:	00 00       	nop
      e8:	62 c0       	rjmp	.+196    	; 0x1ae <__bad_interrupt>
      ea:	00 00       	nop
      ec:	60 c0       	rjmp	.+192    	; 0x1ae <__bad_interrupt>
      ee:	00 00       	nop
      f0:	5e c0       	rjmp	.+188    	; 0x1ae <__bad_interrupt>
      f2:	00 00       	nop
      f4:	5c c0       	rjmp	.+184    	; 0x1ae <__bad_interrupt>
      f6:	00 00       	nop
      f8:	5a c0       	rjmp	.+180    	; 0x1ae <__bad_interrupt>
      fa:	00 00       	nop
      fc:	58 c0       	rjmp	.+176    	; 0x1ae <__bad_interrupt>
      fe:	00 00       	nop
     100:	56 c0       	rjmp	.+172    	; 0x1ae <__bad_interrupt>
     102:	00 00       	nop
     104:	54 c0       	rjmp	.+168    	; 0x1ae <__bad_interrupt>
     106:	00 00       	nop
     108:	52 c0       	rjmp	.+164    	; 0x1ae <__bad_interrupt>
     10a:	00 00       	nop
     10c:	50 c0       	rjmp	.+160    	; 0x1ae <__bad_interrupt>
     10e:	00 00       	nop
     110:	4e c0       	rjmp	.+156    	; 0x1ae <__bad_interrupt>
     112:	00 00       	nop
     114:	4c c0       	rjmp	.+152    	; 0x1ae <__bad_interrupt>
     116:	00 00       	nop
     118:	4a c0       	rjmp	.+148    	; 0x1ae <__bad_interrupt>
     11a:	00 00       	nop
     11c:	48 c0       	rjmp	.+144    	; 0x1ae <__bad_interrupt>
     11e:	00 00       	nop
     120:	46 c0       	rjmp	.+140    	; 0x1ae <__bad_interrupt>
     122:	00 00       	nop
     124:	44 c0       	rjmp	.+136    	; 0x1ae <__bad_interrupt>
     126:	00 00       	nop
     128:	42 c0       	rjmp	.+132    	; 0x1ae <__bad_interrupt>
     12a:	00 00       	nop
     12c:	40 c0       	rjmp	.+128    	; 0x1ae <__bad_interrupt>
     12e:	00 00       	nop
     130:	3e c0       	rjmp	.+124    	; 0x1ae <__bad_interrupt>
     132:	00 00       	nop
     134:	0c 94 e3 15 	jmp	0x2bc6	; 0x2bc6 <__vector_77>
     138:	0c 94 20 16 	jmp	0x2c40	; 0x2c40 <__vector_78>
     13c:	0c 94 5d 16 	jmp	0x2cba	; 0x2cba <__vector_79>
     140:	0c 94 9a 16 	jmp	0x2d34	; 0x2d34 <__vector_80>
     144:	0c 94 d7 16 	jmp	0x2dae	; 0x2dae <__vector_81>
     148:	0c 94 14 17 	jmp	0x2e28	; 0x2e28 <__vector_82>
     14c:	30 c0       	rjmp	.+96     	; 0x1ae <__bad_interrupt>
     14e:	00 00       	nop
     150:	2e c0       	rjmp	.+92     	; 0x1ae <__bad_interrupt>
     152:	00 00       	nop
     154:	2c c0       	rjmp	.+88     	; 0x1ae <__bad_interrupt>
     156:	00 00       	nop
     158:	2a c0       	rjmp	.+84     	; 0x1ae <__bad_interrupt>
     15a:	00 00       	nop
     15c:	28 c0       	rjmp	.+80     	; 0x1ae <__bad_interrupt>
     15e:	00 00       	nop
     160:	26 c0       	rjmp	.+76     	; 0x1ae <__bad_interrupt>
     162:	00 00       	nop
     164:	24 c0       	rjmp	.+72     	; 0x1ae <__bad_interrupt>
     166:	00 00       	nop
     168:	22 c0       	rjmp	.+68     	; 0x1ae <__bad_interrupt>
	...

0000016c <__ctors_end>:
     16c:	11 24       	eor	r1, r1
     16e:	1f be       	out	0x3f, r1	; 63
     170:	cf ef       	ldi	r28, 0xFF	; 255
     172:	cd bf       	out	0x3d, r28	; 61
     174:	df e3       	ldi	r29, 0x3F	; 63
     176:	de bf       	out	0x3e, r29	; 62
     178:	00 e0       	ldi	r16, 0x00	; 0
     17a:	0c bf       	out	0x3c, r16	; 60

0000017c <__do_copy_data>:
     17c:	11 e2       	ldi	r17, 0x21	; 33
     17e:	a0 e0       	ldi	r26, 0x00	; 0
     180:	b0 e2       	ldi	r27, 0x20	; 32
     182:	ec e8       	ldi	r30, 0x8C	; 140
     184:	f5 e3       	ldi	r31, 0x35	; 53
     186:	00 e0       	ldi	r16, 0x00	; 0
     188:	0b bf       	out	0x3b, r16	; 59
     18a:	02 c0       	rjmp	.+4      	; 0x190 <__do_copy_data+0x14>
     18c:	07 90       	elpm	r0, Z+
     18e:	0d 92       	st	X+, r0
     190:	a4 32       	cpi	r26, 0x24	; 36
     192:	b1 07       	cpc	r27, r17
     194:	d9 f7       	brne	.-10     	; 0x18c <__do_copy_data+0x10>

00000196 <__do_clear_bss>:
     196:	22 e2       	ldi	r18, 0x22	; 34
     198:	a4 e2       	ldi	r26, 0x24	; 36
     19a:	b1 e2       	ldi	r27, 0x21	; 33
     19c:	01 c0       	rjmp	.+2      	; 0x1a0 <.do_clear_bss_start>

0000019e <.do_clear_bss_loop>:
     19e:	1d 92       	st	X+, r1

000001a0 <.do_clear_bss_start>:
     1a0:	a4 31       	cpi	r26, 0x14	; 20
     1a2:	b2 07       	cpc	r27, r18
     1a4:	e1 f7       	brne	.-8      	; 0x19e <.do_clear_bss_loop>
     1a6:	0e 94 28 10 	call	0x2050	; 0x2050 <main>
     1aa:	0c 94 c4 1a 	jmp	0x3588	; 0x3588 <_exit>

000001ae <__bad_interrupt>:
     1ae:	28 cf       	rjmp	.-432    	; 0x0 <__vectors>

000001b0 <gmult>:
			row = (state[Nb*i+j] & 0xf0) >> 4;
			col = state[Nb*i+j] & 0x0f;
			state[Nb*i+j] = inv_s_box[16*row+col];
		}
	}
}
     1b0:	cf 93       	push	r28
     1b2:	df 93       	push	r29
     1b4:	cd b7       	in	r28, 0x3d	; 61
     1b6:	de b7       	in	r29, 0x3e	; 62
     1b8:	25 97       	sbiw	r28, 0x05	; 5
     1ba:	cd bf       	out	0x3d, r28	; 61
     1bc:	de bf       	out	0x3e, r29	; 62
     1be:	8c 83       	std	Y+4, r24	; 0x04
     1c0:	6d 83       	std	Y+5, r22	; 0x05
     1c2:	19 82       	std	Y+1, r1	; 0x01
     1c4:	1a 82       	std	Y+2, r1	; 0x02
     1c6:	1b 82       	std	Y+3, r1	; 0x03
     1c8:	1a 82       	std	Y+2, r1	; 0x02
     1ca:	1e c0       	rjmp	.+60     	; 0x208 <gmult+0x58>
     1cc:	8d 81       	ldd	r24, Y+5	; 0x05
     1ce:	88 2f       	mov	r24, r24
     1d0:	90 e0       	ldi	r25, 0x00	; 0
     1d2:	81 70       	andi	r24, 0x01	; 1
     1d4:	99 27       	eor	r25, r25
     1d6:	89 2b       	or	r24, r25
     1d8:	21 f0       	breq	.+8      	; 0x1e2 <gmult+0x32>
     1da:	99 81       	ldd	r25, Y+1	; 0x01
     1dc:	8c 81       	ldd	r24, Y+4	; 0x04
     1de:	89 27       	eor	r24, r25
     1e0:	89 83       	std	Y+1, r24	; 0x01
     1e2:	8c 81       	ldd	r24, Y+4	; 0x04
     1e4:	80 78       	andi	r24, 0x80	; 128
     1e6:	8b 83       	std	Y+3, r24	; 0x03
     1e8:	8c 81       	ldd	r24, Y+4	; 0x04
     1ea:	88 0f       	add	r24, r24
     1ec:	8c 83       	std	Y+4, r24	; 0x04
     1ee:	8b 81       	ldd	r24, Y+3	; 0x03
     1f0:	88 23       	and	r24, r24
     1f2:	21 f0       	breq	.+8      	; 0x1fc <gmult+0x4c>
     1f4:	9c 81       	ldd	r25, Y+4	; 0x04
     1f6:	8b e1       	ldi	r24, 0x1B	; 27
     1f8:	89 27       	eor	r24, r25
     1fa:	8c 83       	std	Y+4, r24	; 0x04
     1fc:	8d 81       	ldd	r24, Y+5	; 0x05
     1fe:	86 95       	lsr	r24
     200:	8d 83       	std	Y+5, r24	; 0x05
     202:	8a 81       	ldd	r24, Y+2	; 0x02
     204:	8f 5f       	subi	r24, 0xFF	; 255
     206:	8a 83       	std	Y+2, r24	; 0x02
     208:	8a 81       	ldd	r24, Y+2	; 0x02
     20a:	88 30       	cpi	r24, 0x08	; 8
     20c:	f8 f2       	brcs	.-66     	; 0x1cc <gmult+0x1c>
     20e:	89 81       	ldd	r24, Y+1	; 0x01
     210:	25 96       	adiw	r28, 0x05	; 5
     212:	cd bf       	out	0x3d, r28	; 61
     214:	de bf       	out	0x3e, r29	; 62
     216:	df 91       	pop	r29
     218:	cf 91       	pop	r28
     21a:	08 95       	ret

0000021c <coef_add>:
     21c:	cf 93       	push	r28
     21e:	df 93       	push	r29
     220:	00 d0       	rcall	.+0      	; 0x222 <coef_add+0x6>
     222:	00 d0       	rcall	.+0      	; 0x224 <coef_add+0x8>
     224:	cd b7       	in	r28, 0x3d	; 61
     226:	de b7       	in	r29, 0x3e	; 62
     228:	89 83       	std	Y+1, r24	; 0x01
     22a:	9a 83       	std	Y+2, r25	; 0x02
     22c:	6b 83       	std	Y+3, r22	; 0x03
     22e:	7c 83       	std	Y+4, r23	; 0x04
     230:	4d 83       	std	Y+5, r20	; 0x05
     232:	5e 83       	std	Y+6, r21	; 0x06
     234:	89 81       	ldd	r24, Y+1	; 0x01
     236:	9a 81       	ldd	r25, Y+2	; 0x02
     238:	fc 01       	movw	r30, r24
     23a:	20 81       	ld	r18, Z
     23c:	8b 81       	ldd	r24, Y+3	; 0x03
     23e:	9c 81       	ldd	r25, Y+4	; 0x04
     240:	fc 01       	movw	r30, r24
     242:	80 81       	ld	r24, Z
     244:	28 27       	eor	r18, r24
     246:	8d 81       	ldd	r24, Y+5	; 0x05
     248:	9e 81       	ldd	r25, Y+6	; 0x06
     24a:	fc 01       	movw	r30, r24
     24c:	20 83       	st	Z, r18
     24e:	8d 81       	ldd	r24, Y+5	; 0x05
     250:	9e 81       	ldd	r25, Y+6	; 0x06
     252:	01 96       	adiw	r24, 0x01	; 1
     254:	29 81       	ldd	r18, Y+1	; 0x01
     256:	3a 81       	ldd	r19, Y+2	; 0x02
     258:	2f 5f       	subi	r18, 0xFF	; 255
     25a:	3f 4f       	sbci	r19, 0xFF	; 255
     25c:	f9 01       	movw	r30, r18
     25e:	40 81       	ld	r20, Z
     260:	2b 81       	ldd	r18, Y+3	; 0x03
     262:	3c 81       	ldd	r19, Y+4	; 0x04
     264:	2f 5f       	subi	r18, 0xFF	; 255
     266:	3f 4f       	sbci	r19, 0xFF	; 255
     268:	f9 01       	movw	r30, r18
     26a:	20 81       	ld	r18, Z
     26c:	24 27       	eor	r18, r20
     26e:	fc 01       	movw	r30, r24
     270:	20 83       	st	Z, r18
     272:	8d 81       	ldd	r24, Y+5	; 0x05
     274:	9e 81       	ldd	r25, Y+6	; 0x06
     276:	02 96       	adiw	r24, 0x02	; 2
     278:	29 81       	ldd	r18, Y+1	; 0x01
     27a:	3a 81       	ldd	r19, Y+2	; 0x02
     27c:	2e 5f       	subi	r18, 0xFE	; 254
     27e:	3f 4f       	sbci	r19, 0xFF	; 255
     280:	f9 01       	movw	r30, r18
     282:	40 81       	ld	r20, Z
     284:	2b 81       	ldd	r18, Y+3	; 0x03
     286:	3c 81       	ldd	r19, Y+4	; 0x04
     288:	2e 5f       	subi	r18, 0xFE	; 254
     28a:	3f 4f       	sbci	r19, 0xFF	; 255
     28c:	f9 01       	movw	r30, r18
     28e:	20 81       	ld	r18, Z
     290:	24 27       	eor	r18, r20
     292:	fc 01       	movw	r30, r24
     294:	20 83       	st	Z, r18
     296:	8d 81       	ldd	r24, Y+5	; 0x05
     298:	9e 81       	ldd	r25, Y+6	; 0x06
     29a:	03 96       	adiw	r24, 0x03	; 3
     29c:	29 81       	ldd	r18, Y+1	; 0x01
     29e:	3a 81       	ldd	r19, Y+2	; 0x02
     2a0:	2d 5f       	subi	r18, 0xFD	; 253
     2a2:	3f 4f       	sbci	r19, 0xFF	; 255
     2a4:	f9 01       	movw	r30, r18
     2a6:	40 81       	ld	r20, Z
     2a8:	2b 81       	ldd	r18, Y+3	; 0x03
     2aa:	3c 81       	ldd	r19, Y+4	; 0x04
     2ac:	2d 5f       	subi	r18, 0xFD	; 253
     2ae:	3f 4f       	sbci	r19, 0xFF	; 255
     2b0:	f9 01       	movw	r30, r18
     2b2:	20 81       	ld	r18, Z
     2b4:	24 27       	eor	r18, r20
     2b6:	fc 01       	movw	r30, r24
     2b8:	20 83       	st	Z, r18
     2ba:	00 00       	nop
     2bc:	26 96       	adiw	r28, 0x06	; 6
     2be:	cd bf       	out	0x3d, r28	; 61
     2c0:	de bf       	out	0x3e, r29	; 62
     2c2:	df 91       	pop	r29
     2c4:	cf 91       	pop	r28
     2c6:	08 95       	ret

000002c8 <coef_mult>:
     2c8:	ff 92       	push	r15
     2ca:	0f 93       	push	r16
     2cc:	1f 93       	push	r17
     2ce:	cf 93       	push	r28
     2d0:	df 93       	push	r29
     2d2:	00 d0       	rcall	.+0      	; 0x2d4 <coef_mult+0xc>
     2d4:	00 d0       	rcall	.+0      	; 0x2d6 <coef_mult+0xe>
     2d6:	cd b7       	in	r28, 0x3d	; 61
     2d8:	de b7       	in	r29, 0x3e	; 62
     2da:	89 83       	std	Y+1, r24	; 0x01
     2dc:	9a 83       	std	Y+2, r25	; 0x02
     2de:	6b 83       	std	Y+3, r22	; 0x03
     2e0:	7c 83       	std	Y+4, r23	; 0x04
     2e2:	4d 83       	std	Y+5, r20	; 0x05
     2e4:	5e 83       	std	Y+6, r21	; 0x06
     2e6:	8b 81       	ldd	r24, Y+3	; 0x03
     2e8:	9c 81       	ldd	r25, Y+4	; 0x04
     2ea:	fc 01       	movw	r30, r24
     2ec:	20 81       	ld	r18, Z
     2ee:	89 81       	ldd	r24, Y+1	; 0x01
     2f0:	9a 81       	ldd	r25, Y+2	; 0x02
     2f2:	fc 01       	movw	r30, r24
     2f4:	80 81       	ld	r24, Z
     2f6:	62 2f       	mov	r22, r18
     2f8:	5b df       	rcall	.-330    	; 0x1b0 <gmult>
     2fa:	18 2f       	mov	r17, r24
     2fc:	8b 81       	ldd	r24, Y+3	; 0x03
     2fe:	9c 81       	ldd	r25, Y+4	; 0x04
     300:	01 96       	adiw	r24, 0x01	; 1
     302:	fc 01       	movw	r30, r24
     304:	20 81       	ld	r18, Z
     306:	89 81       	ldd	r24, Y+1	; 0x01
     308:	9a 81       	ldd	r25, Y+2	; 0x02
     30a:	03 96       	adiw	r24, 0x03	; 3
     30c:	fc 01       	movw	r30, r24
     30e:	80 81       	ld	r24, Z
     310:	62 2f       	mov	r22, r18
     312:	4e df       	rcall	.-356    	; 0x1b0 <gmult>
     314:	18 27       	eor	r17, r24
     316:	8b 81       	ldd	r24, Y+3	; 0x03
     318:	9c 81       	ldd	r25, Y+4	; 0x04
     31a:	02 96       	adiw	r24, 0x02	; 2
     31c:	fc 01       	movw	r30, r24
     31e:	20 81       	ld	r18, Z
     320:	89 81       	ldd	r24, Y+1	; 0x01
     322:	9a 81       	ldd	r25, Y+2	; 0x02
     324:	02 96       	adiw	r24, 0x02	; 2
     326:	fc 01       	movw	r30, r24
     328:	80 81       	ld	r24, Z
     32a:	62 2f       	mov	r22, r18
     32c:	41 df       	rcall	.-382    	; 0x1b0 <gmult>
     32e:	18 27       	eor	r17, r24
     330:	8b 81       	ldd	r24, Y+3	; 0x03
     332:	9c 81       	ldd	r25, Y+4	; 0x04
     334:	03 96       	adiw	r24, 0x03	; 3
     336:	fc 01       	movw	r30, r24
     338:	20 81       	ld	r18, Z
     33a:	89 81       	ldd	r24, Y+1	; 0x01
     33c:	9a 81       	ldd	r25, Y+2	; 0x02
     33e:	01 96       	adiw	r24, 0x01	; 1
     340:	fc 01       	movw	r30, r24
     342:	80 81       	ld	r24, Z
     344:	62 2f       	mov	r22, r18
     346:	34 df       	rcall	.-408    	; 0x1b0 <gmult>
     348:	21 2f       	mov	r18, r17
     34a:	28 27       	eor	r18, r24
     34c:	8d 81       	ldd	r24, Y+5	; 0x05
     34e:	9e 81       	ldd	r25, Y+6	; 0x06
     350:	fc 01       	movw	r30, r24
     352:	20 83       	st	Z, r18
     354:	8d 81       	ldd	r24, Y+5	; 0x05
     356:	9e 81       	ldd	r25, Y+6	; 0x06
     358:	8c 01       	movw	r16, r24
     35a:	0f 5f       	subi	r16, 0xFF	; 255
     35c:	1f 4f       	sbci	r17, 0xFF	; 255
     35e:	8b 81       	ldd	r24, Y+3	; 0x03
     360:	9c 81       	ldd	r25, Y+4	; 0x04
     362:	fc 01       	movw	r30, r24
     364:	20 81       	ld	r18, Z
     366:	89 81       	ldd	r24, Y+1	; 0x01
     368:	9a 81       	ldd	r25, Y+2	; 0x02
     36a:	01 96       	adiw	r24, 0x01	; 1
     36c:	fc 01       	movw	r30, r24
     36e:	80 81       	ld	r24, Z
     370:	62 2f       	mov	r22, r18
     372:	1e df       	rcall	.-452    	; 0x1b0 <gmult>
     374:	f8 2e       	mov	r15, r24
     376:	8b 81       	ldd	r24, Y+3	; 0x03
     378:	9c 81       	ldd	r25, Y+4	; 0x04
     37a:	01 96       	adiw	r24, 0x01	; 1
     37c:	fc 01       	movw	r30, r24
     37e:	20 81       	ld	r18, Z
     380:	89 81       	ldd	r24, Y+1	; 0x01
     382:	9a 81       	ldd	r25, Y+2	; 0x02
     384:	fc 01       	movw	r30, r24
     386:	80 81       	ld	r24, Z
     388:	62 2f       	mov	r22, r18
     38a:	12 df       	rcall	.-476    	; 0x1b0 <gmult>
     38c:	f8 26       	eor	r15, r24
     38e:	8b 81       	ldd	r24, Y+3	; 0x03
     390:	9c 81       	ldd	r25, Y+4	; 0x04
     392:	02 96       	adiw	r24, 0x02	; 2
     394:	fc 01       	movw	r30, r24
     396:	20 81       	ld	r18, Z
     398:	89 81       	ldd	r24, Y+1	; 0x01
     39a:	9a 81       	ldd	r25, Y+2	; 0x02
     39c:	03 96       	adiw	r24, 0x03	; 3
     39e:	fc 01       	movw	r30, r24
     3a0:	80 81       	ld	r24, Z
     3a2:	62 2f       	mov	r22, r18
     3a4:	05 df       	rcall	.-502    	; 0x1b0 <gmult>
     3a6:	f8 26       	eor	r15, r24
     3a8:	8b 81       	ldd	r24, Y+3	; 0x03
     3aa:	9c 81       	ldd	r25, Y+4	; 0x04
     3ac:	03 96       	adiw	r24, 0x03	; 3
     3ae:	fc 01       	movw	r30, r24
     3b0:	20 81       	ld	r18, Z
     3b2:	89 81       	ldd	r24, Y+1	; 0x01
     3b4:	9a 81       	ldd	r25, Y+2	; 0x02
     3b6:	02 96       	adiw	r24, 0x02	; 2
     3b8:	fc 01       	movw	r30, r24
     3ba:	80 81       	ld	r24, Z
     3bc:	62 2f       	mov	r22, r18
     3be:	f8 de       	rcall	.-528    	; 0x1b0 <gmult>
     3c0:	8f 25       	eor	r24, r15
     3c2:	f8 01       	movw	r30, r16
     3c4:	80 83       	st	Z, r24
     3c6:	8d 81       	ldd	r24, Y+5	; 0x05
     3c8:	9e 81       	ldd	r25, Y+6	; 0x06
     3ca:	8c 01       	movw	r16, r24
     3cc:	0e 5f       	subi	r16, 0xFE	; 254
     3ce:	1f 4f       	sbci	r17, 0xFF	; 255
     3d0:	8b 81       	ldd	r24, Y+3	; 0x03
     3d2:	9c 81       	ldd	r25, Y+4	; 0x04
     3d4:	fc 01       	movw	r30, r24
     3d6:	20 81       	ld	r18, Z
     3d8:	89 81       	ldd	r24, Y+1	; 0x01
     3da:	9a 81       	ldd	r25, Y+2	; 0x02
     3dc:	02 96       	adiw	r24, 0x02	; 2
     3de:	fc 01       	movw	r30, r24
     3e0:	80 81       	ld	r24, Z
     3e2:	62 2f       	mov	r22, r18
     3e4:	e5 de       	rcall	.-566    	; 0x1b0 <gmult>
     3e6:	f8 2e       	mov	r15, r24
     3e8:	8b 81       	ldd	r24, Y+3	; 0x03
     3ea:	9c 81       	ldd	r25, Y+4	; 0x04
     3ec:	01 96       	adiw	r24, 0x01	; 1
     3ee:	fc 01       	movw	r30, r24
     3f0:	20 81       	ld	r18, Z
     3f2:	89 81       	ldd	r24, Y+1	; 0x01
     3f4:	9a 81       	ldd	r25, Y+2	; 0x02
     3f6:	01 96       	adiw	r24, 0x01	; 1
     3f8:	fc 01       	movw	r30, r24
     3fa:	80 81       	ld	r24, Z
     3fc:	62 2f       	mov	r22, r18
     3fe:	d8 de       	rcall	.-592    	; 0x1b0 <gmult>
     400:	f8 26       	eor	r15, r24
     402:	8b 81       	ldd	r24, Y+3	; 0x03
     404:	9c 81       	ldd	r25, Y+4	; 0x04
     406:	02 96       	adiw	r24, 0x02	; 2
     408:	fc 01       	movw	r30, r24
     40a:	20 81       	ld	r18, Z
     40c:	89 81       	ldd	r24, Y+1	; 0x01
     40e:	9a 81       	ldd	r25, Y+2	; 0x02
     410:	fc 01       	movw	r30, r24
     412:	80 81       	ld	r24, Z
     414:	62 2f       	mov	r22, r18
     416:	cc de       	rcall	.-616    	; 0x1b0 <gmult>
     418:	f8 26       	eor	r15, r24
     41a:	8b 81       	ldd	r24, Y+3	; 0x03
     41c:	9c 81       	ldd	r25, Y+4	; 0x04
     41e:	03 96       	adiw	r24, 0x03	; 3
     420:	fc 01       	movw	r30, r24
     422:	20 81       	ld	r18, Z
     424:	89 81       	ldd	r24, Y+1	; 0x01
     426:	9a 81       	ldd	r25, Y+2	; 0x02
     428:	03 96       	adiw	r24, 0x03	; 3
     42a:	fc 01       	movw	r30, r24
     42c:	80 81       	ld	r24, Z
     42e:	62 2f       	mov	r22, r18
     430:	bf de       	rcall	.-642    	; 0x1b0 <gmult>
     432:	8f 25       	eor	r24, r15
     434:	f8 01       	movw	r30, r16
     436:	80 83       	st	Z, r24
     438:	8d 81       	ldd	r24, Y+5	; 0x05
     43a:	9e 81       	ldd	r25, Y+6	; 0x06
     43c:	8c 01       	movw	r16, r24
     43e:	0d 5f       	subi	r16, 0xFD	; 253
     440:	1f 4f       	sbci	r17, 0xFF	; 255
     442:	8b 81       	ldd	r24, Y+3	; 0x03
     444:	9c 81       	ldd	r25, Y+4	; 0x04
     446:	fc 01       	movw	r30, r24
     448:	20 81       	ld	r18, Z
     44a:	89 81       	ldd	r24, Y+1	; 0x01
     44c:	9a 81       	ldd	r25, Y+2	; 0x02
     44e:	03 96       	adiw	r24, 0x03	; 3
     450:	fc 01       	movw	r30, r24
     452:	80 81       	ld	r24, Z
     454:	62 2f       	mov	r22, r18
     456:	ac de       	rcall	.-680    	; 0x1b0 <gmult>
     458:	f8 2e       	mov	r15, r24
     45a:	8b 81       	ldd	r24, Y+3	; 0x03
     45c:	9c 81       	ldd	r25, Y+4	; 0x04
     45e:	01 96       	adiw	r24, 0x01	; 1
     460:	fc 01       	movw	r30, r24
     462:	20 81       	ld	r18, Z
     464:	89 81       	ldd	r24, Y+1	; 0x01
     466:	9a 81       	ldd	r25, Y+2	; 0x02
     468:	02 96       	adiw	r24, 0x02	; 2
     46a:	fc 01       	movw	r30, r24
     46c:	80 81       	ld	r24, Z
     46e:	62 2f       	mov	r22, r18
     470:	9f de       	rcall	.-706    	; 0x1b0 <gmult>
     472:	f8 26       	eor	r15, r24
     474:	8b 81       	ldd	r24, Y+3	; 0x03
     476:	9c 81       	ldd	r25, Y+4	; 0x04
     478:	02 96       	adiw	r24, 0x02	; 2
     47a:	fc 01       	movw	r30, r24
     47c:	20 81       	ld	r18, Z
     47e:	89 81       	ldd	r24, Y+1	; 0x01
     480:	9a 81       	ldd	r25, Y+2	; 0x02
     482:	01 96       	adiw	r24, 0x01	; 1
     484:	fc 01       	movw	r30, r24
     486:	80 81       	ld	r24, Z
     488:	62 2f       	mov	r22, r18
     48a:	92 de       	rcall	.-732    	; 0x1b0 <gmult>
     48c:	f8 26       	eor	r15, r24
     48e:	8b 81       	ldd	r24, Y+3	; 0x03
     490:	9c 81       	ldd	r25, Y+4	; 0x04
     492:	03 96       	adiw	r24, 0x03	; 3
     494:	fc 01       	movw	r30, r24
     496:	20 81       	ld	r18, Z
     498:	89 81       	ldd	r24, Y+1	; 0x01
     49a:	9a 81       	ldd	r25, Y+2	; 0x02
     49c:	fc 01       	movw	r30, r24
     49e:	80 81       	ld	r24, Z
     4a0:	62 2f       	mov	r22, r18
     4a2:	86 de       	rcall	.-756    	; 0x1b0 <gmult>
     4a4:	8f 25       	eor	r24, r15
     4a6:	f8 01       	movw	r30, r16
     4a8:	80 83       	st	Z, r24
     4aa:	00 00       	nop
     4ac:	26 96       	adiw	r28, 0x06	; 6
     4ae:	cd bf       	out	0x3d, r28	; 61
     4b0:	de bf       	out	0x3e, r29	; 62
     4b2:	df 91       	pop	r29
     4b4:	cf 91       	pop	r28
     4b6:	1f 91       	pop	r17
     4b8:	0f 91       	pop	r16
     4ba:	ff 90       	pop	r15
     4bc:	08 95       	ret

000004be <Rcon>:
     4be:	cf 93       	push	r28
     4c0:	df 93       	push	r29
     4c2:	1f 92       	push	r1
     4c4:	cd b7       	in	r28, 0x3d	; 61
     4c6:	de b7       	in	r29, 0x3e	; 62
     4c8:	89 83       	std	Y+1, r24	; 0x01
     4ca:	89 81       	ldd	r24, Y+1	; 0x01
     4cc:	81 30       	cpi	r24, 0x01	; 1
     4ce:	21 f4       	brne	.+8      	; 0x4d8 <Rcon+0x1a>
     4d0:	81 e0       	ldi	r24, 0x01	; 1
     4d2:	80 93 08 21 	sts	0x2108, r24	; 0x802108 <R>
     4d6:	1a c0       	rjmp	.+52     	; 0x50c <Rcon+0x4e>
     4d8:	89 81       	ldd	r24, Y+1	; 0x01
     4da:	82 30       	cpi	r24, 0x02	; 2
     4dc:	b8 f0       	brcs	.+46     	; 0x50c <Rcon+0x4e>
     4de:	82 e0       	ldi	r24, 0x02	; 2
     4e0:	80 93 08 21 	sts	0x2108, r24	; 0x802108 <R>
     4e4:	89 81       	ldd	r24, Y+1	; 0x01
     4e6:	81 50       	subi	r24, 0x01	; 1
     4e8:	89 83       	std	Y+1, r24	; 0x01
     4ea:	09 c0       	rjmp	.+18     	; 0x4fe <Rcon+0x40>
     4ec:	80 91 08 21 	lds	r24, 0x2108	; 0x802108 <R>
     4f0:	62 e0       	ldi	r22, 0x02	; 2
     4f2:	5e de       	rcall	.-836    	; 0x1b0 <gmult>
     4f4:	80 93 08 21 	sts	0x2108, r24	; 0x802108 <R>
     4f8:	89 81       	ldd	r24, Y+1	; 0x01
     4fa:	81 50       	subi	r24, 0x01	; 1
     4fc:	89 83       	std	Y+1, r24	; 0x01
     4fe:	89 81       	ldd	r24, Y+1	; 0x01
     500:	88 2f       	mov	r24, r24
     502:	90 e0       	ldi	r25, 0x00	; 0
     504:	01 97       	sbiw	r24, 0x01	; 1
     506:	18 16       	cp	r1, r24
     508:	19 06       	cpc	r1, r25
     50a:	84 f3       	brlt	.-32     	; 0x4ec <Rcon+0x2e>
     50c:	88 e0       	ldi	r24, 0x08	; 8
     50e:	91 e2       	ldi	r25, 0x21	; 33
     510:	0f 90       	pop	r0
     512:	df 91       	pop	r29
     514:	cf 91       	pop	r28
     516:	08 95       	ret

00000518 <add_round_key>:
     518:	cf 93       	push	r28
     51a:	df 93       	push	r29
     51c:	00 d0       	rcall	.+0      	; 0x51e <add_round_key+0x6>
     51e:	00 d0       	rcall	.+0      	; 0x520 <add_round_key+0x8>
     520:	cd b7       	in	r28, 0x3d	; 61
     522:	de b7       	in	r29, 0x3e	; 62
     524:	8a 83       	std	Y+2, r24	; 0x02
     526:	9b 83       	std	Y+3, r25	; 0x03
     528:	6c 83       	std	Y+4, r22	; 0x04
     52a:	7d 83       	std	Y+5, r23	; 0x05
     52c:	4e 83       	std	Y+6, r20	; 0x06
     52e:	19 82       	std	Y+1, r1	; 0x01
     530:	18 c1       	rjmp	.+560    	; 0x762 <add_round_key+0x24a>
     532:	89 81       	ldd	r24, Y+1	; 0x01
     534:	88 2f       	mov	r24, r24
     536:	90 e0       	ldi	r25, 0x00	; 0
     538:	2a 81       	ldd	r18, Y+2	; 0x02
     53a:	3b 81       	ldd	r19, Y+3	; 0x03
     53c:	82 0f       	add	r24, r18
     53e:	93 1f       	adc	r25, r19
     540:	29 81       	ldd	r18, Y+1	; 0x01
     542:	22 2f       	mov	r18, r18
     544:	30 e0       	ldi	r19, 0x00	; 0
     546:	4a 81       	ldd	r20, Y+2	; 0x02
     548:	5b 81       	ldd	r21, Y+3	; 0x03
     54a:	24 0f       	add	r18, r20
     54c:	35 1f       	adc	r19, r21
     54e:	d9 01       	movw	r26, r18
     550:	ec 91       	ld	r30, X
     552:	20 91 06 20 	lds	r18, 0x2006	; 0x802006 <Nb>
     556:	30 91 07 20 	lds	r19, 0x2007	; 0x802007 <Nb+0x1>
     55a:	b9 01       	movw	r22, r18
     55c:	66 0f       	add	r22, r22
     55e:	77 1f       	adc	r23, r23
     560:	66 0f       	add	r22, r22
     562:	77 1f       	adc	r23, r23
     564:	2e 81       	ldd	r18, Y+6	; 0x06
     566:	22 2f       	mov	r18, r18
     568:	30 e0       	ldi	r19, 0x00	; 0
     56a:	62 9f       	mul	r22, r18
     56c:	a0 01       	movw	r20, r0
     56e:	63 9f       	mul	r22, r19
     570:	50 0d       	add	r21, r0
     572:	72 9f       	mul	r23, r18
     574:	50 0d       	add	r21, r0
     576:	11 24       	eor	r1, r1
     578:	29 81       	ldd	r18, Y+1	; 0x01
     57a:	22 2f       	mov	r18, r18
     57c:	30 e0       	ldi	r19, 0x00	; 0
     57e:	22 0f       	add	r18, r18
     580:	33 1f       	adc	r19, r19
     582:	22 0f       	add	r18, r18
     584:	33 1f       	adc	r19, r19
     586:	24 0f       	add	r18, r20
     588:	35 1f       	adc	r19, r21
     58a:	a9 01       	movw	r20, r18
     58c:	2c 81       	ldd	r18, Y+4	; 0x04
     58e:	3d 81       	ldd	r19, Y+5	; 0x05
     590:	24 0f       	add	r18, r20
     592:	35 1f       	adc	r19, r21
     594:	d9 01       	movw	r26, r18
     596:	2c 91       	ld	r18, X
     598:	2e 27       	eor	r18, r30
     59a:	fc 01       	movw	r30, r24
     59c:	20 83       	st	Z, r18
     59e:	89 81       	ldd	r24, Y+1	; 0x01
     5a0:	28 2f       	mov	r18, r24
     5a2:	30 e0       	ldi	r19, 0x00	; 0
     5a4:	80 91 06 20 	lds	r24, 0x2006	; 0x802006 <Nb>
     5a8:	90 91 07 20 	lds	r25, 0x2007	; 0x802007 <Nb+0x1>
     5ac:	82 0f       	add	r24, r18
     5ae:	93 1f       	adc	r25, r19
     5b0:	9c 01       	movw	r18, r24
     5b2:	8a 81       	ldd	r24, Y+2	; 0x02
     5b4:	9b 81       	ldd	r25, Y+3	; 0x03
     5b6:	82 0f       	add	r24, r18
     5b8:	93 1f       	adc	r25, r19
     5ba:	29 81       	ldd	r18, Y+1	; 0x01
     5bc:	42 2f       	mov	r20, r18
     5be:	50 e0       	ldi	r21, 0x00	; 0
     5c0:	20 91 06 20 	lds	r18, 0x2006	; 0x802006 <Nb>
     5c4:	30 91 07 20 	lds	r19, 0x2007	; 0x802007 <Nb+0x1>
     5c8:	24 0f       	add	r18, r20
     5ca:	35 1f       	adc	r19, r21
     5cc:	a9 01       	movw	r20, r18
     5ce:	2a 81       	ldd	r18, Y+2	; 0x02
     5d0:	3b 81       	ldd	r19, Y+3	; 0x03
     5d2:	24 0f       	add	r18, r20
     5d4:	35 1f       	adc	r19, r21
     5d6:	d9 01       	movw	r26, r18
     5d8:	ec 91       	ld	r30, X
     5da:	20 91 06 20 	lds	r18, 0x2006	; 0x802006 <Nb>
     5de:	30 91 07 20 	lds	r19, 0x2007	; 0x802007 <Nb+0x1>
     5e2:	b9 01       	movw	r22, r18
     5e4:	66 0f       	add	r22, r22
     5e6:	77 1f       	adc	r23, r23
     5e8:	66 0f       	add	r22, r22
     5ea:	77 1f       	adc	r23, r23
     5ec:	2e 81       	ldd	r18, Y+6	; 0x06
     5ee:	22 2f       	mov	r18, r18
     5f0:	30 e0       	ldi	r19, 0x00	; 0
     5f2:	62 9f       	mul	r22, r18
     5f4:	a0 01       	movw	r20, r0
     5f6:	63 9f       	mul	r22, r19
     5f8:	50 0d       	add	r21, r0
     5fa:	72 9f       	mul	r23, r18
     5fc:	50 0d       	add	r21, r0
     5fe:	11 24       	eor	r1, r1
     600:	29 81       	ldd	r18, Y+1	; 0x01
     602:	22 2f       	mov	r18, r18
     604:	30 e0       	ldi	r19, 0x00	; 0
     606:	22 0f       	add	r18, r18
     608:	33 1f       	adc	r19, r19
     60a:	22 0f       	add	r18, r18
     60c:	33 1f       	adc	r19, r19
     60e:	24 0f       	add	r18, r20
     610:	35 1f       	adc	r19, r21
     612:	2f 5f       	subi	r18, 0xFF	; 255
     614:	3f 4f       	sbci	r19, 0xFF	; 255
     616:	4c 81       	ldd	r20, Y+4	; 0x04
     618:	5d 81       	ldd	r21, Y+5	; 0x05
     61a:	24 0f       	add	r18, r20
     61c:	35 1f       	adc	r19, r21
     61e:	d9 01       	movw	r26, r18
     620:	2c 91       	ld	r18, X
     622:	2e 27       	eor	r18, r30
     624:	fc 01       	movw	r30, r24
     626:	20 83       	st	Z, r18
     628:	80 91 06 20 	lds	r24, 0x2006	; 0x802006 <Nb>
     62c:	90 91 07 20 	lds	r25, 0x2007	; 0x802007 <Nb+0x1>
     630:	9c 01       	movw	r18, r24
     632:	22 0f       	add	r18, r18
     634:	33 1f       	adc	r19, r19
     636:	89 81       	ldd	r24, Y+1	; 0x01
     638:	88 2f       	mov	r24, r24
     63a:	90 e0       	ldi	r25, 0x00	; 0
     63c:	82 0f       	add	r24, r18
     63e:	93 1f       	adc	r25, r19
     640:	9c 01       	movw	r18, r24
     642:	8a 81       	ldd	r24, Y+2	; 0x02
     644:	9b 81       	ldd	r25, Y+3	; 0x03
     646:	82 0f       	add	r24, r18
     648:	93 1f       	adc	r25, r19
     64a:	20 91 06 20 	lds	r18, 0x2006	; 0x802006 <Nb>
     64e:	30 91 07 20 	lds	r19, 0x2007	; 0x802007 <Nb+0x1>
     652:	a9 01       	movw	r20, r18
     654:	44 0f       	add	r20, r20
     656:	55 1f       	adc	r21, r21
     658:	29 81       	ldd	r18, Y+1	; 0x01
     65a:	22 2f       	mov	r18, r18
     65c:	30 e0       	ldi	r19, 0x00	; 0
     65e:	24 0f       	add	r18, r20
     660:	35 1f       	adc	r19, r21
     662:	a9 01       	movw	r20, r18
     664:	2a 81       	ldd	r18, Y+2	; 0x02
     666:	3b 81       	ldd	r19, Y+3	; 0x03
     668:	24 0f       	add	r18, r20
     66a:	35 1f       	adc	r19, r21
     66c:	d9 01       	movw	r26, r18
     66e:	ec 91       	ld	r30, X
     670:	20 91 06 20 	lds	r18, 0x2006	; 0x802006 <Nb>
     674:	30 91 07 20 	lds	r19, 0x2007	; 0x802007 <Nb+0x1>
     678:	b9 01       	movw	r22, r18
     67a:	66 0f       	add	r22, r22
     67c:	77 1f       	adc	r23, r23
     67e:	66 0f       	add	r22, r22
     680:	77 1f       	adc	r23, r23
     682:	2e 81       	ldd	r18, Y+6	; 0x06
     684:	22 2f       	mov	r18, r18
     686:	30 e0       	ldi	r19, 0x00	; 0
     688:	62 9f       	mul	r22, r18
     68a:	a0 01       	movw	r20, r0
     68c:	63 9f       	mul	r22, r19
     68e:	50 0d       	add	r21, r0
     690:	72 9f       	mul	r23, r18
     692:	50 0d       	add	r21, r0
     694:	11 24       	eor	r1, r1
     696:	29 81       	ldd	r18, Y+1	; 0x01
     698:	22 2f       	mov	r18, r18
     69a:	30 e0       	ldi	r19, 0x00	; 0
     69c:	22 0f       	add	r18, r18
     69e:	33 1f       	adc	r19, r19
     6a0:	22 0f       	add	r18, r18
     6a2:	33 1f       	adc	r19, r19
     6a4:	24 0f       	add	r18, r20
     6a6:	35 1f       	adc	r19, r21
     6a8:	2e 5f       	subi	r18, 0xFE	; 254
     6aa:	3f 4f       	sbci	r19, 0xFF	; 255
     6ac:	4c 81       	ldd	r20, Y+4	; 0x04
     6ae:	5d 81       	ldd	r21, Y+5	; 0x05
     6b0:	24 0f       	add	r18, r20
     6b2:	35 1f       	adc	r19, r21
     6b4:	d9 01       	movw	r26, r18
     6b6:	2c 91       	ld	r18, X
     6b8:	2e 27       	eor	r18, r30
     6ba:	fc 01       	movw	r30, r24
     6bc:	20 83       	st	Z, r18
     6be:	20 91 06 20 	lds	r18, 0x2006	; 0x802006 <Nb>
     6c2:	30 91 07 20 	lds	r19, 0x2007	; 0x802007 <Nb+0x1>
     6c6:	c9 01       	movw	r24, r18
     6c8:	88 0f       	add	r24, r24
     6ca:	99 1f       	adc	r25, r25
     6cc:	28 0f       	add	r18, r24
     6ce:	39 1f       	adc	r19, r25
     6d0:	89 81       	ldd	r24, Y+1	; 0x01
     6d2:	88 2f       	mov	r24, r24
     6d4:	90 e0       	ldi	r25, 0x00	; 0
     6d6:	82 0f       	add	r24, r18
     6d8:	93 1f       	adc	r25, r19
     6da:	9c 01       	movw	r18, r24
     6dc:	8a 81       	ldd	r24, Y+2	; 0x02
     6de:	9b 81       	ldd	r25, Y+3	; 0x03
     6e0:	ac 01       	movw	r20, r24
     6e2:	42 0f       	add	r20, r18
     6e4:	53 1f       	adc	r21, r19
     6e6:	20 91 06 20 	lds	r18, 0x2006	; 0x802006 <Nb>
     6ea:	30 91 07 20 	lds	r19, 0x2007	; 0x802007 <Nb+0x1>
     6ee:	c9 01       	movw	r24, r18
     6f0:	88 0f       	add	r24, r24
     6f2:	99 1f       	adc	r25, r25
     6f4:	28 0f       	add	r18, r24
     6f6:	39 1f       	adc	r19, r25
     6f8:	89 81       	ldd	r24, Y+1	; 0x01
     6fa:	88 2f       	mov	r24, r24
     6fc:	90 e0       	ldi	r25, 0x00	; 0
     6fe:	82 0f       	add	r24, r18
     700:	93 1f       	adc	r25, r19
     702:	9c 01       	movw	r18, r24
     704:	8a 81       	ldd	r24, Y+2	; 0x02
     706:	9b 81       	ldd	r25, Y+3	; 0x03
     708:	82 0f       	add	r24, r18
     70a:	93 1f       	adc	r25, r19
     70c:	dc 01       	movw	r26, r24
     70e:	ec 91       	ld	r30, X
     710:	80 91 06 20 	lds	r24, 0x2006	; 0x802006 <Nb>
     714:	90 91 07 20 	lds	r25, 0x2007	; 0x802007 <Nb+0x1>
     718:	bc 01       	movw	r22, r24
     71a:	66 0f       	add	r22, r22
     71c:	77 1f       	adc	r23, r23
     71e:	66 0f       	add	r22, r22
     720:	77 1f       	adc	r23, r23
     722:	8e 81       	ldd	r24, Y+6	; 0x06
     724:	88 2f       	mov	r24, r24
     726:	90 e0       	ldi	r25, 0x00	; 0
     728:	68 9f       	mul	r22, r24
     72a:	90 01       	movw	r18, r0
     72c:	69 9f       	mul	r22, r25
     72e:	30 0d       	add	r19, r0
     730:	78 9f       	mul	r23, r24
     732:	30 0d       	add	r19, r0
     734:	11 24       	eor	r1, r1
     736:	89 81       	ldd	r24, Y+1	; 0x01
     738:	88 2f       	mov	r24, r24
     73a:	90 e0       	ldi	r25, 0x00	; 0
     73c:	88 0f       	add	r24, r24
     73e:	99 1f       	adc	r25, r25
     740:	88 0f       	add	r24, r24
     742:	99 1f       	adc	r25, r25
     744:	82 0f       	add	r24, r18
     746:	93 1f       	adc	r25, r19
     748:	03 96       	adiw	r24, 0x03	; 3
     74a:	2c 81       	ldd	r18, Y+4	; 0x04
     74c:	3d 81       	ldd	r19, Y+5	; 0x05
     74e:	82 0f       	add	r24, r18
     750:	93 1f       	adc	r25, r19
     752:	dc 01       	movw	r26, r24
     754:	8c 91       	ld	r24, X
     756:	8e 27       	eor	r24, r30
     758:	fa 01       	movw	r30, r20
     75a:	80 83       	st	Z, r24
     75c:	89 81       	ldd	r24, Y+1	; 0x01
     75e:	8f 5f       	subi	r24, 0xFF	; 255
     760:	89 83       	std	Y+1, r24	; 0x01
     762:	89 81       	ldd	r24, Y+1	; 0x01
     764:	28 2f       	mov	r18, r24
     766:	30 e0       	ldi	r19, 0x00	; 0
     768:	80 91 06 20 	lds	r24, 0x2006	; 0x802006 <Nb>
     76c:	90 91 07 20 	lds	r25, 0x2007	; 0x802007 <Nb+0x1>
     770:	28 17       	cp	r18, r24
     772:	39 07       	cpc	r19, r25
     774:	0c f4       	brge	.+2      	; 0x778 <add_round_key+0x260>
     776:	dd ce       	rjmp	.-582    	; 0x532 <add_round_key+0x1a>
     778:	00 00       	nop
     77a:	26 96       	adiw	r28, 0x06	; 6
     77c:	cd bf       	out	0x3d, r28	; 61
     77e:	de bf       	out	0x3e, r29	; 62
     780:	df 91       	pop	r29
     782:	cf 91       	pop	r28
     784:	08 95       	ret

00000786 <mix_columns>:
     786:	cf 93       	push	r28
     788:	df 93       	push	r29
     78a:	cd b7       	in	r28, 0x3d	; 61
     78c:	de b7       	in	r29, 0x3e	; 62
     78e:	60 97       	sbiw	r28, 0x10	; 16
     790:	cd bf       	out	0x3d, r28	; 61
     792:	de bf       	out	0x3e, r29	; 62
     794:	8f 87       	std	Y+15, r24	; 0x0f
     796:	98 8b       	std	Y+16, r25	; 0x10
     798:	82 e0       	ldi	r24, 0x02	; 2
     79a:	8b 83       	std	Y+3, r24	; 0x03
     79c:	81 e0       	ldi	r24, 0x01	; 1
     79e:	8c 83       	std	Y+4, r24	; 0x04
     7a0:	81 e0       	ldi	r24, 0x01	; 1
     7a2:	8d 83       	std	Y+5, r24	; 0x05
     7a4:	83 e0       	ldi	r24, 0x03	; 3
     7a6:	8e 83       	std	Y+6, r24	; 0x06
     7a8:	1a 82       	std	Y+2, r1	; 0x02
     7aa:	65 c0       	rjmp	.+202    	; 0x876 <mix_columns+0xf0>
     7ac:	19 82       	std	Y+1, r1	; 0x01
     7ae:	27 c0       	rjmp	.+78     	; 0x7fe <mix_columns+0x78>
     7b0:	89 81       	ldd	r24, Y+1	; 0x01
     7b2:	88 2f       	mov	r24, r24
     7b4:	90 e0       	ldi	r25, 0x00	; 0
     7b6:	29 81       	ldd	r18, Y+1	; 0x01
     7b8:	62 2f       	mov	r22, r18
     7ba:	70 e0       	ldi	r23, 0x00	; 0
     7bc:	20 91 06 20 	lds	r18, 0x2006	; 0x802006 <Nb>
     7c0:	30 91 07 20 	lds	r19, 0x2007	; 0x802007 <Nb+0x1>
     7c4:	62 9f       	mul	r22, r18
     7c6:	a0 01       	movw	r20, r0
     7c8:	63 9f       	mul	r22, r19
     7ca:	50 0d       	add	r21, r0
     7cc:	72 9f       	mul	r23, r18
     7ce:	50 0d       	add	r21, r0
     7d0:	11 24       	eor	r1, r1
     7d2:	2a 81       	ldd	r18, Y+2	; 0x02
     7d4:	22 2f       	mov	r18, r18
     7d6:	30 e0       	ldi	r19, 0x00	; 0
     7d8:	24 0f       	add	r18, r20
     7da:	35 1f       	adc	r19, r21
     7dc:	a9 01       	movw	r20, r18
     7de:	2f 85       	ldd	r18, Y+15	; 0x0f
     7e0:	38 89       	ldd	r19, Y+16	; 0x10
     7e2:	24 0f       	add	r18, r20
     7e4:	35 1f       	adc	r19, r21
     7e6:	f9 01       	movw	r30, r18
     7e8:	40 81       	ld	r20, Z
     7ea:	9e 01       	movw	r18, r28
     7ec:	29 5f       	subi	r18, 0xF9	; 249
     7ee:	3f 4f       	sbci	r19, 0xFF	; 255
     7f0:	82 0f       	add	r24, r18
     7f2:	93 1f       	adc	r25, r19
     7f4:	fc 01       	movw	r30, r24
     7f6:	40 83       	st	Z, r20
     7f8:	89 81       	ldd	r24, Y+1	; 0x01
     7fa:	8f 5f       	subi	r24, 0xFF	; 255
     7fc:	89 83       	std	Y+1, r24	; 0x01
     7fe:	89 81       	ldd	r24, Y+1	; 0x01
     800:	84 30       	cpi	r24, 0x04	; 4
     802:	b0 f2       	brcs	.-84     	; 0x7b0 <mix_columns+0x2a>
     804:	ae 01       	movw	r20, r28
     806:	45 5f       	subi	r20, 0xF5	; 245
     808:	5f 4f       	sbci	r21, 0xFF	; 255
     80a:	9e 01       	movw	r18, r28
     80c:	29 5f       	subi	r18, 0xF9	; 249
     80e:	3f 4f       	sbci	r19, 0xFF	; 255
     810:	ce 01       	movw	r24, r28
     812:	03 96       	adiw	r24, 0x03	; 3
     814:	b9 01       	movw	r22, r18
     816:	58 dd       	rcall	.-1360   	; 0x2c8 <coef_mult>
     818:	19 82       	std	Y+1, r1	; 0x01
     81a:	27 c0       	rjmp	.+78     	; 0x86a <mix_columns+0xe4>
     81c:	89 81       	ldd	r24, Y+1	; 0x01
     81e:	48 2f       	mov	r20, r24
     820:	50 e0       	ldi	r21, 0x00	; 0
     822:	80 91 06 20 	lds	r24, 0x2006	; 0x802006 <Nb>
     826:	90 91 07 20 	lds	r25, 0x2007	; 0x802007 <Nb+0x1>
     82a:	48 9f       	mul	r20, r24
     82c:	90 01       	movw	r18, r0
     82e:	49 9f       	mul	r20, r25
     830:	30 0d       	add	r19, r0
     832:	58 9f       	mul	r21, r24
     834:	30 0d       	add	r19, r0
     836:	11 24       	eor	r1, r1
     838:	8a 81       	ldd	r24, Y+2	; 0x02
     83a:	88 2f       	mov	r24, r24
     83c:	90 e0       	ldi	r25, 0x00	; 0
     83e:	82 0f       	add	r24, r18
     840:	93 1f       	adc	r25, r19
     842:	9c 01       	movw	r18, r24
     844:	8f 85       	ldd	r24, Y+15	; 0x0f
     846:	98 89       	ldd	r25, Y+16	; 0x10
     848:	82 0f       	add	r24, r18
     84a:	93 1f       	adc	r25, r19
     84c:	29 81       	ldd	r18, Y+1	; 0x01
     84e:	22 2f       	mov	r18, r18
     850:	30 e0       	ldi	r19, 0x00	; 0
     852:	ae 01       	movw	r20, r28
     854:	45 5f       	subi	r20, 0xF5	; 245
     856:	5f 4f       	sbci	r21, 0xFF	; 255
     858:	24 0f       	add	r18, r20
     85a:	35 1f       	adc	r19, r21
     85c:	f9 01       	movw	r30, r18
     85e:	20 81       	ld	r18, Z
     860:	fc 01       	movw	r30, r24
     862:	20 83       	st	Z, r18
     864:	89 81       	ldd	r24, Y+1	; 0x01
     866:	8f 5f       	subi	r24, 0xFF	; 255
     868:	89 83       	std	Y+1, r24	; 0x01
     86a:	89 81       	ldd	r24, Y+1	; 0x01
     86c:	84 30       	cpi	r24, 0x04	; 4
     86e:	b0 f2       	brcs	.-84     	; 0x81c <mix_columns+0x96>
     870:	8a 81       	ldd	r24, Y+2	; 0x02
     872:	8f 5f       	subi	r24, 0xFF	; 255
     874:	8a 83       	std	Y+2, r24	; 0x02
     876:	8a 81       	ldd	r24, Y+2	; 0x02
     878:	28 2f       	mov	r18, r24
     87a:	30 e0       	ldi	r19, 0x00	; 0
     87c:	80 91 06 20 	lds	r24, 0x2006	; 0x802006 <Nb>
     880:	90 91 07 20 	lds	r25, 0x2007	; 0x802007 <Nb+0x1>
     884:	28 17       	cp	r18, r24
     886:	39 07       	cpc	r19, r25
     888:	0c f4       	brge	.+2      	; 0x88c <mix_columns+0x106>
     88a:	90 cf       	rjmp	.-224    	; 0x7ac <mix_columns+0x26>
     88c:	00 00       	nop
     88e:	60 96       	adiw	r28, 0x10	; 16
     890:	cd bf       	out	0x3d, r28	; 61
     892:	de bf       	out	0x3e, r29	; 62
     894:	df 91       	pop	r29
     896:	cf 91       	pop	r28
     898:	08 95       	ret

0000089a <shift_rows>:
     89a:	cf 93       	push	r28
     89c:	df 93       	push	r29
     89e:	00 d0       	rcall	.+0      	; 0x8a0 <shift_rows+0x6>
     8a0:	00 d0       	rcall	.+0      	; 0x8a2 <shift_rows+0x8>
     8a2:	cd b7       	in	r28, 0x3d	; 61
     8a4:	de b7       	in	r29, 0x3e	; 62
     8a6:	8d 83       	std	Y+5, r24	; 0x05
     8a8:	9e 83       	std	Y+6, r25	; 0x06
     8aa:	81 e0       	ldi	r24, 0x01	; 1
     8ac:	89 83       	std	Y+1, r24	; 0x01
     8ae:	82 c0       	rjmp	.+260    	; 0x9b4 <shift_rows+0x11a>
     8b0:	1b 82       	std	Y+3, r1	; 0x03
     8b2:	78 c0       	rjmp	.+240    	; 0x9a4 <shift_rows+0x10a>
     8b4:	89 81       	ldd	r24, Y+1	; 0x01
     8b6:	28 2f       	mov	r18, r24
     8b8:	30 e0       	ldi	r19, 0x00	; 0
     8ba:	80 91 06 20 	lds	r24, 0x2006	; 0x802006 <Nb>
     8be:	90 91 07 20 	lds	r25, 0x2007	; 0x802007 <Nb+0x1>
     8c2:	28 9f       	mul	r18, r24
     8c4:	a0 01       	movw	r20, r0
     8c6:	29 9f       	mul	r18, r25
     8c8:	50 0d       	add	r21, r0
     8ca:	38 9f       	mul	r19, r24
     8cc:	50 0d       	add	r21, r0
     8ce:	11 24       	eor	r1, r1
     8d0:	9a 01       	movw	r18, r20
     8d2:	8d 81       	ldd	r24, Y+5	; 0x05
     8d4:	9e 81       	ldd	r25, Y+6	; 0x06
     8d6:	82 0f       	add	r24, r18
     8d8:	93 1f       	adc	r25, r19
     8da:	fc 01       	movw	r30, r24
     8dc:	80 81       	ld	r24, Z
     8de:	8c 83       	std	Y+4, r24	; 0x04
     8e0:	81 e0       	ldi	r24, 0x01	; 1
     8e2:	8a 83       	std	Y+2, r24	; 0x02
     8e4:	37 c0       	rjmp	.+110    	; 0x954 <shift_rows+0xba>
     8e6:	89 81       	ldd	r24, Y+1	; 0x01
     8e8:	48 2f       	mov	r20, r24
     8ea:	50 e0       	ldi	r21, 0x00	; 0
     8ec:	80 91 06 20 	lds	r24, 0x2006	; 0x802006 <Nb>
     8f0:	90 91 07 20 	lds	r25, 0x2007	; 0x802007 <Nb+0x1>
     8f4:	48 9f       	mul	r20, r24
     8f6:	90 01       	movw	r18, r0
     8f8:	49 9f       	mul	r20, r25
     8fa:	30 0d       	add	r19, r0
     8fc:	58 9f       	mul	r21, r24
     8fe:	30 0d       	add	r19, r0
     900:	11 24       	eor	r1, r1
     902:	8a 81       	ldd	r24, Y+2	; 0x02
     904:	88 2f       	mov	r24, r24
     906:	90 e0       	ldi	r25, 0x00	; 0
     908:	82 0f       	add	r24, r18
     90a:	93 1f       	adc	r25, r19
     90c:	01 97       	sbiw	r24, 0x01	; 1
     90e:	2d 81       	ldd	r18, Y+5	; 0x05
     910:	3e 81       	ldd	r19, Y+6	; 0x06
     912:	82 0f       	add	r24, r18
     914:	93 1f       	adc	r25, r19
     916:	29 81       	ldd	r18, Y+1	; 0x01
     918:	62 2f       	mov	r22, r18
     91a:	70 e0       	ldi	r23, 0x00	; 0
     91c:	20 91 06 20 	lds	r18, 0x2006	; 0x802006 <Nb>
     920:	30 91 07 20 	lds	r19, 0x2007	; 0x802007 <Nb+0x1>
     924:	62 9f       	mul	r22, r18
     926:	a0 01       	movw	r20, r0
     928:	63 9f       	mul	r22, r19
     92a:	50 0d       	add	r21, r0
     92c:	72 9f       	mul	r23, r18
     92e:	50 0d       	add	r21, r0
     930:	11 24       	eor	r1, r1
     932:	2a 81       	ldd	r18, Y+2	; 0x02
     934:	22 2f       	mov	r18, r18
     936:	30 e0       	ldi	r19, 0x00	; 0
     938:	24 0f       	add	r18, r20
     93a:	35 1f       	adc	r19, r21
     93c:	a9 01       	movw	r20, r18
     93e:	2d 81       	ldd	r18, Y+5	; 0x05
     940:	3e 81       	ldd	r19, Y+6	; 0x06
     942:	24 0f       	add	r18, r20
     944:	35 1f       	adc	r19, r21
     946:	f9 01       	movw	r30, r18
     948:	20 81       	ld	r18, Z
     94a:	fc 01       	movw	r30, r24
     94c:	20 83       	st	Z, r18
     94e:	8a 81       	ldd	r24, Y+2	; 0x02
     950:	8f 5f       	subi	r24, 0xFF	; 255
     952:	8a 83       	std	Y+2, r24	; 0x02
     954:	8a 81       	ldd	r24, Y+2	; 0x02
     956:	28 2f       	mov	r18, r24
     958:	30 e0       	ldi	r19, 0x00	; 0
     95a:	80 91 06 20 	lds	r24, 0x2006	; 0x802006 <Nb>
     95e:	90 91 07 20 	lds	r25, 0x2007	; 0x802007 <Nb+0x1>
     962:	28 17       	cp	r18, r24
     964:	39 07       	cpc	r19, r25
     966:	0c f4       	brge	.+2      	; 0x96a <shift_rows+0xd0>
     968:	be cf       	rjmp	.-132    	; 0x8e6 <shift_rows+0x4c>
     96a:	89 81       	ldd	r24, Y+1	; 0x01
     96c:	88 2f       	mov	r24, r24
     96e:	90 e0       	ldi	r25, 0x00	; 0
     970:	9c 01       	movw	r18, r24
     972:	2f 5f       	subi	r18, 0xFF	; 255
     974:	3f 4f       	sbci	r19, 0xFF	; 255
     976:	80 91 06 20 	lds	r24, 0x2006	; 0x802006 <Nb>
     97a:	90 91 07 20 	lds	r25, 0x2007	; 0x802007 <Nb+0x1>
     97e:	28 9f       	mul	r18, r24
     980:	a0 01       	movw	r20, r0
     982:	29 9f       	mul	r18, r25
     984:	50 0d       	add	r21, r0
     986:	38 9f       	mul	r19, r24
     988:	50 0d       	add	r21, r0
     98a:	11 24       	eor	r1, r1
     98c:	ca 01       	movw	r24, r20
     98e:	01 97       	sbiw	r24, 0x01	; 1
     990:	2d 81       	ldd	r18, Y+5	; 0x05
     992:	3e 81       	ldd	r19, Y+6	; 0x06
     994:	82 0f       	add	r24, r18
     996:	93 1f       	adc	r25, r19
     998:	2c 81       	ldd	r18, Y+4	; 0x04
     99a:	fc 01       	movw	r30, r24
     99c:	20 83       	st	Z, r18
     99e:	8b 81       	ldd	r24, Y+3	; 0x03
     9a0:	8f 5f       	subi	r24, 0xFF	; 255
     9a2:	8b 83       	std	Y+3, r24	; 0x03
     9a4:	9b 81       	ldd	r25, Y+3	; 0x03
     9a6:	89 81       	ldd	r24, Y+1	; 0x01
     9a8:	98 17       	cp	r25, r24
     9aa:	08 f4       	brcc	.+2      	; 0x9ae <shift_rows+0x114>
     9ac:	83 cf       	rjmp	.-250    	; 0x8b4 <shift_rows+0x1a>
     9ae:	89 81       	ldd	r24, Y+1	; 0x01
     9b0:	8f 5f       	subi	r24, 0xFF	; 255
     9b2:	89 83       	std	Y+1, r24	; 0x01
     9b4:	89 81       	ldd	r24, Y+1	; 0x01
     9b6:	84 30       	cpi	r24, 0x04	; 4
     9b8:	08 f4       	brcc	.+2      	; 0x9bc <shift_rows+0x122>
     9ba:	7a cf       	rjmp	.-268    	; 0x8b0 <shift_rows+0x16>
     9bc:	00 00       	nop
     9be:	26 96       	adiw	r28, 0x06	; 6
     9c0:	cd bf       	out	0x3d, r28	; 61
     9c2:	de bf       	out	0x3e, r29	; 62
     9c4:	df 91       	pop	r29
     9c6:	cf 91       	pop	r28
     9c8:	08 95       	ret

000009ca <sub_bytes>:
     9ca:	cf 93       	push	r28
     9cc:	df 93       	push	r29
     9ce:	00 d0       	rcall	.+0      	; 0x9d0 <sub_bytes+0x6>
     9d0:	00 d0       	rcall	.+0      	; 0x9d2 <sub_bytes+0x8>
     9d2:	cd b7       	in	r28, 0x3d	; 61
     9d4:	de b7       	in	r29, 0x3e	; 62
     9d6:	8d 83       	std	Y+5, r24	; 0x05
     9d8:	9e 83       	std	Y+6, r25	; 0x06
     9da:	19 82       	std	Y+1, r1	; 0x01
     9dc:	79 c0       	rjmp	.+242    	; 0xad0 <sub_bytes+0x106>
     9de:	1a 82       	std	Y+2, r1	; 0x02
     9e0:	69 c0       	rjmp	.+210    	; 0xab4 <sub_bytes+0xea>
     9e2:	89 81       	ldd	r24, Y+1	; 0x01
     9e4:	48 2f       	mov	r20, r24
     9e6:	50 e0       	ldi	r21, 0x00	; 0
     9e8:	80 91 06 20 	lds	r24, 0x2006	; 0x802006 <Nb>
     9ec:	90 91 07 20 	lds	r25, 0x2007	; 0x802007 <Nb+0x1>
     9f0:	48 9f       	mul	r20, r24
     9f2:	90 01       	movw	r18, r0
     9f4:	49 9f       	mul	r20, r25
     9f6:	30 0d       	add	r19, r0
     9f8:	58 9f       	mul	r21, r24
     9fa:	30 0d       	add	r19, r0
     9fc:	11 24       	eor	r1, r1
     9fe:	8a 81       	ldd	r24, Y+2	; 0x02
     a00:	88 2f       	mov	r24, r24
     a02:	90 e0       	ldi	r25, 0x00	; 0
     a04:	82 0f       	add	r24, r18
     a06:	93 1f       	adc	r25, r19
     a08:	9c 01       	movw	r18, r24
     a0a:	8d 81       	ldd	r24, Y+5	; 0x05
     a0c:	9e 81       	ldd	r25, Y+6	; 0x06
     a0e:	82 0f       	add	r24, r18
     a10:	93 1f       	adc	r25, r19
     a12:	fc 01       	movw	r30, r24
     a14:	80 81       	ld	r24, Z
     a16:	82 95       	swap	r24
     a18:	8f 70       	andi	r24, 0x0F	; 15
     a1a:	8b 83       	std	Y+3, r24	; 0x03
     a1c:	89 81       	ldd	r24, Y+1	; 0x01
     a1e:	48 2f       	mov	r20, r24
     a20:	50 e0       	ldi	r21, 0x00	; 0
     a22:	80 91 06 20 	lds	r24, 0x2006	; 0x802006 <Nb>
     a26:	90 91 07 20 	lds	r25, 0x2007	; 0x802007 <Nb+0x1>
     a2a:	48 9f       	mul	r20, r24
     a2c:	90 01       	movw	r18, r0
     a2e:	49 9f       	mul	r20, r25
     a30:	30 0d       	add	r19, r0
     a32:	58 9f       	mul	r21, r24
     a34:	30 0d       	add	r19, r0
     a36:	11 24       	eor	r1, r1
     a38:	8a 81       	ldd	r24, Y+2	; 0x02
     a3a:	88 2f       	mov	r24, r24
     a3c:	90 e0       	ldi	r25, 0x00	; 0
     a3e:	82 0f       	add	r24, r18
     a40:	93 1f       	adc	r25, r19
     a42:	9c 01       	movw	r18, r24
     a44:	8d 81       	ldd	r24, Y+5	; 0x05
     a46:	9e 81       	ldd	r25, Y+6	; 0x06
     a48:	82 0f       	add	r24, r18
     a4a:	93 1f       	adc	r25, r19
     a4c:	fc 01       	movw	r30, r24
     a4e:	80 81       	ld	r24, Z
     a50:	8f 70       	andi	r24, 0x0F	; 15
     a52:	8c 83       	std	Y+4, r24	; 0x04
     a54:	89 81       	ldd	r24, Y+1	; 0x01
     a56:	48 2f       	mov	r20, r24
     a58:	50 e0       	ldi	r21, 0x00	; 0
     a5a:	80 91 06 20 	lds	r24, 0x2006	; 0x802006 <Nb>
     a5e:	90 91 07 20 	lds	r25, 0x2007	; 0x802007 <Nb+0x1>
     a62:	48 9f       	mul	r20, r24
     a64:	90 01       	movw	r18, r0
     a66:	49 9f       	mul	r20, r25
     a68:	30 0d       	add	r19, r0
     a6a:	58 9f       	mul	r21, r24
     a6c:	30 0d       	add	r19, r0
     a6e:	11 24       	eor	r1, r1
     a70:	8a 81       	ldd	r24, Y+2	; 0x02
     a72:	88 2f       	mov	r24, r24
     a74:	90 e0       	ldi	r25, 0x00	; 0
     a76:	82 0f       	add	r24, r18
     a78:	93 1f       	adc	r25, r19
     a7a:	9c 01       	movw	r18, r24
     a7c:	8d 81       	ldd	r24, Y+5	; 0x05
     a7e:	9e 81       	ldd	r25, Y+6	; 0x06
     a80:	82 0f       	add	r24, r18
     a82:	93 1f       	adc	r25, r19
     a84:	2b 81       	ldd	r18, Y+3	; 0x03
     a86:	22 2f       	mov	r18, r18
     a88:	30 e0       	ldi	r19, 0x00	; 0
     a8a:	a9 01       	movw	r20, r18
     a8c:	42 95       	swap	r20
     a8e:	52 95       	swap	r21
     a90:	50 7f       	andi	r21, 0xF0	; 240
     a92:	54 27       	eor	r21, r20
     a94:	40 7f       	andi	r20, 0xF0	; 240
     a96:	54 27       	eor	r21, r20
     a98:	2c 81       	ldd	r18, Y+4	; 0x04
     a9a:	22 2f       	mov	r18, r18
     a9c:	30 e0       	ldi	r19, 0x00	; 0
     a9e:	24 0f       	add	r18, r20
     aa0:	35 1f       	adc	r19, r21
     aa2:	28 5f       	subi	r18, 0xF8	; 248
     aa4:	3f 4d       	sbci	r19, 0xDF	; 223
     aa6:	f9 01       	movw	r30, r18
     aa8:	20 81       	ld	r18, Z
     aaa:	fc 01       	movw	r30, r24
     aac:	20 83       	st	Z, r18
     aae:	8a 81       	ldd	r24, Y+2	; 0x02
     ab0:	8f 5f       	subi	r24, 0xFF	; 255
     ab2:	8a 83       	std	Y+2, r24	; 0x02
     ab4:	8a 81       	ldd	r24, Y+2	; 0x02
     ab6:	28 2f       	mov	r18, r24
     ab8:	30 e0       	ldi	r19, 0x00	; 0
     aba:	80 91 06 20 	lds	r24, 0x2006	; 0x802006 <Nb>
     abe:	90 91 07 20 	lds	r25, 0x2007	; 0x802007 <Nb+0x1>
     ac2:	28 17       	cp	r18, r24
     ac4:	39 07       	cpc	r19, r25
     ac6:	0c f4       	brge	.+2      	; 0xaca <sub_bytes+0x100>
     ac8:	8c cf       	rjmp	.-232    	; 0x9e2 <sub_bytes+0x18>
     aca:	89 81       	ldd	r24, Y+1	; 0x01
     acc:	8f 5f       	subi	r24, 0xFF	; 255
     ace:	89 83       	std	Y+1, r24	; 0x01
     ad0:	89 81       	ldd	r24, Y+1	; 0x01
     ad2:	84 30       	cpi	r24, 0x04	; 4
     ad4:	08 f4       	brcc	.+2      	; 0xad8 <sub_bytes+0x10e>
     ad6:	83 cf       	rjmp	.-250    	; 0x9de <sub_bytes+0x14>
     ad8:	00 00       	nop
     ada:	26 96       	adiw	r28, 0x06	; 6
     adc:	cd bf       	out	0x3d, r28	; 61
     ade:	de bf       	out	0x3e, r29	; 62
     ae0:	df 91       	pop	r29
     ae2:	cf 91       	pop	r28
     ae4:	08 95       	ret

00000ae6 <sub_word>:
/*
 * Function used in the Key Expansion routine that takes a four-byte 
 * input word and applies an S-box to each of the four bytes to 
 * produce an output word.
 */
void sub_word(uint8_t *w) {
     ae6:	cf 93       	push	r28
     ae8:	df 93       	push	r29
     aea:	00 d0       	rcall	.+0      	; 0xaec <sub_word+0x6>
     aec:	cd b7       	in	r28, 0x3d	; 61
     aee:	de b7       	in	r29, 0x3e	; 62
     af0:	8a 83       	std	Y+2, r24	; 0x02
     af2:	9b 83       	std	Y+3, r25	; 0x03

	uint8_t i;

	for (i = 0; i < 4; i++) {
     af4:	19 82       	std	Y+1, r1	; 0x01
     af6:	33 c0       	rjmp	.+102    	; 0xb5e <sub_word+0x78>
		w[i] = s_box[16*((w[i] & 0xf0) >> 4) + (w[i] & 0x0f)];
     af8:	89 81       	ldd	r24, Y+1	; 0x01
     afa:	88 2f       	mov	r24, r24
     afc:	90 e0       	ldi	r25, 0x00	; 0
     afe:	2a 81       	ldd	r18, Y+2	; 0x02
     b00:	3b 81       	ldd	r19, Y+3	; 0x03
     b02:	82 0f       	add	r24, r18
     b04:	93 1f       	adc	r25, r19
     b06:	29 81       	ldd	r18, Y+1	; 0x01
     b08:	22 2f       	mov	r18, r18
     b0a:	30 e0       	ldi	r19, 0x00	; 0
     b0c:	4a 81       	ldd	r20, Y+2	; 0x02
     b0e:	5b 81       	ldd	r21, Y+3	; 0x03
     b10:	24 0f       	add	r18, r20
     b12:	35 1f       	adc	r19, r21
     b14:	f9 01       	movw	r30, r18
     b16:	20 81       	ld	r18, Z
     b18:	22 95       	swap	r18
     b1a:	2f 70       	andi	r18, 0x0F	; 15
     b1c:	22 2f       	mov	r18, r18
     b1e:	30 e0       	ldi	r19, 0x00	; 0
     b20:	a9 01       	movw	r20, r18
     b22:	42 95       	swap	r20
     b24:	52 95       	swap	r21
     b26:	50 7f       	andi	r21, 0xF0	; 240
     b28:	54 27       	eor	r21, r20
     b2a:	40 7f       	andi	r20, 0xF0	; 240
     b2c:	54 27       	eor	r21, r20
     b2e:	29 81       	ldd	r18, Y+1	; 0x01
     b30:	22 2f       	mov	r18, r18
     b32:	30 e0       	ldi	r19, 0x00	; 0
     b34:	6a 81       	ldd	r22, Y+2	; 0x02
     b36:	7b 81       	ldd	r23, Y+3	; 0x03
     b38:	26 0f       	add	r18, r22
     b3a:	37 1f       	adc	r19, r23
     b3c:	f9 01       	movw	r30, r18
     b3e:	20 81       	ld	r18, Z
     b40:	22 2f       	mov	r18, r18
     b42:	30 e0       	ldi	r19, 0x00	; 0
     b44:	2f 70       	andi	r18, 0x0F	; 15
     b46:	33 27       	eor	r19, r19
     b48:	24 0f       	add	r18, r20
     b4a:	35 1f       	adc	r19, r21
     b4c:	28 5f       	subi	r18, 0xF8	; 248
     b4e:	3f 4d       	sbci	r19, 0xDF	; 223
     b50:	f9 01       	movw	r30, r18
     b52:	20 81       	ld	r18, Z
     b54:	fc 01       	movw	r30, r24
     b56:	20 83       	st	Z, r18
 */
void sub_word(uint8_t *w) {

	uint8_t i;

	for (i = 0; i < 4; i++) {
     b58:	89 81       	ldd	r24, Y+1	; 0x01
     b5a:	8f 5f       	subi	r24, 0xFF	; 255
     b5c:	89 83       	std	Y+1, r24	; 0x01
     b5e:	89 81       	ldd	r24, Y+1	; 0x01
     b60:	84 30       	cpi	r24, 0x04	; 4
     b62:	50 f2       	brcs	.-108    	; 0xaf8 <sub_word+0x12>
		w[i] = s_box[16*((w[i] & 0xf0) >> 4) + (w[i] & 0x0f)];
	}
}
     b64:	00 00       	nop
     b66:	23 96       	adiw	r28, 0x03	; 3
     b68:	cd bf       	out	0x3d, r28	; 61
     b6a:	de bf       	out	0x3e, r29	; 62
     b6c:	df 91       	pop	r29
     b6e:	cf 91       	pop	r28
     b70:	08 95       	ret

00000b72 <rot_word>:

/*
 * Function used in the Key Expansion routine that takes a four-byte 
 * word and performs a cyclic permutation. 
 */
void rot_word(uint8_t *w) {
     b72:	cf 93       	push	r28
     b74:	df 93       	push	r29
     b76:	00 d0       	rcall	.+0      	; 0xb78 <rot_word+0x6>
     b78:	1f 92       	push	r1
     b7a:	cd b7       	in	r28, 0x3d	; 61
     b7c:	de b7       	in	r29, 0x3e	; 62
     b7e:	8b 83       	std	Y+3, r24	; 0x03
     b80:	9c 83       	std	Y+4, r25	; 0x04

	uint8_t tmp;
	uint8_t i;

	tmp = w[0];
     b82:	8b 81       	ldd	r24, Y+3	; 0x03
     b84:	9c 81       	ldd	r25, Y+4	; 0x04
     b86:	fc 01       	movw	r30, r24
     b88:	80 81       	ld	r24, Z
     b8a:	8a 83       	std	Y+2, r24	; 0x02

	for (i = 0; i < 3; i++) {
     b8c:	19 82       	std	Y+1, r1	; 0x01
     b8e:	17 c0       	rjmp	.+46     	; 0xbbe <rot_word+0x4c>
		w[i] = w[i+1];
     b90:	89 81       	ldd	r24, Y+1	; 0x01
     b92:	88 2f       	mov	r24, r24
     b94:	90 e0       	ldi	r25, 0x00	; 0
     b96:	2b 81       	ldd	r18, Y+3	; 0x03
     b98:	3c 81       	ldd	r19, Y+4	; 0x04
     b9a:	82 0f       	add	r24, r18
     b9c:	93 1f       	adc	r25, r19
     b9e:	29 81       	ldd	r18, Y+1	; 0x01
     ba0:	22 2f       	mov	r18, r18
     ba2:	30 e0       	ldi	r19, 0x00	; 0
     ba4:	2f 5f       	subi	r18, 0xFF	; 255
     ba6:	3f 4f       	sbci	r19, 0xFF	; 255
     ba8:	4b 81       	ldd	r20, Y+3	; 0x03
     baa:	5c 81       	ldd	r21, Y+4	; 0x04
     bac:	24 0f       	add	r18, r20
     bae:	35 1f       	adc	r19, r21
     bb0:	f9 01       	movw	r30, r18
     bb2:	20 81       	ld	r18, Z
     bb4:	fc 01       	movw	r30, r24
     bb6:	20 83       	st	Z, r18
	uint8_t tmp;
	uint8_t i;

	tmp = w[0];

	for (i = 0; i < 3; i++) {
     bb8:	89 81       	ldd	r24, Y+1	; 0x01
     bba:	8f 5f       	subi	r24, 0xFF	; 255
     bbc:	89 83       	std	Y+1, r24	; 0x01
     bbe:	89 81       	ldd	r24, Y+1	; 0x01
     bc0:	83 30       	cpi	r24, 0x03	; 3
     bc2:	30 f3       	brcs	.-52     	; 0xb90 <rot_word+0x1e>
		w[i] = w[i+1];
	}

	w[3] = tmp;
     bc4:	8b 81       	ldd	r24, Y+3	; 0x03
     bc6:	9c 81       	ldd	r25, Y+4	; 0x04
     bc8:	03 96       	adiw	r24, 0x03	; 3
     bca:	2a 81       	ldd	r18, Y+2	; 0x02
     bcc:	fc 01       	movw	r30, r24
     bce:	20 83       	st	Z, r18
}
     bd0:	00 00       	nop
     bd2:	24 96       	adiw	r28, 0x04	; 4
     bd4:	cd bf       	out	0x3d, r28	; 61
     bd6:	de bf       	out	0x3e, r29	; 62
     bd8:	df 91       	pop	r29
     bda:	cf 91       	pop	r28
     bdc:	08 95       	ret

00000bde <aes_key_expansion>:

/*
 * Key Expansion
 */
void aes_key_expansion(uint8_t *key, uint8_t *w) {
     bde:	cf 93       	push	r28
     be0:	df 93       	push	r29
     be2:	cd b7       	in	r28, 0x3d	; 61
     be4:	de b7       	in	r29, 0x3e	; 62
     be6:	2a 97       	sbiw	r28, 0x0a	; 10
     be8:	cd bf       	out	0x3d, r28	; 61
     bea:	de bf       	out	0x3e, r29	; 62
     bec:	8f 83       	std	Y+7, r24	; 0x07
     bee:	98 87       	std	Y+8, r25	; 0x08
     bf0:	69 87       	std	Y+9, r22	; 0x09
     bf2:	7a 87       	std	Y+10, r23	; 0x0a

	uint8_t tmp[4];
	uint8_t i, j;
	uint8_t len = Nb*(Nr+1);
     bf4:	80 91 58 21 	lds	r24, 0x2158	; 0x802158 <Nr>
     bf8:	90 91 59 21 	lds	r25, 0x2159	; 0x802159 <Nr+0x1>
     bfc:	01 96       	adiw	r24, 0x01	; 1
     bfe:	28 2f       	mov	r18, r24
     c00:	80 91 06 20 	lds	r24, 0x2006	; 0x802006 <Nb>
     c04:	90 91 07 20 	lds	r25, 0x2007	; 0x802007 <Nb+0x1>
     c08:	28 9f       	mul	r18, r24
     c0a:	80 2d       	mov	r24, r0
     c0c:	11 24       	eor	r1, r1
     c0e:	8a 83       	std	Y+2, r24	; 0x02

	for (i = 0; i < Nk; i++) {
     c10:	19 82       	std	Y+1, r1	; 0x01
     c12:	76 c0       	rjmp	.+236    	; 0xd00 <aes_key_expansion+0x122>
		w[4*i+0] = key[4*i+0];
     c14:	89 81       	ldd	r24, Y+1	; 0x01
     c16:	88 2f       	mov	r24, r24
     c18:	90 e0       	ldi	r25, 0x00	; 0
     c1a:	88 0f       	add	r24, r24
     c1c:	99 1f       	adc	r25, r25
     c1e:	88 0f       	add	r24, r24
     c20:	99 1f       	adc	r25, r25
     c22:	9c 01       	movw	r18, r24
     c24:	89 85       	ldd	r24, Y+9	; 0x09
     c26:	9a 85       	ldd	r25, Y+10	; 0x0a
     c28:	82 0f       	add	r24, r18
     c2a:	93 1f       	adc	r25, r19
     c2c:	29 81       	ldd	r18, Y+1	; 0x01
     c2e:	22 2f       	mov	r18, r18
     c30:	30 e0       	ldi	r19, 0x00	; 0
     c32:	22 0f       	add	r18, r18
     c34:	33 1f       	adc	r19, r19
     c36:	22 0f       	add	r18, r18
     c38:	33 1f       	adc	r19, r19
     c3a:	a9 01       	movw	r20, r18
     c3c:	2f 81       	ldd	r18, Y+7	; 0x07
     c3e:	38 85       	ldd	r19, Y+8	; 0x08
     c40:	24 0f       	add	r18, r20
     c42:	35 1f       	adc	r19, r21
     c44:	f9 01       	movw	r30, r18
     c46:	20 81       	ld	r18, Z
     c48:	fc 01       	movw	r30, r24
     c4a:	20 83       	st	Z, r18
		w[4*i+1] = key[4*i+1];
     c4c:	89 81       	ldd	r24, Y+1	; 0x01
     c4e:	88 2f       	mov	r24, r24
     c50:	90 e0       	ldi	r25, 0x00	; 0
     c52:	88 0f       	add	r24, r24
     c54:	99 1f       	adc	r25, r25
     c56:	88 0f       	add	r24, r24
     c58:	99 1f       	adc	r25, r25
     c5a:	01 96       	adiw	r24, 0x01	; 1
     c5c:	29 85       	ldd	r18, Y+9	; 0x09
     c5e:	3a 85       	ldd	r19, Y+10	; 0x0a
     c60:	82 0f       	add	r24, r18
     c62:	93 1f       	adc	r25, r19
     c64:	29 81       	ldd	r18, Y+1	; 0x01
     c66:	22 2f       	mov	r18, r18
     c68:	30 e0       	ldi	r19, 0x00	; 0
     c6a:	22 0f       	add	r18, r18
     c6c:	33 1f       	adc	r19, r19
     c6e:	22 0f       	add	r18, r18
     c70:	33 1f       	adc	r19, r19
     c72:	2f 5f       	subi	r18, 0xFF	; 255
     c74:	3f 4f       	sbci	r19, 0xFF	; 255
     c76:	4f 81       	ldd	r20, Y+7	; 0x07
     c78:	58 85       	ldd	r21, Y+8	; 0x08
     c7a:	24 0f       	add	r18, r20
     c7c:	35 1f       	adc	r19, r21
     c7e:	f9 01       	movw	r30, r18
     c80:	20 81       	ld	r18, Z
     c82:	fc 01       	movw	r30, r24
     c84:	20 83       	st	Z, r18
		w[4*i+2] = key[4*i+2];
     c86:	89 81       	ldd	r24, Y+1	; 0x01
     c88:	88 2f       	mov	r24, r24
     c8a:	90 e0       	ldi	r25, 0x00	; 0
     c8c:	88 0f       	add	r24, r24
     c8e:	99 1f       	adc	r25, r25
     c90:	88 0f       	add	r24, r24
     c92:	99 1f       	adc	r25, r25
     c94:	02 96       	adiw	r24, 0x02	; 2
     c96:	29 85       	ldd	r18, Y+9	; 0x09
     c98:	3a 85       	ldd	r19, Y+10	; 0x0a
     c9a:	82 0f       	add	r24, r18
     c9c:	93 1f       	adc	r25, r19
     c9e:	29 81       	ldd	r18, Y+1	; 0x01
     ca0:	22 2f       	mov	r18, r18
     ca2:	30 e0       	ldi	r19, 0x00	; 0
     ca4:	22 0f       	add	r18, r18
     ca6:	33 1f       	adc	r19, r19
     ca8:	22 0f       	add	r18, r18
     caa:	33 1f       	adc	r19, r19
     cac:	2e 5f       	subi	r18, 0xFE	; 254
     cae:	3f 4f       	sbci	r19, 0xFF	; 255
     cb0:	4f 81       	ldd	r20, Y+7	; 0x07
     cb2:	58 85       	ldd	r21, Y+8	; 0x08
     cb4:	24 0f       	add	r18, r20
     cb6:	35 1f       	adc	r19, r21
     cb8:	f9 01       	movw	r30, r18
     cba:	20 81       	ld	r18, Z
     cbc:	fc 01       	movw	r30, r24
     cbe:	20 83       	st	Z, r18
		w[4*i+3] = key[4*i+3];
     cc0:	89 81       	ldd	r24, Y+1	; 0x01
     cc2:	88 2f       	mov	r24, r24
     cc4:	90 e0       	ldi	r25, 0x00	; 0
     cc6:	88 0f       	add	r24, r24
     cc8:	99 1f       	adc	r25, r25
     cca:	88 0f       	add	r24, r24
     ccc:	99 1f       	adc	r25, r25
     cce:	03 96       	adiw	r24, 0x03	; 3
     cd0:	29 85       	ldd	r18, Y+9	; 0x09
     cd2:	3a 85       	ldd	r19, Y+10	; 0x0a
     cd4:	82 0f       	add	r24, r18
     cd6:	93 1f       	adc	r25, r19
     cd8:	29 81       	ldd	r18, Y+1	; 0x01
     cda:	22 2f       	mov	r18, r18
     cdc:	30 e0       	ldi	r19, 0x00	; 0
     cde:	22 0f       	add	r18, r18
     ce0:	33 1f       	adc	r19, r19
     ce2:	22 0f       	add	r18, r18
     ce4:	33 1f       	adc	r19, r19
     ce6:	2d 5f       	subi	r18, 0xFD	; 253
     ce8:	3f 4f       	sbci	r19, 0xFF	; 255
     cea:	4f 81       	ldd	r20, Y+7	; 0x07
     cec:	58 85       	ldd	r21, Y+8	; 0x08
     cee:	24 0f       	add	r18, r20
     cf0:	35 1f       	adc	r19, r21
     cf2:	f9 01       	movw	r30, r18
     cf4:	20 81       	ld	r18, Z
     cf6:	fc 01       	movw	r30, r24
     cf8:	20 83       	st	Z, r18

	uint8_t tmp[4];
	uint8_t i, j;
	uint8_t len = Nb*(Nr+1);

	for (i = 0; i < Nk; i++) {
     cfa:	89 81       	ldd	r24, Y+1	; 0x01
     cfc:	8f 5f       	subi	r24, 0xFF	; 255
     cfe:	89 83       	std	Y+1, r24	; 0x01
     d00:	89 81       	ldd	r24, Y+1	; 0x01
     d02:	28 2f       	mov	r18, r24
     d04:	30 e0       	ldi	r19, 0x00	; 0
     d06:	80 91 56 21 	lds	r24, 0x2156	; 0x802156 <Nk>
     d0a:	90 91 57 21 	lds	r25, 0x2157	; 0x802157 <Nk+0x1>
     d0e:	28 17       	cp	r18, r24
     d10:	39 07       	cpc	r19, r25
     d12:	0c f4       	brge	.+2      	; 0xd16 <aes_key_expansion+0x138>
     d14:	7f cf       	rjmp	.-258    	; 0xc14 <aes_key_expansion+0x36>
		w[4*i+1] = key[4*i+1];
		w[4*i+2] = key[4*i+2];
		w[4*i+3] = key[4*i+3];
	}

	for (i = Nk; i < len; i++) {
     d16:	80 91 56 21 	lds	r24, 0x2156	; 0x802156 <Nk>
     d1a:	90 91 57 21 	lds	r25, 0x2157	; 0x802157 <Nk+0x1>
     d1e:	89 83       	std	Y+1, r24	; 0x01
     d20:	1a c1       	rjmp	.+564    	; 0xf56 <aes_key_expansion+0x378>
		tmp[0] = w[4*(i-1)+0];
     d22:	89 81       	ldd	r24, Y+1	; 0x01
     d24:	88 2f       	mov	r24, r24
     d26:	90 e0       	ldi	r25, 0x00	; 0
     d28:	01 97       	sbiw	r24, 0x01	; 1
     d2a:	88 0f       	add	r24, r24
     d2c:	99 1f       	adc	r25, r25
     d2e:	88 0f       	add	r24, r24
     d30:	99 1f       	adc	r25, r25
     d32:	9c 01       	movw	r18, r24
     d34:	89 85       	ldd	r24, Y+9	; 0x09
     d36:	9a 85       	ldd	r25, Y+10	; 0x0a
     d38:	82 0f       	add	r24, r18
     d3a:	93 1f       	adc	r25, r19
     d3c:	fc 01       	movw	r30, r24
     d3e:	80 81       	ld	r24, Z
     d40:	8b 83       	std	Y+3, r24	; 0x03
		tmp[1] = w[4*(i-1)+1];
     d42:	89 81       	ldd	r24, Y+1	; 0x01
     d44:	88 2f       	mov	r24, r24
     d46:	90 e0       	ldi	r25, 0x00	; 0
     d48:	01 97       	sbiw	r24, 0x01	; 1
     d4a:	88 0f       	add	r24, r24
     d4c:	99 1f       	adc	r25, r25
     d4e:	88 0f       	add	r24, r24
     d50:	99 1f       	adc	r25, r25
     d52:	01 96       	adiw	r24, 0x01	; 1
     d54:	29 85       	ldd	r18, Y+9	; 0x09
     d56:	3a 85       	ldd	r19, Y+10	; 0x0a
     d58:	82 0f       	add	r24, r18
     d5a:	93 1f       	adc	r25, r19
     d5c:	fc 01       	movw	r30, r24
     d5e:	80 81       	ld	r24, Z
     d60:	8c 83       	std	Y+4, r24	; 0x04
		tmp[2] = w[4*(i-1)+2];
     d62:	89 81       	ldd	r24, Y+1	; 0x01
     d64:	88 2f       	mov	r24, r24
     d66:	90 e0       	ldi	r25, 0x00	; 0
     d68:	01 97       	sbiw	r24, 0x01	; 1
     d6a:	88 0f       	add	r24, r24
     d6c:	99 1f       	adc	r25, r25
     d6e:	88 0f       	add	r24, r24
     d70:	99 1f       	adc	r25, r25
     d72:	02 96       	adiw	r24, 0x02	; 2
     d74:	29 85       	ldd	r18, Y+9	; 0x09
     d76:	3a 85       	ldd	r19, Y+10	; 0x0a
     d78:	82 0f       	add	r24, r18
     d7a:	93 1f       	adc	r25, r19
     d7c:	fc 01       	movw	r30, r24
     d7e:	80 81       	ld	r24, Z
     d80:	8d 83       	std	Y+5, r24	; 0x05
		tmp[3] = w[4*(i-1)+3];
     d82:	89 81       	ldd	r24, Y+1	; 0x01
     d84:	88 2f       	mov	r24, r24
     d86:	90 e0       	ldi	r25, 0x00	; 0
     d88:	01 97       	sbiw	r24, 0x01	; 1
     d8a:	88 0f       	add	r24, r24
     d8c:	99 1f       	adc	r25, r25
     d8e:	88 0f       	add	r24, r24
     d90:	99 1f       	adc	r25, r25
     d92:	03 96       	adiw	r24, 0x03	; 3
     d94:	29 85       	ldd	r18, Y+9	; 0x09
     d96:	3a 85       	ldd	r19, Y+10	; 0x0a
     d98:	82 0f       	add	r24, r18
     d9a:	93 1f       	adc	r25, r19
     d9c:	fc 01       	movw	r30, r24
     d9e:	80 81       	ld	r24, Z
     da0:	8e 83       	std	Y+6, r24	; 0x06

		if (i%Nk == 0) {
     da2:	89 81       	ldd	r24, Y+1	; 0x01
     da4:	88 2f       	mov	r24, r24
     da6:	90 e0       	ldi	r25, 0x00	; 0
     da8:	20 91 56 21 	lds	r18, 0x2156	; 0x802156 <Nk>
     dac:	30 91 57 21 	lds	r19, 0x2157	; 0x802157 <Nk+0x1>
     db0:	b9 01       	movw	r22, r18
     db2:	0e 94 4b 19 	call	0x3296	; 0x3296 <__divmodhi4>
     db6:	89 2b       	or	r24, r25
     db8:	d9 f4       	brne	.+54     	; 0xdf0 <aes_key_expansion+0x212>

			rot_word(tmp);
     dba:	ce 01       	movw	r24, r28
     dbc:	03 96       	adiw	r24, 0x03	; 3
     dbe:	d9 de       	rcall	.-590    	; 0xb72 <rot_word>
			sub_word(tmp);
     dc0:	ce 01       	movw	r24, r28
     dc2:	03 96       	adiw	r24, 0x03	; 3
     dc4:	90 de       	rcall	.-736    	; 0xae6 <sub_word>
			coef_add(tmp, Rcon(i/Nk), tmp);
     dc6:	89 81       	ldd	r24, Y+1	; 0x01
     dc8:	88 2f       	mov	r24, r24
     dca:	90 e0       	ldi	r25, 0x00	; 0
     dcc:	20 91 56 21 	lds	r18, 0x2156	; 0x802156 <Nk>
     dd0:	30 91 57 21 	lds	r19, 0x2157	; 0x802157 <Nk+0x1>
     dd4:	b9 01       	movw	r22, r18
     dd6:	0e 94 4b 19 	call	0x3296	; 0x3296 <__divmodhi4>
     dda:	cb 01       	movw	r24, r22
     ddc:	70 db       	rcall	.-2336   	; 0x4be <Rcon>
     dde:	bc 01       	movw	r22, r24
     de0:	9e 01       	movw	r18, r28
     de2:	2d 5f       	subi	r18, 0xFD	; 253
     de4:	3f 4f       	sbci	r19, 0xFF	; 255
     de6:	ce 01       	movw	r24, r28
     de8:	03 96       	adiw	r24, 0x03	; 3
     dea:	a9 01       	movw	r20, r18
     dec:	17 da       	rcall	.-3026   	; 0x21c <coef_add>
     dee:	15 c0       	rjmp	.+42     	; 0xe1a <aes_key_expansion+0x23c>

		} else if (Nk > 6 && i%Nk == 4) {
     df0:	80 91 56 21 	lds	r24, 0x2156	; 0x802156 <Nk>
     df4:	90 91 57 21 	lds	r25, 0x2157	; 0x802157 <Nk+0x1>
     df8:	07 97       	sbiw	r24, 0x07	; 7
     dfa:	7c f0       	brlt	.+30     	; 0xe1a <aes_key_expansion+0x23c>
     dfc:	89 81       	ldd	r24, Y+1	; 0x01
     dfe:	88 2f       	mov	r24, r24
     e00:	90 e0       	ldi	r25, 0x00	; 0
     e02:	20 91 56 21 	lds	r18, 0x2156	; 0x802156 <Nk>
     e06:	30 91 57 21 	lds	r19, 0x2157	; 0x802157 <Nk+0x1>
     e0a:	b9 01       	movw	r22, r18
     e0c:	0e 94 4b 19 	call	0x3296	; 0x3296 <__divmodhi4>
     e10:	04 97       	sbiw	r24, 0x04	; 4

			sub_word(tmp);
     e12:	19 f4       	brne	.+6      	; 0xe1a <aes_key_expansion+0x23c>
     e14:	ce 01       	movw	r24, r28
     e16:	03 96       	adiw	r24, 0x03	; 3
     e18:	66 de       	rcall	.-820    	; 0xae6 <sub_word>

		}

		w[4*i+0] = w[4*(i-Nk)+0]^tmp[0];
     e1a:	89 81       	ldd	r24, Y+1	; 0x01
     e1c:	88 2f       	mov	r24, r24
     e1e:	90 e0       	ldi	r25, 0x00	; 0
     e20:	88 0f       	add	r24, r24
     e22:	99 1f       	adc	r25, r25
     e24:	88 0f       	add	r24, r24
     e26:	99 1f       	adc	r25, r25
     e28:	9c 01       	movw	r18, r24
     e2a:	89 85       	ldd	r24, Y+9	; 0x09
     e2c:	9a 85       	ldd	r25, Y+10	; 0x0a
     e2e:	82 0f       	add	r24, r18
     e30:	93 1f       	adc	r25, r19
     e32:	29 81       	ldd	r18, Y+1	; 0x01
     e34:	42 2f       	mov	r20, r18
     e36:	50 e0       	ldi	r21, 0x00	; 0
     e38:	20 91 56 21 	lds	r18, 0x2156	; 0x802156 <Nk>
     e3c:	30 91 57 21 	lds	r19, 0x2157	; 0x802157 <Nk+0x1>
     e40:	ba 01       	movw	r22, r20
     e42:	62 1b       	sub	r22, r18
     e44:	73 0b       	sbc	r23, r19
     e46:	9b 01       	movw	r18, r22
     e48:	22 0f       	add	r18, r18
     e4a:	33 1f       	adc	r19, r19
     e4c:	22 0f       	add	r18, r18
     e4e:	33 1f       	adc	r19, r19
     e50:	a9 01       	movw	r20, r18
     e52:	29 85       	ldd	r18, Y+9	; 0x09
     e54:	3a 85       	ldd	r19, Y+10	; 0x0a
     e56:	24 0f       	add	r18, r20
     e58:	35 1f       	adc	r19, r21
     e5a:	f9 01       	movw	r30, r18
     e5c:	30 81       	ld	r19, Z
     e5e:	2b 81       	ldd	r18, Y+3	; 0x03
     e60:	23 27       	eor	r18, r19
     e62:	fc 01       	movw	r30, r24
     e64:	20 83       	st	Z, r18
		w[4*i+1] = w[4*(i-Nk)+1]^tmp[1];
     e66:	89 81       	ldd	r24, Y+1	; 0x01
     e68:	88 2f       	mov	r24, r24
     e6a:	90 e0       	ldi	r25, 0x00	; 0
     e6c:	88 0f       	add	r24, r24
     e6e:	99 1f       	adc	r25, r25
     e70:	88 0f       	add	r24, r24
     e72:	99 1f       	adc	r25, r25
     e74:	01 96       	adiw	r24, 0x01	; 1
     e76:	29 85       	ldd	r18, Y+9	; 0x09
     e78:	3a 85       	ldd	r19, Y+10	; 0x0a
     e7a:	82 0f       	add	r24, r18
     e7c:	93 1f       	adc	r25, r19
     e7e:	29 81       	ldd	r18, Y+1	; 0x01
     e80:	42 2f       	mov	r20, r18
     e82:	50 e0       	ldi	r21, 0x00	; 0
     e84:	20 91 56 21 	lds	r18, 0x2156	; 0x802156 <Nk>
     e88:	30 91 57 21 	lds	r19, 0x2157	; 0x802157 <Nk+0x1>
     e8c:	ba 01       	movw	r22, r20
     e8e:	62 1b       	sub	r22, r18
     e90:	73 0b       	sbc	r23, r19
     e92:	9b 01       	movw	r18, r22
     e94:	22 0f       	add	r18, r18
     e96:	33 1f       	adc	r19, r19
     e98:	22 0f       	add	r18, r18
     e9a:	33 1f       	adc	r19, r19
     e9c:	2f 5f       	subi	r18, 0xFF	; 255
     e9e:	3f 4f       	sbci	r19, 0xFF	; 255
     ea0:	49 85       	ldd	r20, Y+9	; 0x09
     ea2:	5a 85       	ldd	r21, Y+10	; 0x0a
     ea4:	24 0f       	add	r18, r20
     ea6:	35 1f       	adc	r19, r21
     ea8:	f9 01       	movw	r30, r18
     eaa:	30 81       	ld	r19, Z
     eac:	2c 81       	ldd	r18, Y+4	; 0x04
     eae:	23 27       	eor	r18, r19
     eb0:	fc 01       	movw	r30, r24
     eb2:	20 83       	st	Z, r18
		w[4*i+2] = w[4*(i-Nk)+2]^tmp[2];
     eb4:	89 81       	ldd	r24, Y+1	; 0x01
     eb6:	88 2f       	mov	r24, r24
     eb8:	90 e0       	ldi	r25, 0x00	; 0
     eba:	88 0f       	add	r24, r24
     ebc:	99 1f       	adc	r25, r25
     ebe:	88 0f       	add	r24, r24
     ec0:	99 1f       	adc	r25, r25
     ec2:	02 96       	adiw	r24, 0x02	; 2
     ec4:	29 85       	ldd	r18, Y+9	; 0x09
     ec6:	3a 85       	ldd	r19, Y+10	; 0x0a
     ec8:	82 0f       	add	r24, r18
     eca:	93 1f       	adc	r25, r19
     ecc:	29 81       	ldd	r18, Y+1	; 0x01
     ece:	42 2f       	mov	r20, r18
     ed0:	50 e0       	ldi	r21, 0x00	; 0
     ed2:	20 91 56 21 	lds	r18, 0x2156	; 0x802156 <Nk>
     ed6:	30 91 57 21 	lds	r19, 0x2157	; 0x802157 <Nk+0x1>
     eda:	ba 01       	movw	r22, r20
     edc:	62 1b       	sub	r22, r18
     ede:	73 0b       	sbc	r23, r19
     ee0:	9b 01       	movw	r18, r22
     ee2:	22 0f       	add	r18, r18
     ee4:	33 1f       	adc	r19, r19
     ee6:	22 0f       	add	r18, r18
     ee8:	33 1f       	adc	r19, r19
     eea:	2e 5f       	subi	r18, 0xFE	; 254
     eec:	3f 4f       	sbci	r19, 0xFF	; 255
     eee:	49 85       	ldd	r20, Y+9	; 0x09
     ef0:	5a 85       	ldd	r21, Y+10	; 0x0a
     ef2:	24 0f       	add	r18, r20
     ef4:	35 1f       	adc	r19, r21
     ef6:	f9 01       	movw	r30, r18
     ef8:	30 81       	ld	r19, Z
     efa:	2d 81       	ldd	r18, Y+5	; 0x05
     efc:	23 27       	eor	r18, r19
     efe:	fc 01       	movw	r30, r24
     f00:	20 83       	st	Z, r18
		w[4*i+3] = w[4*(i-Nk)+3]^tmp[3];
     f02:	89 81       	ldd	r24, Y+1	; 0x01
     f04:	88 2f       	mov	r24, r24
     f06:	90 e0       	ldi	r25, 0x00	; 0
     f08:	88 0f       	add	r24, r24
     f0a:	99 1f       	adc	r25, r25
     f0c:	88 0f       	add	r24, r24
     f0e:	99 1f       	adc	r25, r25
     f10:	03 96       	adiw	r24, 0x03	; 3
     f12:	29 85       	ldd	r18, Y+9	; 0x09
     f14:	3a 85       	ldd	r19, Y+10	; 0x0a
     f16:	82 0f       	add	r24, r18
     f18:	93 1f       	adc	r25, r19
     f1a:	29 81       	ldd	r18, Y+1	; 0x01
     f1c:	42 2f       	mov	r20, r18
     f1e:	50 e0       	ldi	r21, 0x00	; 0
     f20:	20 91 56 21 	lds	r18, 0x2156	; 0x802156 <Nk>
     f24:	30 91 57 21 	lds	r19, 0x2157	; 0x802157 <Nk+0x1>
     f28:	ba 01       	movw	r22, r20
     f2a:	62 1b       	sub	r22, r18
     f2c:	73 0b       	sbc	r23, r19
     f2e:	9b 01       	movw	r18, r22
     f30:	22 0f       	add	r18, r18
     f32:	33 1f       	adc	r19, r19
     f34:	22 0f       	add	r18, r18
     f36:	33 1f       	adc	r19, r19
     f38:	2d 5f       	subi	r18, 0xFD	; 253
     f3a:	3f 4f       	sbci	r19, 0xFF	; 255
     f3c:	49 85       	ldd	r20, Y+9	; 0x09
     f3e:	5a 85       	ldd	r21, Y+10	; 0x0a
     f40:	24 0f       	add	r18, r20
     f42:	35 1f       	adc	r19, r21
     f44:	f9 01       	movw	r30, r18
     f46:	30 81       	ld	r19, Z
     f48:	2e 81       	ldd	r18, Y+6	; 0x06
     f4a:	23 27       	eor	r18, r19
     f4c:	fc 01       	movw	r30, r24
     f4e:	20 83       	st	Z, r18
		w[4*i+1] = key[4*i+1];
		w[4*i+2] = key[4*i+2];
		w[4*i+3] = key[4*i+3];
	}

	for (i = Nk; i < len; i++) {
     f50:	89 81       	ldd	r24, Y+1	; 0x01
     f52:	8f 5f       	subi	r24, 0xFF	; 255
     f54:	89 83       	std	Y+1, r24	; 0x01
     f56:	99 81       	ldd	r25, Y+1	; 0x01
     f58:	8a 81       	ldd	r24, Y+2	; 0x02
     f5a:	98 17       	cp	r25, r24
     f5c:	08 f4       	brcc	.+2      	; 0xf60 <aes_key_expansion+0x382>
     f5e:	e1 ce       	rjmp	.-574    	; 0xd22 <aes_key_expansion+0x144>
		w[4*i+0] = w[4*(i-Nk)+0]^tmp[0];
		w[4*i+1] = w[4*(i-Nk)+1]^tmp[1];
		w[4*i+2] = w[4*(i-Nk)+2]^tmp[2];
		w[4*i+3] = w[4*(i-Nk)+3]^tmp[3];
	}
}
     f60:	00 00       	nop
     f62:	2a 96       	adiw	r28, 0x0a	; 10
     f64:	cd bf       	out	0x3d, r28	; 61
     f66:	de bf       	out	0x3e, r29	; 62
     f68:	df 91       	pop	r29
     f6a:	cf 91       	pop	r28
     f6c:	08 95       	ret

00000f6e <aes_init>:


/*
 * Initialize AES variables and allocate memory for expanded key
 */
uint8_t *aes_init(size_t key_size) {
     f6e:	cf 93       	push	r28
     f70:	df 93       	push	r29
     f72:	1f 92       	push	r1
     f74:	1f 92       	push	r1
     f76:	cd b7       	in	r28, 0x3d	; 61
     f78:	de b7       	in	r29, 0x3e	; 62
     f7a:	89 83       	std	Y+1, r24	; 0x01
     f7c:	9a 83       	std	Y+2, r25	; 0x02

        switch (key_size) {
     f7e:	89 81       	ldd	r24, Y+1	; 0x01
     f80:	9a 81       	ldd	r25, Y+2	; 0x02
     f82:	88 31       	cpi	r24, 0x18	; 24
     f84:	91 05       	cpc	r25, r1
     f86:	79 f0       	breq	.+30     	; 0xfa6 <aes_init+0x38>
     f88:	80 97       	sbiw	r24, 0x20	; 32
     f8a:	d1 f0       	breq	.+52     	; 0xfc0 <aes_init+0x52>
		default:
		case 16: Nk = 4; Nr = 10; break;
     f8c:	84 e0       	ldi	r24, 0x04	; 4
     f8e:	90 e0       	ldi	r25, 0x00	; 0
     f90:	80 93 56 21 	sts	0x2156, r24	; 0x802156 <Nk>
     f94:	90 93 57 21 	sts	0x2157, r25	; 0x802157 <Nk+0x1>
     f98:	8a e0       	ldi	r24, 0x0A	; 10
     f9a:	90 e0       	ldi	r25, 0x00	; 0
     f9c:	80 93 58 21 	sts	0x2158, r24	; 0x802158 <Nr>
     fa0:	90 93 59 21 	sts	0x2159, r25	; 0x802159 <Nr+0x1>
     fa4:	1a c0       	rjmp	.+52     	; 0xfda <aes_init+0x6c>
		case 24: Nk = 6; Nr = 12; break;
     fa6:	86 e0       	ldi	r24, 0x06	; 6
     fa8:	90 e0       	ldi	r25, 0x00	; 0
     faa:	80 93 56 21 	sts	0x2156, r24	; 0x802156 <Nk>
     fae:	90 93 57 21 	sts	0x2157, r25	; 0x802157 <Nk+0x1>
     fb2:	8c e0       	ldi	r24, 0x0C	; 12
     fb4:	90 e0       	ldi	r25, 0x00	; 0
     fb6:	80 93 58 21 	sts	0x2158, r24	; 0x802158 <Nr>
     fba:	90 93 59 21 	sts	0x2159, r25	; 0x802159 <Nr+0x1>
     fbe:	0d c0       	rjmp	.+26     	; 0xfda <aes_init+0x6c>
		case 32: Nk = 8; Nr = 14; break;
     fc0:	88 e0       	ldi	r24, 0x08	; 8
     fc2:	90 e0       	ldi	r25, 0x00	; 0
     fc4:	80 93 56 21 	sts	0x2156, r24	; 0x802156 <Nk>
     fc8:	90 93 57 21 	sts	0x2157, r25	; 0x802157 <Nk+0x1>
     fcc:	8e e0       	ldi	r24, 0x0E	; 14
     fce:	90 e0       	ldi	r25, 0x00	; 0
     fd0:	80 93 58 21 	sts	0x2158, r24	; 0x802158 <Nr>
     fd4:	90 93 59 21 	sts	0x2159, r25	; 0x802159 <Nr+0x1>
     fd8:	00 00       	nop
	}

	return malloc(Nb*(Nr+1)*4);
     fda:	80 91 58 21 	lds	r24, 0x2158	; 0x802158 <Nr>
     fde:	90 91 59 21 	lds	r25, 0x2159	; 0x802159 <Nr+0x1>
     fe2:	ac 01       	movw	r20, r24
     fe4:	4f 5f       	subi	r20, 0xFF	; 255
     fe6:	5f 4f       	sbci	r21, 0xFF	; 255
     fe8:	20 91 06 20 	lds	r18, 0x2006	; 0x802006 <Nb>
     fec:	30 91 07 20 	lds	r19, 0x2007	; 0x802007 <Nb+0x1>
     ff0:	42 9f       	mul	r20, r18
     ff2:	c0 01       	movw	r24, r0
     ff4:	43 9f       	mul	r20, r19
     ff6:	90 0d       	add	r25, r0
     ff8:	52 9f       	mul	r21, r18
     ffa:	90 0d       	add	r25, r0
     ffc:	11 24       	eor	r1, r1
     ffe:	88 0f       	add	r24, r24
    1000:	99 1f       	adc	r25, r25
    1002:	88 0f       	add	r24, r24
    1004:	99 1f       	adc	r25, r25
    1006:	0e 94 a3 19 	call	0x3346	; 0x3346 <malloc>
}
    100a:	0f 90       	pop	r0
    100c:	0f 90       	pop	r0
    100e:	df 91       	pop	r29
    1010:	cf 91       	pop	r28
    1012:	08 95       	ret

00001014 <aes_cipher>:

/*
 * Performs the AES cipher operation
 */
void aes_cipher(uint8_t *in, uint8_t *out, uint8_t *w) {
    1014:	ef 92       	push	r14
    1016:	ff 92       	push	r15
    1018:	0f 93       	push	r16
    101a:	1f 93       	push	r17
    101c:	cf 93       	push	r28
    101e:	df 93       	push	r29
    1020:	cd b7       	in	r28, 0x3d	; 61
    1022:	de b7       	in	r29, 0x3e	; 62
    1024:	2d 97       	sbiw	r28, 0x0d	; 13
    1026:	cd bf       	out	0x3d, r28	; 61
    1028:	de bf       	out	0x3e, r29	; 62
    102a:	88 87       	std	Y+8, r24	; 0x08
    102c:	99 87       	std	Y+9, r25	; 0x09
    102e:	6a 87       	std	Y+10, r22	; 0x0a
    1030:	7b 87       	std	Y+11, r23	; 0x0b
    1032:	4c 87       	std	Y+12, r20	; 0x0c
    1034:	5d 87       	std	Y+13, r21	; 0x0d
	for (i = 0; i < 4; i++) {
		for (j = 0; j < Nb; j++) {
			out[i+4*j] = state[Nb*i+j];
		}
	}
}
    1036:	0d b7       	in	r16, 0x3d	; 61
    1038:	1e b7       	in	r17, 0x3e	; 62
}

/*
 * Performs the AES cipher operation
 */
void aes_cipher(uint8_t *in, uint8_t *out, uint8_t *w) {
    103a:	8d b7       	in	r24, 0x3d	; 61
    103c:	9e b7       	in	r25, 0x3e	; 62
    103e:	7c 01       	movw	r14, r24

	uint8_t state[4*Nb];
    1040:	80 91 06 20 	lds	r24, 0x2006	; 0x802006 <Nb>
    1044:	90 91 07 20 	lds	r25, 0x2007	; 0x802007 <Nb+0x1>
    1048:	88 0f       	add	r24, r24
    104a:	99 1f       	adc	r25, r25
    104c:	88 0f       	add	r24, r24
    104e:	99 1f       	adc	r25, r25
    1050:	9c 01       	movw	r18, r24
    1052:	21 50       	subi	r18, 0x01	; 1
    1054:	31 09       	sbc	r19, r1
    1056:	2c 83       	std	Y+4, r18	; 0x04
    1058:	3d 83       	std	Y+5, r19	; 0x05
    105a:	2d b7       	in	r18, 0x3d	; 61
    105c:	3e b7       	in	r19, 0x3e	; 62
    105e:	28 1b       	sub	r18, r24
    1060:	39 0b       	sbc	r19, r25
    1062:	2d bf       	out	0x3d, r18	; 61
    1064:	3e bf       	out	0x3e, r19	; 62
    1066:	8d b7       	in	r24, 0x3d	; 61
    1068:	9e b7       	in	r25, 0x3e	; 62
    106a:	01 96       	adiw	r24, 0x01	; 1
    106c:	8e 83       	std	Y+6, r24	; 0x06
    106e:	9f 83       	std	Y+7, r25	; 0x07
	uint8_t r, i, j;

	for (i = 0; i < 4; i++) {
    1070:	1a 82       	std	Y+2, r1	; 0x02
    1072:	3e c0       	rjmp	.+124    	; 0x10f0 <aes_cipher+0xdc>
		for (j = 0; j < Nb; j++) {
    1074:	1b 82       	std	Y+3, r1	; 0x03
    1076:	2f c0       	rjmp	.+94     	; 0x10d6 <aes_cipher+0xc2>
			state[Nb*i+j] = in[i+4*j];
    1078:	8a 81       	ldd	r24, Y+2	; 0x02
    107a:	48 2f       	mov	r20, r24
    107c:	50 e0       	ldi	r21, 0x00	; 0
    107e:	80 91 06 20 	lds	r24, 0x2006	; 0x802006 <Nb>
    1082:	90 91 07 20 	lds	r25, 0x2007	; 0x802007 <Nb+0x1>
    1086:	48 9f       	mul	r20, r24
    1088:	90 01       	movw	r18, r0
    108a:	49 9f       	mul	r20, r25
    108c:	30 0d       	add	r19, r0
    108e:	58 9f       	mul	r21, r24
    1090:	30 0d       	add	r19, r0
    1092:	11 24       	eor	r1, r1
    1094:	8b 81       	ldd	r24, Y+3	; 0x03
    1096:	88 2f       	mov	r24, r24
    1098:	90 e0       	ldi	r25, 0x00	; 0
    109a:	82 0f       	add	r24, r18
    109c:	93 1f       	adc	r25, r19
    109e:	2a 81       	ldd	r18, Y+2	; 0x02
    10a0:	42 2f       	mov	r20, r18
    10a2:	50 e0       	ldi	r21, 0x00	; 0
    10a4:	2b 81       	ldd	r18, Y+3	; 0x03
    10a6:	22 2f       	mov	r18, r18
    10a8:	30 e0       	ldi	r19, 0x00	; 0
    10aa:	22 0f       	add	r18, r18
    10ac:	33 1f       	adc	r19, r19
    10ae:	22 0f       	add	r18, r18
    10b0:	33 1f       	adc	r19, r19
    10b2:	24 0f       	add	r18, r20
    10b4:	35 1f       	adc	r19, r21
    10b6:	a9 01       	movw	r20, r18
    10b8:	28 85       	ldd	r18, Y+8	; 0x08
    10ba:	39 85       	ldd	r19, Y+9	; 0x09
    10bc:	24 0f       	add	r18, r20
    10be:	35 1f       	adc	r19, r21
    10c0:	f9 01       	movw	r30, r18
    10c2:	40 81       	ld	r20, Z
    10c4:	2e 81       	ldd	r18, Y+6	; 0x06
    10c6:	3f 81       	ldd	r19, Y+7	; 0x07
    10c8:	82 0f       	add	r24, r18
    10ca:	93 1f       	adc	r25, r19
    10cc:	fc 01       	movw	r30, r24
    10ce:	40 83       	st	Z, r20

	uint8_t state[4*Nb];
	uint8_t r, i, j;

	for (i = 0; i < 4; i++) {
		for (j = 0; j < Nb; j++) {
    10d0:	8b 81       	ldd	r24, Y+3	; 0x03
    10d2:	8f 5f       	subi	r24, 0xFF	; 255
    10d4:	8b 83       	std	Y+3, r24	; 0x03
    10d6:	8b 81       	ldd	r24, Y+3	; 0x03
    10d8:	28 2f       	mov	r18, r24
    10da:	30 e0       	ldi	r19, 0x00	; 0
    10dc:	80 91 06 20 	lds	r24, 0x2006	; 0x802006 <Nb>
    10e0:	90 91 07 20 	lds	r25, 0x2007	; 0x802007 <Nb+0x1>
    10e4:	28 17       	cp	r18, r24
    10e6:	39 07       	cpc	r19, r25
    10e8:	3c f2       	brlt	.-114    	; 0x1078 <aes_cipher+0x64>
void aes_cipher(uint8_t *in, uint8_t *out, uint8_t *w) {

	uint8_t state[4*Nb];
	uint8_t r, i, j;

	for (i = 0; i < 4; i++) {
    10ea:	8a 81       	ldd	r24, Y+2	; 0x02
    10ec:	8f 5f       	subi	r24, 0xFF	; 255
    10ee:	8a 83       	std	Y+2, r24	; 0x02
    10f0:	8a 81       	ldd	r24, Y+2	; 0x02
    10f2:	84 30       	cpi	r24, 0x04	; 4
    10f4:	08 f4       	brcc	.+2      	; 0x10f8 <aes_cipher+0xe4>
    10f6:	be cf       	rjmp	.-132    	; 0x1074 <aes_cipher+0x60>
		for (j = 0; j < Nb; j++) {
			state[Nb*i+j] = in[i+4*j];
		}
	}

	add_round_key(state, w, 0);
    10f8:	8e 81       	ldd	r24, Y+6	; 0x06
    10fa:	9f 81       	ldd	r25, Y+7	; 0x07
    10fc:	2c 85       	ldd	r18, Y+12	; 0x0c
    10fe:	3d 85       	ldd	r19, Y+13	; 0x0d
    1100:	40 e0       	ldi	r20, 0x00	; 0
    1102:	b9 01       	movw	r22, r18
    1104:	09 da       	rcall	.-3054   	; 0x518 <add_round_key>

	for (r = 1; r < Nr; r++) {
    1106:	81 e0       	ldi	r24, 0x01	; 1
    1108:	89 83       	std	Y+1, r24	; 0x01
    110a:	13 c0       	rjmp	.+38     	; 0x1132 <aes_cipher+0x11e>
		sub_bytes(state);
    110c:	8e 81       	ldd	r24, Y+6	; 0x06
    110e:	9f 81       	ldd	r25, Y+7	; 0x07
    1110:	5c dc       	rcall	.-1864   	; 0x9ca <sub_bytes>
		shift_rows(state);
    1112:	8e 81       	ldd	r24, Y+6	; 0x06
    1114:	9f 81       	ldd	r25, Y+7	; 0x07
    1116:	c1 db       	rcall	.-2174   	; 0x89a <shift_rows>
		mix_columns(state);
    1118:	8e 81       	ldd	r24, Y+6	; 0x06
    111a:	9f 81       	ldd	r25, Y+7	; 0x07
    111c:	34 db       	rcall	.-2456   	; 0x786 <mix_columns>
    111e:	8e 81       	ldd	r24, Y+6	; 0x06
		add_round_key(state, w, r);
    1120:	9f 81       	ldd	r25, Y+7	; 0x07
    1122:	2c 85       	ldd	r18, Y+12	; 0x0c
    1124:	3d 85       	ldd	r19, Y+13	; 0x0d
    1126:	49 81       	ldd	r20, Y+1	; 0x01
    1128:	b9 01       	movw	r22, r18
    112a:	f6 d9       	rcall	.-3092   	; 0x518 <add_round_key>
    112c:	89 81       	ldd	r24, Y+1	; 0x01
		}
	}

	add_round_key(state, w, 0);

	for (r = 1; r < Nr; r++) {
    112e:	8f 5f       	subi	r24, 0xFF	; 255
    1130:	89 83       	std	Y+1, r24	; 0x01
    1132:	89 81       	ldd	r24, Y+1	; 0x01
    1134:	28 2f       	mov	r18, r24
    1136:	30 e0       	ldi	r19, 0x00	; 0
    1138:	80 91 58 21 	lds	r24, 0x2158	; 0x802158 <Nr>
    113c:	90 91 59 21 	lds	r25, 0x2159	; 0x802159 <Nr+0x1>
    1140:	28 17       	cp	r18, r24
    1142:	39 07       	cpc	r19, r25
    1144:	1c f3       	brlt	.-58     	; 0x110c <aes_cipher+0xf8>
		shift_rows(state);
		mix_columns(state);
		add_round_key(state, w, r);
	}

	sub_bytes(state);
    1146:	8e 81       	ldd	r24, Y+6	; 0x06
    1148:	9f 81       	ldd	r25, Y+7	; 0x07
    114a:	3f dc       	rcall	.-1922   	; 0x9ca <sub_bytes>
	shift_rows(state);
    114c:	8e 81       	ldd	r24, Y+6	; 0x06
    114e:	9f 81       	ldd	r25, Y+7	; 0x07
    1150:	a4 db       	rcall	.-2232   	; 0x89a <shift_rows>
    1152:	80 91 58 21 	lds	r24, 0x2158	; 0x802158 <Nr>
	add_round_key(state, w, Nr);
    1156:	90 91 59 21 	lds	r25, 0x2159	; 0x802159 <Nr+0x1>
    115a:	48 2f       	mov	r20, r24
    115c:	8e 81       	ldd	r24, Y+6	; 0x06
    115e:	9f 81       	ldd	r25, Y+7	; 0x07
    1160:	2c 85       	ldd	r18, Y+12	; 0x0c
    1162:	3d 85       	ldd	r19, Y+13	; 0x0d
    1164:	b9 01       	movw	r22, r18
    1166:	d8 d9       	rcall	.-3152   	; 0x518 <add_round_key>
    1168:	1a 82       	std	Y+2, r1	; 0x02

	for (i = 0; i < 4; i++) {
    116a:	3e c0       	rjmp	.+124    	; 0x11e8 <aes_cipher+0x1d4>
    116c:	1b 82       	std	Y+3, r1	; 0x03
		for (j = 0; j < Nb; j++) {
    116e:	2f c0       	rjmp	.+94     	; 0x11ce <aes_cipher+0x1ba>
    1170:	8a 81       	ldd	r24, Y+2	; 0x02
			out[i+4*j] = state[Nb*i+j];
    1172:	28 2f       	mov	r18, r24
    1174:	30 e0       	ldi	r19, 0x00	; 0
    1176:	8b 81       	ldd	r24, Y+3	; 0x03
    1178:	88 2f       	mov	r24, r24
    117a:	90 e0       	ldi	r25, 0x00	; 0
    117c:	88 0f       	add	r24, r24
    117e:	99 1f       	adc	r25, r25
    1180:	88 0f       	add	r24, r24
    1182:	99 1f       	adc	r25, r25
    1184:	82 0f       	add	r24, r18
    1186:	93 1f       	adc	r25, r19
    1188:	9c 01       	movw	r18, r24
    118a:	8a 85       	ldd	r24, Y+10	; 0x0a
    118c:	9b 85       	ldd	r25, Y+11	; 0x0b
    118e:	82 0f       	add	r24, r18
    1190:	93 1f       	adc	r25, r19
    1192:	2a 81       	ldd	r18, Y+2	; 0x02
    1194:	62 2f       	mov	r22, r18
    1196:	70 e0       	ldi	r23, 0x00	; 0
    1198:	20 91 06 20 	lds	r18, 0x2006	; 0x802006 <Nb>
    119c:	30 91 07 20 	lds	r19, 0x2007	; 0x802007 <Nb+0x1>
    11a0:	62 9f       	mul	r22, r18
    11a2:	a0 01       	movw	r20, r0
    11a4:	63 9f       	mul	r22, r19
    11a6:	50 0d       	add	r21, r0
    11a8:	72 9f       	mul	r23, r18
    11aa:	50 0d       	add	r21, r0
    11ac:	11 24       	eor	r1, r1
    11ae:	2b 81       	ldd	r18, Y+3	; 0x03
    11b0:	22 2f       	mov	r18, r18
    11b2:	30 e0       	ldi	r19, 0x00	; 0
    11b4:	24 0f       	add	r18, r20
    11b6:	35 1f       	adc	r19, r21
    11b8:	4e 81       	ldd	r20, Y+6	; 0x06
    11ba:	5f 81       	ldd	r21, Y+7	; 0x07
    11bc:	24 0f       	add	r18, r20
    11be:	35 1f       	adc	r19, r21
    11c0:	f9 01       	movw	r30, r18
    11c2:	20 81       	ld	r18, Z
    11c4:	fc 01       	movw	r30, r24
    11c6:	20 83       	st	Z, r18
    11c8:	8b 81       	ldd	r24, Y+3	; 0x03
	sub_bytes(state);
	shift_rows(state);
	add_round_key(state, w, Nr);

	for (i = 0; i < 4; i++) {
		for (j = 0; j < Nb; j++) {
    11ca:	8f 5f       	subi	r24, 0xFF	; 255
    11cc:	8b 83       	std	Y+3, r24	; 0x03
    11ce:	8b 81       	ldd	r24, Y+3	; 0x03
    11d0:	28 2f       	mov	r18, r24
    11d2:	30 e0       	ldi	r19, 0x00	; 0
    11d4:	80 91 06 20 	lds	r24, 0x2006	; 0x802006 <Nb>
    11d8:	90 91 07 20 	lds	r25, 0x2007	; 0x802007 <Nb+0x1>
    11dc:	28 17       	cp	r18, r24
    11de:	39 07       	cpc	r19, r25
    11e0:	3c f2       	brlt	.-114    	; 0x1170 <aes_cipher+0x15c>
    11e2:	8a 81       	ldd	r24, Y+2	; 0x02

	sub_bytes(state);
	shift_rows(state);
	add_round_key(state, w, Nr);

	for (i = 0; i < 4; i++) {
    11e4:	8f 5f       	subi	r24, 0xFF	; 255
    11e6:	8a 83       	std	Y+2, r24	; 0x02
    11e8:	8a 81       	ldd	r24, Y+2	; 0x02
    11ea:	84 30       	cpi	r24, 0x04	; 4
    11ec:	08 f4       	brcc	.+2      	; 0x11f0 <aes_cipher+0x1dc>
    11ee:	be cf       	rjmp	.-132    	; 0x116c <aes_cipher+0x158>
    11f0:	ed be       	out	0x3d, r14	; 61
    11f2:	fe be       	out	0x3e, r15	; 62
    11f4:	00 00       	nop
		for (j = 0; j < Nb; j++) {
			out[i+4*j] = state[Nb*i+j];
		}
	}
}
    11f6:	0d bf       	out	0x3d, r16	; 61
    11f8:	1e bf       	out	0x3e, r17	; 62
    11fa:	2d 96       	adiw	r28, 0x0d	; 13
    11fc:	cd bf       	out	0x3d, r28	; 61
    11fe:	de bf       	out	0x3e, r29	; 62
    1200:	df 91       	pop	r29
    1202:	cf 91       	pop	r28
    1204:	1f 91       	pop	r17
    1206:	0f 91       	pop	r16
    1208:	ff 90       	pop	r15
    120a:	ef 90       	pop	r14
    120c:	08 95       	ret

0000120e <usart_rx_enable>:
    120e:	cf 93       	push	r28

	if (baud_offset != USART_BAUD_UNDEFINED) {
		(usart)->BAUDCTRLB = (uint8_t)((uint16_t)baudctrl);
		(usart)->BAUDCTRLA = (uint8_t)((uint16_t)baudctrl >> 8);
	}
}
    1210:	df 93       	push	r29
    1212:	1f 92       	push	r1
    1214:	1f 92       	push	r1
    1216:	cd b7       	in	r28, 0x3d	; 61
    1218:	de b7       	in	r29, 0x3e	; 62
    121a:	89 83       	std	Y+1, r24	; 0x01
    121c:	9a 83       	std	Y+2, r25	; 0x02
    121e:	89 81       	ldd	r24, Y+1	; 0x01
    1220:	9a 81       	ldd	r25, Y+2	; 0x02
    1222:	fc 01       	movw	r30, r24
    1224:	84 81       	ldd	r24, Z+4	; 0x04
    1226:	28 2f       	mov	r18, r24
    1228:	20 61       	ori	r18, 0x10	; 16
    122a:	89 81       	ldd	r24, Y+1	; 0x01
    122c:	9a 81       	ldd	r25, Y+2	; 0x02
    122e:	fc 01       	movw	r30, r24
    1230:	24 83       	std	Z+4, r18	; 0x04
    1232:	00 00       	nop
    1234:	0f 90       	pop	r0
    1236:	0f 90       	pop	r0
    1238:	df 91       	pop	r29
    123a:	cf 91       	pop	r28
    123c:	08 95       	ret

0000123e <usart_format_set>:
    123e:	cf 93       	push	r28
    1240:	df 93       	push	r29
    1242:	cd b7       	in	r28, 0x3d	; 61
    1244:	de b7       	in	r29, 0x3e	; 62
    1246:	25 97       	sbiw	r28, 0x05	; 5
    1248:	cd bf       	out	0x3d, r28	; 61
    124a:	de bf       	out	0x3e, r29	; 62
    124c:	89 83       	std	Y+1, r24	; 0x01
    124e:	9a 83       	std	Y+2, r25	; 0x02
    1250:	6b 83       	std	Y+3, r22	; 0x03
    1252:	4c 83       	std	Y+4, r20	; 0x04
    1254:	2d 83       	std	Y+5, r18	; 0x05
    1256:	9b 81       	ldd	r25, Y+3	; 0x03
    1258:	8c 81       	ldd	r24, Y+4	; 0x04
    125a:	89 2b       	or	r24, r25
    125c:	98 2f       	mov	r25, r24
    125e:	8d 81       	ldd	r24, Y+5	; 0x05
    1260:	88 23       	and	r24, r24
    1262:	11 f0       	breq	.+4      	; 0x1268 <usart_format_set+0x2a>
    1264:	88 e0       	ldi	r24, 0x08	; 8
    1266:	01 c0       	rjmp	.+2      	; 0x126a <usart_format_set+0x2c>
    1268:	80 e0       	ldi	r24, 0x00	; 0
    126a:	89 2b       	or	r24, r25
    126c:	28 2f       	mov	r18, r24
    126e:	89 81       	ldd	r24, Y+1	; 0x01
    1270:	9a 81       	ldd	r25, Y+2	; 0x02
    1272:	fc 01       	movw	r30, r24
    1274:	25 83       	std	Z+5, r18	; 0x05
    1276:	00 00       	nop
    1278:	25 96       	adiw	r28, 0x05	; 5
    127a:	cd bf       	out	0x3d, r28	; 61
    127c:	de bf       	out	0x3e, r29	; 62
    127e:	df 91       	pop	r29
    1280:	cf 91       	pop	r28
    1282:	08 95       	ret

00001284 <usart_tx_enable>:
    1284:	cf 93       	push	r28
    1286:	df 93       	push	r29
    1288:	1f 92       	push	r1
    128a:	1f 92       	push	r1
    128c:	cd b7       	in	r28, 0x3d	; 61
    128e:	de b7       	in	r29, 0x3e	; 62
    1290:	89 83       	std	Y+1, r24	; 0x01
    1292:	9a 83       	std	Y+2, r25	; 0x02
    1294:	89 81       	ldd	r24, Y+1	; 0x01
    1296:	9a 81       	ldd	r25, Y+2	; 0x02
    1298:	fc 01       	movw	r30, r24
    129a:	84 81       	ldd	r24, Z+4	; 0x04
    129c:	28 2f       	mov	r18, r24
    129e:	28 60       	ori	r18, 0x08	; 8
    12a0:	89 81       	ldd	r24, Y+1	; 0x01
    12a2:	9a 81       	ldd	r25, Y+2	; 0x02
    12a4:	fc 01       	movw	r30, r24
    12a6:	24 83       	std	Z+4, r18	; 0x04
    12a8:	00 00       	nop
    12aa:	0f 90       	pop	r0
    12ac:	0f 90       	pop	r0
    12ae:	df 91       	pop	r29
    12b0:	cf 91       	pop	r28
    12b2:	08 95       	ret

000012b4 <usart_set_mode>:
    12b4:	cf 93       	push	r28
    12b6:	df 93       	push	r29
    12b8:	00 d0       	rcall	.+0      	; 0x12ba <usart_set_mode+0x6>
    12ba:	cd b7       	in	r28, 0x3d	; 61
    12bc:	de b7       	in	r29, 0x3e	; 62
    12be:	89 83       	std	Y+1, r24	; 0x01
    12c0:	9a 83       	std	Y+2, r25	; 0x02
    12c2:	6b 83       	std	Y+3, r22	; 0x03
    12c4:	89 81       	ldd	r24, Y+1	; 0x01
    12c6:	9a 81       	ldd	r25, Y+2	; 0x02
    12c8:	fc 01       	movw	r30, r24
    12ca:	85 81       	ldd	r24, Z+5	; 0x05
    12cc:	98 2f       	mov	r25, r24
    12ce:	9f 73       	andi	r25, 0x3F	; 63
    12d0:	8b 81       	ldd	r24, Y+3	; 0x03
    12d2:	89 2b       	or	r24, r25
    12d4:	28 2f       	mov	r18, r24
    12d6:	89 81       	ldd	r24, Y+1	; 0x01
    12d8:	9a 81       	ldd	r25, Y+2	; 0x02
    12da:	fc 01       	movw	r30, r24
    12dc:	25 83       	std	Z+5, r18	; 0x05
    12de:	00 00       	nop
    12e0:	23 96       	adiw	r28, 0x03	; 3
    12e2:	cd bf       	out	0x3d, r28	; 61
    12e4:	de bf       	out	0x3e, r29	; 62
    12e6:	df 91       	pop	r29
    12e8:	cf 91       	pop	r28
    12ea:	08 95       	ret

000012ec <usart_data_register_is_empty>:
    12ec:	cf 93       	push	r28
    12ee:	df 93       	push	r29
    12f0:	1f 92       	push	r1
    12f2:	1f 92       	push	r1
    12f4:	cd b7       	in	r28, 0x3d	; 61
    12f6:	de b7       	in	r29, 0x3e	; 62
    12f8:	89 83       	std	Y+1, r24	; 0x01
    12fa:	9a 83       	std	Y+2, r25	; 0x02
    12fc:	89 81       	ldd	r24, Y+1	; 0x01
    12fe:	9a 81       	ldd	r25, Y+2	; 0x02
    1300:	fc 01       	movw	r30, r24
    1302:	81 81       	ldd	r24, Z+1	; 0x01
    1304:	88 2f       	mov	r24, r24
    1306:	90 e0       	ldi	r25, 0x00	; 0
    1308:	80 72       	andi	r24, 0x20	; 32
    130a:	99 27       	eor	r25, r25
    130c:	21 e0       	ldi	r18, 0x01	; 1
    130e:	89 2b       	or	r24, r25
    1310:	09 f4       	brne	.+2      	; 0x1314 <usart_data_register_is_empty+0x28>
    1312:	20 e0       	ldi	r18, 0x00	; 0
    1314:	82 2f       	mov	r24, r18
    1316:	0f 90       	pop	r0
    1318:	0f 90       	pop	r0
    131a:	df 91       	pop	r29
    131c:	cf 91       	pop	r28
    131e:	08 95       	ret

00001320 <usart_rx_is_complete>:
    1320:	cf 93       	push	r28
    1322:	df 93       	push	r29
    1324:	1f 92       	push	r1
    1326:	1f 92       	push	r1
    1328:	cd b7       	in	r28, 0x3d	; 61
    132a:	de b7       	in	r29, 0x3e	; 62
    132c:	89 83       	std	Y+1, r24	; 0x01
    132e:	9a 83       	std	Y+2, r25	; 0x02
    1330:	89 81       	ldd	r24, Y+1	; 0x01
    1332:	9a 81       	ldd	r25, Y+2	; 0x02
    1334:	fc 01       	movw	r30, r24
    1336:	81 81       	ldd	r24, Z+1	; 0x01
    1338:	88 2f       	mov	r24, r24
    133a:	90 e0       	ldi	r25, 0x00	; 0
    133c:	80 78       	andi	r24, 0x80	; 128
    133e:	99 27       	eor	r25, r25
    1340:	21 e0       	ldi	r18, 0x01	; 1
    1342:	89 2b       	or	r24, r25
    1344:	09 f4       	brne	.+2      	; 0x1348 <usart_rx_is_complete+0x28>
    1346:	20 e0       	ldi	r18, 0x00	; 0
    1348:	82 2f       	mov	r24, r18
    134a:	0f 90       	pop	r0
    134c:	0f 90       	pop	r0
    134e:	df 91       	pop	r29
    1350:	cf 91       	pop	r28
    1352:	08 95       	ret

00001354 <sysclk_get_main_hz>:
    1354:	cf 93       	push	r28
    1356:	df 93       	push	r29
    1358:	cd b7       	in	r28, 0x3d	; 61
    135a:	de b7       	in	r29, 0x3e	; 62
    135c:	80 e1       	ldi	r24, 0x10	; 16
    135e:	95 e7       	ldi	r25, 0x75	; 117
    1360:	a0 e7       	ldi	r26, 0x70	; 112
    1362:	b0 e0       	ldi	r27, 0x00	; 0
    1364:	bc 01       	movw	r22, r24
    1366:	cd 01       	movw	r24, r26
    1368:	df 91       	pop	r29
    136a:	cf 91       	pop	r28
    136c:	08 95       	ret

0000136e <sysclk_get_per4_hz>:
    136e:	cf 93       	push	r28
    1370:	df 93       	push	r29
    1372:	1f 92       	push	r1
    1374:	cd b7       	in	r28, 0x3d	; 61
    1376:	de b7       	in	r29, 0x3e	; 62
    1378:	19 82       	std	Y+1, r1	; 0x01
    137a:	ec df       	rcall	.-40     	; 0x1354 <sysclk_get_main_hz>
    137c:	dc 01       	movw	r26, r24
    137e:	cb 01       	movw	r24, r22
    1380:	29 81       	ldd	r18, Y+1	; 0x01
    1382:	22 2f       	mov	r18, r18
    1384:	30 e0       	ldi	r19, 0x00	; 0
    1386:	04 c0       	rjmp	.+8      	; 0x1390 <sysclk_get_per4_hz+0x22>
    1388:	b6 95       	lsr	r27
    138a:	a7 95       	ror	r26
    138c:	97 95       	ror	r25
    138e:	87 95       	ror	r24
    1390:	2a 95       	dec	r18
    1392:	d2 f7       	brpl	.-12     	; 0x1388 <sysclk_get_per4_hz+0x1a>
    1394:	bc 01       	movw	r22, r24
    1396:	cd 01       	movw	r24, r26
    1398:	0f 90       	pop	r0
    139a:	df 91       	pop	r29
    139c:	cf 91       	pop	r28
    139e:	08 95       	ret

000013a0 <sysclk_get_per2_hz>:
    13a0:	cf 93       	push	r28
    13a2:	df 93       	push	r29
    13a4:	cd b7       	in	r28, 0x3d	; 61
    13a6:	de b7       	in	r29, 0x3e	; 62
    13a8:	e2 df       	rcall	.-60     	; 0x136e <sysclk_get_per4_hz>
    13aa:	dc 01       	movw	r26, r24
    13ac:	cb 01       	movw	r24, r22
    13ae:	bc 01       	movw	r22, r24
    13b0:	cd 01       	movw	r24, r26
    13b2:	df 91       	pop	r29
    13b4:	cf 91       	pop	r28
    13b6:	08 95       	ret

000013b8 <sysclk_get_per_hz>:
    13b8:	cf 93       	push	r28
    13ba:	df 93       	push	r29
    13bc:	cd b7       	in	r28, 0x3d	; 61
    13be:	de b7       	in	r29, 0x3e	; 62
    13c0:	ef df       	rcall	.-34     	; 0x13a0 <sysclk_get_per2_hz>
    13c2:	dc 01       	movw	r26, r24
    13c4:	cb 01       	movw	r24, r22
    13c6:	bc 01       	movw	r22, r24
    13c8:	cd 01       	movw	r24, r26
    13ca:	df 91       	pop	r29
    13cc:	cf 91       	pop	r28
    13ce:	08 95       	ret

000013d0 <sysclk_enable_peripheral_clock>:
    13d0:	cf 93       	push	r28
    13d2:	df 93       	push	r29
    13d4:	1f 92       	push	r1
    13d6:	1f 92       	push	r1
    13d8:	cd b7       	in	r28, 0x3d	; 61
    13da:	de b7       	in	r29, 0x3e	; 62
    13dc:	89 83       	std	Y+1, r24	; 0x01
    13de:	9a 83       	std	Y+2, r25	; 0x02
    13e0:	89 81       	ldd	r24, Y+1	; 0x01
    13e2:	9a 81       	ldd	r25, Y+2	; 0x02
    13e4:	89 2b       	or	r24, r25
    13e6:	09 f4       	brne	.+2      	; 0x13ea <sysclk_enable_peripheral_clock+0x1a>
    13e8:	95 c0       	rjmp	.+298    	; 0x1514 <sysclk_enable_peripheral_clock+0x144>
    13ea:	89 81       	ldd	r24, Y+1	; 0x01
    13ec:	9a 81       	ldd	r25, Y+2	; 0x02
    13ee:	81 15       	cp	r24, r1
    13f0:	94 40       	sbci	r25, 0x04	; 4
    13f2:	29 f4       	brne	.+10     	; 0x13fe <sysclk_enable_peripheral_clock+0x2e>
    13f4:	64 e0       	ldi	r22, 0x04	; 4
    13f6:	80 e0       	ldi	r24, 0x00	; 0
    13f8:	0e 94 15 13 	call	0x262a	; 0x262a <sysclk_enable_module>
    13fc:	8b c0       	rjmp	.+278    	; 0x1514 <sysclk_enable_peripheral_clock+0x144>
    13fe:	89 81       	ldd	r24, Y+1	; 0x01
    1400:	9a 81       	ldd	r25, Y+2	; 0x02
    1402:	80 38       	cpi	r24, 0x80	; 128
    1404:	91 40       	sbci	r25, 0x01	; 1
    1406:	29 f4       	brne	.+10     	; 0x1412 <sysclk_enable_peripheral_clock+0x42>
    1408:	62 e0       	ldi	r22, 0x02	; 2
    140a:	80 e0       	ldi	r24, 0x00	; 0
    140c:	0e 94 15 13 	call	0x262a	; 0x262a <sysclk_enable_module>
    1410:	81 c0       	rjmp	.+258    	; 0x1514 <sysclk_enable_peripheral_clock+0x144>
    1412:	89 81       	ldd	r24, Y+1	; 0x01
    1414:	9a 81       	ldd	r25, Y+2	; 0x02
    1416:	80 38       	cpi	r24, 0x80	; 128
    1418:	93 40       	sbci	r25, 0x03	; 3
    141a:	29 f4       	brne	.+10     	; 0x1426 <sysclk_enable_peripheral_clock+0x56>
    141c:	61 e0       	ldi	r22, 0x01	; 1
    141e:	81 e0       	ldi	r24, 0x01	; 1
    1420:	0e 94 15 13 	call	0x262a	; 0x262a <sysclk_enable_module>
    1424:	77 c0       	rjmp	.+238    	; 0x1514 <sysclk_enable_peripheral_clock+0x144>
    1426:	89 81       	ldd	r24, Y+1	; 0x01
    1428:	9a 81       	ldd	r25, Y+2	; 0x02
    142a:	81 15       	cp	r24, r1
    142c:	92 40       	sbci	r25, 0x02	; 2
    142e:	29 f4       	brne	.+10     	; 0x143a <sysclk_enable_peripheral_clock+0x6a>
    1430:	62 e0       	ldi	r22, 0x02	; 2
    1432:	81 e0       	ldi	r24, 0x01	; 1
    1434:	0e 94 15 13 	call	0x262a	; 0x262a <sysclk_enable_module>
    1438:	6d c0       	rjmp	.+218    	; 0x1514 <sysclk_enable_peripheral_clock+0x144>
    143a:	89 81       	ldd	r24, Y+1	; 0x01
    143c:	9a 81       	ldd	r25, Y+2	; 0x02
    143e:	81 15       	cp	r24, r1
    1440:	98 40       	sbci	r25, 0x08	; 8
    1442:	29 f4       	brne	.+10     	; 0x144e <sysclk_enable_peripheral_clock+0x7e>
    1444:	61 e0       	ldi	r22, 0x01	; 1
    1446:	83 e0       	ldi	r24, 0x03	; 3
    1448:	0e 94 15 13 	call	0x262a	; 0x262a <sysclk_enable_module>
    144c:	63 c0       	rjmp	.+198    	; 0x1514 <sysclk_enable_peripheral_clock+0x144>
    144e:	89 81       	ldd	r24, Y+1	; 0x01
    1450:	9a 81       	ldd	r25, Y+2	; 0x02
    1452:	81 15       	cp	r24, r1
    1454:	99 40       	sbci	r25, 0x09	; 9
    1456:	29 f4       	brne	.+10     	; 0x1462 <sysclk_enable_peripheral_clock+0x92>
    1458:	61 e0       	ldi	r22, 0x01	; 1
    145a:	84 e0       	ldi	r24, 0x04	; 4
    145c:	0e 94 15 13 	call	0x262a	; 0x262a <sysclk_enable_module>
    1460:	59 c0       	rjmp	.+178    	; 0x1514 <sysclk_enable_peripheral_clock+0x144>
    1462:	89 81       	ldd	r24, Y+1	; 0x01
    1464:	9a 81       	ldd	r25, Y+2	; 0x02
    1466:	81 15       	cp	r24, r1
    1468:	9a 40       	sbci	r25, 0x0A	; 10
    146a:	29 f4       	brne	.+10     	; 0x1476 <sysclk_enable_peripheral_clock+0xa6>
    146c:	61 e0       	ldi	r22, 0x01	; 1
    146e:	85 e0       	ldi	r24, 0x05	; 5
    1470:	0e 94 15 13 	call	0x262a	; 0x262a <sysclk_enable_module>
    1474:	4f c0       	rjmp	.+158    	; 0x1514 <sysclk_enable_peripheral_clock+0x144>
    1476:	89 81       	ldd	r24, Y+1	; 0x01
    1478:	9a 81       	ldd	r25, Y+2	; 0x02
    147a:	80 34       	cpi	r24, 0x40	; 64
    147c:	98 40       	sbci	r25, 0x08	; 8
    147e:	29 f4       	brne	.+10     	; 0x148a <sysclk_enable_peripheral_clock+0xba>
    1480:	62 e0       	ldi	r22, 0x02	; 2
    1482:	83 e0       	ldi	r24, 0x03	; 3
    1484:	0e 94 15 13 	call	0x262a	; 0x262a <sysclk_enable_module>
    1488:	45 c0       	rjmp	.+138    	; 0x1514 <sysclk_enable_peripheral_clock+0x144>
    148a:	89 81       	ldd	r24, Y+1	; 0x01
    148c:	9a 81       	ldd	r25, Y+2	; 0x02
    148e:	80 39       	cpi	r24, 0x90	; 144
    1490:	98 40       	sbci	r25, 0x08	; 8
    1492:	29 f4       	brne	.+10     	; 0x149e <sysclk_enable_peripheral_clock+0xce>
    1494:	64 e0       	ldi	r22, 0x04	; 4
    1496:	83 e0       	ldi	r24, 0x03	; 3
    1498:	0e 94 15 13 	call	0x262a	; 0x262a <sysclk_enable_module>
    149c:	3b c0       	rjmp	.+118    	; 0x1514 <sysclk_enable_peripheral_clock+0x144>
    149e:	89 81       	ldd	r24, Y+1	; 0x01
    14a0:	9a 81       	ldd	r25, Y+2	; 0x02
    14a2:	80 3c       	cpi	r24, 0xC0	; 192
    14a4:	98 40       	sbci	r25, 0x08	; 8
    14a6:	29 f4       	brne	.+10     	; 0x14b2 <sysclk_enable_peripheral_clock+0xe2>
    14a8:	68 e0       	ldi	r22, 0x08	; 8
    14aa:	83 e0       	ldi	r24, 0x03	; 3
    14ac:	0e 94 15 13 	call	0x262a	; 0x262a <sysclk_enable_module>
    14b0:	31 c0       	rjmp	.+98     	; 0x1514 <sysclk_enable_peripheral_clock+0x144>
    14b2:	89 81       	ldd	r24, Y+1	; 0x01
    14b4:	9a 81       	ldd	r25, Y+2	; 0x02
    14b6:	80 3c       	cpi	r24, 0xC0	; 192
    14b8:	99 40       	sbci	r25, 0x09	; 9
    14ba:	29 f4       	brne	.+10     	; 0x14c6 <sysclk_enable_peripheral_clock+0xf6>
    14bc:	68 e0       	ldi	r22, 0x08	; 8
    14be:	84 e0       	ldi	r24, 0x04	; 4
    14c0:	0e 94 15 13 	call	0x262a	; 0x262a <sysclk_enable_module>
    14c4:	27 c0       	rjmp	.+78     	; 0x1514 <sysclk_enable_peripheral_clock+0x144>
    14c6:	89 81       	ldd	r24, Y+1	; 0x01
    14c8:	9a 81       	ldd	r25, Y+2	; 0x02
    14ca:	80 3a       	cpi	r24, 0xA0	; 160
    14cc:	98 40       	sbci	r25, 0x08	; 8
    14ce:	29 f4       	brne	.+10     	; 0x14da <sysclk_enable_peripheral_clock+0x10a>
    14d0:	60 e1       	ldi	r22, 0x10	; 16
    14d2:	83 e0       	ldi	r24, 0x03	; 3
    14d4:	0e 94 15 13 	call	0x262a	; 0x262a <sysclk_enable_module>
    14d8:	1d c0       	rjmp	.+58     	; 0x1514 <sysclk_enable_peripheral_clock+0x144>
    14da:	89 81       	ldd	r24, Y+1	; 0x01
    14dc:	9a 81       	ldd	r25, Y+2	; 0x02
    14de:	80 3a       	cpi	r24, 0xA0	; 160
    14e0:	99 40       	sbci	r25, 0x09	; 9
    14e2:	29 f4       	brne	.+10     	; 0x14ee <sysclk_enable_peripheral_clock+0x11e>
    14e4:	60 e1       	ldi	r22, 0x10	; 16
    14e6:	84 e0       	ldi	r24, 0x04	; 4
    14e8:	0e 94 15 13 	call	0x262a	; 0x262a <sysclk_enable_module>
    14ec:	13 c0       	rjmp	.+38     	; 0x1514 <sysclk_enable_peripheral_clock+0x144>
    14ee:	89 81       	ldd	r24, Y+1	; 0x01
    14f0:	9a 81       	ldd	r25, Y+2	; 0x02
    14f2:	80 38       	cpi	r24, 0x80	; 128
    14f4:	94 40       	sbci	r25, 0x04	; 4
    14f6:	29 f4       	brne	.+10     	; 0x1502 <sysclk_enable_peripheral_clock+0x132>
    14f8:	60 e4       	ldi	r22, 0x40	; 64
    14fa:	83 e0       	ldi	r24, 0x03	; 3
    14fc:	0e 94 15 13 	call	0x262a	; 0x262a <sysclk_enable_module>
    1500:	09 c0       	rjmp	.+18     	; 0x1514 <sysclk_enable_peripheral_clock+0x144>
    1502:	89 81       	ldd	r24, Y+1	; 0x01
    1504:	9a 81       	ldd	r25, Y+2	; 0x02
    1506:	80 3a       	cpi	r24, 0xA0	; 160
    1508:	94 40       	sbci	r25, 0x04	; 4
    150a:	21 f4       	brne	.+8      	; 0x1514 <sysclk_enable_peripheral_clock+0x144>
    150c:	60 e4       	ldi	r22, 0x40	; 64
    150e:	85 e0       	ldi	r24, 0x05	; 5
    1510:	0e 94 15 13 	call	0x262a	; 0x262a <sysclk_enable_module>
    1514:	00 00       	nop
    1516:	0f 90       	pop	r0
    1518:	0f 90       	pop	r0
    151a:	df 91       	pop	r29
    151c:	cf 91       	pop	r28
    151e:	08 95       	ret

00001520 <usart_init_rs232>:
    1520:	0f 93       	push	r16
    1522:	1f 93       	push	r17
    1524:	cf 93       	push	r28
    1526:	df 93       	push	r29
    1528:	cd b7       	in	r28, 0x3d	; 61
    152a:	de b7       	in	r29, 0x3e	; 62
    152c:	25 97       	sbiw	r28, 0x05	; 5
    152e:	cd bf       	out	0x3d, r28	; 61
    1530:	de bf       	out	0x3e, r29	; 62
    1532:	8a 83       	std	Y+2, r24	; 0x02
    1534:	9b 83       	std	Y+3, r25	; 0x03
    1536:	6c 83       	std	Y+4, r22	; 0x04
    1538:	7d 83       	std	Y+5, r23	; 0x05
    153a:	8a 81       	ldd	r24, Y+2	; 0x02
    153c:	9b 81       	ldd	r25, Y+3	; 0x03
    153e:	48 df       	rcall	.-368    	; 0x13d0 <sysclk_enable_peripheral_clock>
    1540:	8a 81       	ldd	r24, Y+2	; 0x02
    1542:	9b 81       	ldd	r25, Y+3	; 0x03
    1544:	60 e0       	ldi	r22, 0x00	; 0
    1546:	b6 de       	rcall	.-660    	; 0x12b4 <usart_set_mode>
    1548:	8c 81       	ldd	r24, Y+4	; 0x04
    154a:	9d 81       	ldd	r25, Y+5	; 0x05
    154c:	fc 01       	movw	r30, r24
    154e:	26 81       	ldd	r18, Z+6	; 0x06
    1550:	8c 81       	ldd	r24, Y+4	; 0x04
    1552:	9d 81       	ldd	r25, Y+5	; 0x05
    1554:	fc 01       	movw	r30, r24
    1556:	45 81       	ldd	r20, Z+5	; 0x05
    1558:	8c 81       	ldd	r24, Y+4	; 0x04
    155a:	9d 81       	ldd	r25, Y+5	; 0x05
    155c:	fc 01       	movw	r30, r24
    155e:	34 81       	ldd	r19, Z+4	; 0x04
    1560:	8a 81       	ldd	r24, Y+2	; 0x02
    1562:	9b 81       	ldd	r25, Y+3	; 0x03
    1564:	63 2f       	mov	r22, r19
    1566:	6b de       	rcall	.-810    	; 0x123e <usart_format_set>
    1568:	27 df       	rcall	.-434    	; 0x13b8 <sysclk_get_per_hz>
    156a:	9b 01       	movw	r18, r22
    156c:	ac 01       	movw	r20, r24
    156e:	8c 81       	ldd	r24, Y+4	; 0x04
    1570:	9d 81       	ldd	r25, Y+5	; 0x05
    1572:	fc 01       	movw	r30, r24
    1574:	80 81       	ld	r24, Z
    1576:	91 81       	ldd	r25, Z+1	; 0x01
    1578:	a2 81       	ldd	r26, Z+2	; 0x02
    157a:	b3 81       	ldd	r27, Z+3	; 0x03
    157c:	ea 81       	ldd	r30, Y+2	; 0x02
    157e:	fb 81       	ldd	r31, Y+3	; 0x03
    1580:	89 01       	movw	r16, r18
    1582:	9a 01       	movw	r18, r20
    1584:	ac 01       	movw	r20, r24
    1586:	bd 01       	movw	r22, r26
    1588:	cf 01       	movw	r24, r30
    158a:	48 d0       	rcall	.+144    	; 0x161c <usart_set_baudrate>
    158c:	89 83       	std	Y+1, r24	; 0x01
    158e:	8a 81       	ldd	r24, Y+2	; 0x02
    1590:	9b 81       	ldd	r25, Y+3	; 0x03
    1592:	78 de       	rcall	.-784    	; 0x1284 <usart_tx_enable>
    1594:	8a 81       	ldd	r24, Y+2	; 0x02
    1596:	9b 81       	ldd	r25, Y+3	; 0x03
    1598:	3a de       	rcall	.-908    	; 0x120e <usart_rx_enable>
    159a:	89 81       	ldd	r24, Y+1	; 0x01
    159c:	25 96       	adiw	r28, 0x05	; 5
    159e:	cd bf       	out	0x3d, r28	; 61
    15a0:	de bf       	out	0x3e, r29	; 62
    15a2:	df 91       	pop	r29
    15a4:	cf 91       	pop	r28
    15a6:	1f 91       	pop	r17
    15a8:	0f 91       	pop	r16
    15aa:	08 95       	ret

000015ac <usart_putchar>:
    15ac:	cf 93       	push	r28
    15ae:	df 93       	push	r29
    15b0:	00 d0       	rcall	.+0      	; 0x15b2 <usart_putchar+0x6>
    15b2:	cd b7       	in	r28, 0x3d	; 61
    15b4:	de b7       	in	r29, 0x3e	; 62
    15b6:	89 83       	std	Y+1, r24	; 0x01
    15b8:	9a 83       	std	Y+2, r25	; 0x02
    15ba:	6b 83       	std	Y+3, r22	; 0x03
    15bc:	00 00       	nop
    15be:	89 81       	ldd	r24, Y+1	; 0x01
    15c0:	9a 81       	ldd	r25, Y+2	; 0x02
    15c2:	94 de       	rcall	.-728    	; 0x12ec <usart_data_register_is_empty>
    15c4:	98 2f       	mov	r25, r24
    15c6:	81 e0       	ldi	r24, 0x01	; 1
    15c8:	89 27       	eor	r24, r25
    15ca:	88 23       	and	r24, r24
    15cc:	c1 f7       	brne	.-16     	; 0x15be <usart_putchar+0x12>
    15ce:	89 81       	ldd	r24, Y+1	; 0x01
    15d0:	9a 81       	ldd	r25, Y+2	; 0x02
    15d2:	2b 81       	ldd	r18, Y+3	; 0x03
    15d4:	fc 01       	movw	r30, r24
    15d6:	20 83       	st	Z, r18
    15d8:	80 e0       	ldi	r24, 0x00	; 0
    15da:	90 e0       	ldi	r25, 0x00	; 0
    15dc:	23 96       	adiw	r28, 0x03	; 3
    15de:	cd bf       	out	0x3d, r28	; 61
    15e0:	de bf       	out	0x3e, r29	; 62
    15e2:	df 91       	pop	r29
    15e4:	cf 91       	pop	r28
    15e6:	08 95       	ret

000015e8 <usart_getchar>:
    15e8:	cf 93       	push	r28
    15ea:	df 93       	push	r29
    15ec:	1f 92       	push	r1
    15ee:	1f 92       	push	r1
    15f0:	cd b7       	in	r28, 0x3d	; 61
    15f2:	de b7       	in	r29, 0x3e	; 62
    15f4:	89 83       	std	Y+1, r24	; 0x01
    15f6:	9a 83       	std	Y+2, r25	; 0x02
    15f8:	00 00       	nop
    15fa:	89 81       	ldd	r24, Y+1	; 0x01
    15fc:	9a 81       	ldd	r25, Y+2	; 0x02
    15fe:	90 de       	rcall	.-736    	; 0x1320 <usart_rx_is_complete>
    1600:	98 2f       	mov	r25, r24
    1602:	81 e0       	ldi	r24, 0x01	; 1
    1604:	89 27       	eor	r24, r25
    1606:	88 23       	and	r24, r24
    1608:	c1 f7       	brne	.-16     	; 0x15fa <usart_getchar+0x12>
    160a:	89 81       	ldd	r24, Y+1	; 0x01
    160c:	9a 81       	ldd	r25, Y+2	; 0x02
    160e:	fc 01       	movw	r30, r24
    1610:	80 81       	ld	r24, Z
    1612:	0f 90       	pop	r0
    1614:	0f 90       	pop	r0
    1616:	df 91       	pop	r29
    1618:	cf 91       	pop	r28
    161a:	08 95       	ret

0000161c <usart_set_baudrate>:
 * \retval true if the hardware supports the baud rate
 * \retval false if the hardware does not support the baud rate (i.e. it's
 *               either too high or too low.)
 */
bool usart_set_baudrate(USART_t *usart, uint32_t baud, uint32_t cpu_hz)
{
    161c:	ef 92       	push	r14
    161e:	ff 92       	push	r15
    1620:	0f 93       	push	r16
    1622:	1f 93       	push	r17
    1624:	cf 93       	push	r28
    1626:	df 93       	push	r29
    1628:	cd b7       	in	r28, 0x3d	; 61
    162a:	de b7       	in	r29, 0x3e	; 62
    162c:	6f 97       	sbiw	r28, 0x1f	; 31
    162e:	cd bf       	out	0x3d, r28	; 61
    1630:	de bf       	out	0x3e, r29	; 62
    1632:	8e 8b       	std	Y+22, r24	; 0x16
    1634:	9f 8b       	std	Y+23, r25	; 0x17
    1636:	48 8f       	std	Y+24, r20	; 0x18
    1638:	59 8f       	std	Y+25, r21	; 0x19
    163a:	6a 8f       	std	Y+26, r22	; 0x1a
    163c:	7b 8f       	std	Y+27, r23	; 0x1b
    163e:	0c 8f       	std	Y+28, r16	; 0x1c
    1640:	1d 8f       	std	Y+29, r17	; 0x1d
    1642:	2e 8f       	std	Y+30, r18	; 0x1e
    1644:	3f 8f       	std	Y+31, r19	; 0x1f

	/*
	 * Check if the hardware supports the given baud rate
	 */
	/* 8 = (2^0) * 8 * (2^0) = (2^BSCALE_MIN) * 8 * (BSEL_MIN) */
	max_rate = cpu_hz / 8;
    1646:	8c 8d       	ldd	r24, Y+28	; 0x1c
    1648:	9d 8d       	ldd	r25, Y+29	; 0x1d
    164a:	ae 8d       	ldd	r26, Y+30	; 0x1e
    164c:	bf 8d       	ldd	r27, Y+31	; 0x1f
    164e:	68 94       	set
    1650:	12 f8       	bld	r1, 2
    1652:	b6 95       	lsr	r27
    1654:	a7 95       	ror	r26
    1656:	97 95       	ror	r25
    1658:	87 95       	ror	r24
    165a:	16 94       	lsr	r1
    165c:	d1 f7       	brne	.-12     	; 0x1652 <usart_set_baudrate+0x36>
    165e:	8e 87       	std	Y+14, r24	; 0x0e
    1660:	9f 87       	std	Y+15, r25	; 0x0f
    1662:	a8 8b       	std	Y+16, r26	; 0x10
    1664:	b9 8b       	std	Y+17, r27	; 0x11
	/* 4194304 = (2^7) * 8 * (2^12) = (2^BSCALE_MAX) * 8 * (BSEL_MAX+1) */
	min_rate = cpu_hz / 4194304;
    1666:	8c 8d       	ldd	r24, Y+28	; 0x1c
    1668:	9d 8d       	ldd	r25, Y+29	; 0x1d
    166a:	ae 8d       	ldd	r26, Y+30	; 0x1e
    166c:	bf 8d       	ldd	r27, Y+31	; 0x1f
    166e:	07 2e       	mov	r0, r23
    1670:	76 e1       	ldi	r23, 0x16	; 22
    1672:	b6 95       	lsr	r27
    1674:	a7 95       	ror	r26
    1676:	97 95       	ror	r25
    1678:	87 95       	ror	r24
    167a:	7a 95       	dec	r23
    167c:	d1 f7       	brne	.-12     	; 0x1672 <usart_set_baudrate+0x56>
    167e:	70 2d       	mov	r23, r0
    1680:	8a 87       	std	Y+10, r24	; 0x0a
    1682:	9b 87       	std	Y+11, r25	; 0x0b
    1684:	ac 87       	std	Y+12, r26	; 0x0c
    1686:	bd 87       	std	Y+13, r27	; 0x0d

	if (!((usart)->CTRLB & USART_CLK2X_bm)) {
    1688:	8e 89       	ldd	r24, Y+22	; 0x16
    168a:	9f 89       	ldd	r25, Y+23	; 0x17
    168c:	fc 01       	movw	r30, r24
    168e:	84 81       	ldd	r24, Z+4	; 0x04
    1690:	88 2f       	mov	r24, r24
    1692:	90 e0       	ldi	r25, 0x00	; 0
    1694:	84 70       	andi	r24, 0x04	; 4
    1696:	99 27       	eor	r25, r25
    1698:	89 2b       	or	r24, r25
    169a:	c1 f4       	brne	.+48     	; 0x16cc <usart_set_baudrate+0xb0>
		max_rate /= 2;
    169c:	8e 85       	ldd	r24, Y+14	; 0x0e
    169e:	9f 85       	ldd	r25, Y+15	; 0x0f
    16a0:	a8 89       	ldd	r26, Y+16	; 0x10
    16a2:	b9 89       	ldd	r27, Y+17	; 0x11
    16a4:	b6 95       	lsr	r27
    16a6:	a7 95       	ror	r26
    16a8:	97 95       	ror	r25
    16aa:	87 95       	ror	r24
    16ac:	8e 87       	std	Y+14, r24	; 0x0e
    16ae:	9f 87       	std	Y+15, r25	; 0x0f
    16b0:	a8 8b       	std	Y+16, r26	; 0x10
    16b2:	b9 8b       	std	Y+17, r27	; 0x11
		min_rate /= 2;
    16b4:	8a 85       	ldd	r24, Y+10	; 0x0a
    16b6:	9b 85       	ldd	r25, Y+11	; 0x0b
    16b8:	ac 85       	ldd	r26, Y+12	; 0x0c
    16ba:	bd 85       	ldd	r27, Y+13	; 0x0d
    16bc:	b6 95       	lsr	r27
    16be:	a7 95       	ror	r26
    16c0:	97 95       	ror	r25
    16c2:	87 95       	ror	r24
    16c4:	8a 87       	std	Y+10, r24	; 0x0a
    16c6:	9b 87       	std	Y+11, r25	; 0x0b
    16c8:	ac 87       	std	Y+12, r26	; 0x0c
    16ca:	bd 87       	std	Y+13, r27	; 0x0d
	}

	if ((baud > max_rate) || (baud < min_rate)) {
    16cc:	28 8d       	ldd	r18, Y+24	; 0x18
    16ce:	39 8d       	ldd	r19, Y+25	; 0x19
    16d0:	4a 8d       	ldd	r20, Y+26	; 0x1a
    16d2:	5b 8d       	ldd	r21, Y+27	; 0x1b
    16d4:	8e 85       	ldd	r24, Y+14	; 0x0e
    16d6:	9f 85       	ldd	r25, Y+15	; 0x0f
    16d8:	a8 89       	ldd	r26, Y+16	; 0x10
    16da:	b9 89       	ldd	r27, Y+17	; 0x11
    16dc:	82 17       	cp	r24, r18
    16de:	93 07       	cpc	r25, r19
    16e0:	a4 07       	cpc	r26, r20
    16e2:	b5 07       	cpc	r27, r21
    16e4:	68 f0       	brcs	.+26     	; 0x1700 <usart_set_baudrate+0xe4>
    16e6:	28 8d       	ldd	r18, Y+24	; 0x18
    16e8:	39 8d       	ldd	r19, Y+25	; 0x19
    16ea:	4a 8d       	ldd	r20, Y+26	; 0x1a
    16ec:	5b 8d       	ldd	r21, Y+27	; 0x1b
    16ee:	8a 85       	ldd	r24, Y+10	; 0x0a
    16f0:	9b 85       	ldd	r25, Y+11	; 0x0b
    16f2:	ac 85       	ldd	r26, Y+12	; 0x0c
    16f4:	bd 85       	ldd	r27, Y+13	; 0x0d
    16f6:	28 17       	cp	r18, r24
    16f8:	39 07       	cpc	r19, r25
    16fa:	4a 07       	cpc	r20, r26
    16fc:	5b 07       	cpc	r21, r27
    16fe:	10 f4       	brcc	.+4      	; 0x1704 <usart_set_baudrate+0xe8>
		return false;
    1700:	80 e0       	ldi	r24, 0x00	; 0
    1702:	40 c1       	rjmp	.+640    	; 0x1984 <usart_set_baudrate+0x368>
	}

	/* Check if double speed is enabled. */
	if (!((usart)->CTRLB & USART_CLK2X_bm)) {
    1704:	8e 89       	ldd	r24, Y+22	; 0x16
    1706:	9f 89       	ldd	r25, Y+23	; 0x17
    1708:	fc 01       	movw	r30, r24
    170a:	84 81       	ldd	r24, Z+4	; 0x04
    170c:	88 2f       	mov	r24, r24
    170e:	90 e0       	ldi	r25, 0x00	; 0
    1710:	84 70       	andi	r24, 0x04	; 4
    1712:	99 27       	eor	r25, r25
    1714:	89 2b       	or	r24, r25
    1716:	61 f4       	brne	.+24     	; 0x1730 <usart_set_baudrate+0x114>
		baud *= 2;
    1718:	88 8d       	ldd	r24, Y+24	; 0x18
    171a:	99 8d       	ldd	r25, Y+25	; 0x19
    171c:	aa 8d       	ldd	r26, Y+26	; 0x1a
    171e:	bb 8d       	ldd	r27, Y+27	; 0x1b
    1720:	88 0f       	add	r24, r24
    1722:	99 1f       	adc	r25, r25
    1724:	aa 1f       	adc	r26, r26
    1726:	bb 1f       	adc	r27, r27
    1728:	88 8f       	std	Y+24, r24	; 0x18
    172a:	99 8f       	std	Y+25, r25	; 0x19
    172c:	aa 8f       	std	Y+26, r26	; 0x1a
    172e:	bb 8f       	std	Y+27, r27	; 0x1b
	}

	/* Find the lowest possible exponent. */
	limit = 0xfffU >> 4;
    1730:	8f ef       	ldi	r24, 0xFF	; 255
    1732:	90 e0       	ldi	r25, 0x00	; 0
    1734:	a0 e0       	ldi	r26, 0x00	; 0
    1736:	b0 e0       	ldi	r27, 0x00	; 0
    1738:	8e 83       	std	Y+6, r24	; 0x06
    173a:	9f 83       	std	Y+7, r25	; 0x07
    173c:	a8 87       	std	Y+8, r26	; 0x08
    173e:	b9 87       	std	Y+9, r27	; 0x09
	ratio = cpu_hz / baud;
    1740:	8c 8d       	ldd	r24, Y+28	; 0x1c
    1742:	9d 8d       	ldd	r25, Y+29	; 0x1d
    1744:	ae 8d       	ldd	r26, Y+30	; 0x1e
    1746:	bf 8d       	ldd	r27, Y+31	; 0x1f
    1748:	28 8d       	ldd	r18, Y+24	; 0x18
    174a:	39 8d       	ldd	r19, Y+25	; 0x19
    174c:	4a 8d       	ldd	r20, Y+26	; 0x1a
    174e:	5b 8d       	ldd	r21, Y+27	; 0x1b
    1750:	bc 01       	movw	r22, r24
    1752:	cd 01       	movw	r24, r26
    1754:	0e 94 5e 19 	call	0x32bc	; 0x32bc <__udivmodsi4>
    1758:	da 01       	movw	r26, r20
    175a:	c9 01       	movw	r24, r18
    175c:	8a 8b       	std	Y+18, r24	; 0x12
    175e:	9b 8b       	std	Y+19, r25	; 0x13
    1760:	ac 8b       	std	Y+20, r26	; 0x14
    1762:	bd 8b       	std	Y+21, r27	; 0x15

	for (exp = -7; exp < 7; exp++) {
    1764:	89 ef       	ldi	r24, 0xF9	; 249
    1766:	89 83       	std	Y+1, r24	; 0x01
    1768:	28 c0       	rjmp	.+80     	; 0x17ba <usart_set_baudrate+0x19e>
		if (ratio < limit) {
    176a:	2a 89       	ldd	r18, Y+18	; 0x12
    176c:	3b 89       	ldd	r19, Y+19	; 0x13
    176e:	4c 89       	ldd	r20, Y+20	; 0x14
    1770:	5d 89       	ldd	r21, Y+21	; 0x15
    1772:	8e 81       	ldd	r24, Y+6	; 0x06
    1774:	9f 81       	ldd	r25, Y+7	; 0x07
    1776:	a8 85       	ldd	r26, Y+8	; 0x08
    1778:	b9 85       	ldd	r27, Y+9	; 0x09
    177a:	28 17       	cp	r18, r24
    177c:	39 07       	cpc	r19, r25
    177e:	4a 07       	cpc	r20, r26
    1780:	5b 07       	cpc	r21, r27
    1782:	f8 f0       	brcs	.+62     	; 0x17c2 <usart_set_baudrate+0x1a6>
			break;
		}

		limit <<= 1;
    1784:	8e 81       	ldd	r24, Y+6	; 0x06
    1786:	9f 81       	ldd	r25, Y+7	; 0x07
    1788:	a8 85       	ldd	r26, Y+8	; 0x08
    178a:	b9 85       	ldd	r27, Y+9	; 0x09
    178c:	88 0f       	add	r24, r24
    178e:	99 1f       	adc	r25, r25
    1790:	aa 1f       	adc	r26, r26
    1792:	bb 1f       	adc	r27, r27
    1794:	8e 83       	std	Y+6, r24	; 0x06
    1796:	9f 83       	std	Y+7, r25	; 0x07
    1798:	a8 87       	std	Y+8, r26	; 0x08
    179a:	b9 87       	std	Y+9, r27	; 0x09

		if (exp < -3) {
    179c:	89 81       	ldd	r24, Y+1	; 0x01
    179e:	8d 3f       	cpi	r24, 0xFD	; 253
    17a0:	4c f4       	brge	.+18     	; 0x17b4 <usart_set_baudrate+0x198>
			limit |= 1;
    17a2:	8e 81       	ldd	r24, Y+6	; 0x06
    17a4:	9f 81       	ldd	r25, Y+7	; 0x07
    17a6:	a8 85       	ldd	r26, Y+8	; 0x08
    17a8:	b9 85       	ldd	r27, Y+9	; 0x09
    17aa:	81 60       	ori	r24, 0x01	; 1
    17ac:	8e 83       	std	Y+6, r24	; 0x06
    17ae:	9f 83       	std	Y+7, r25	; 0x07
    17b0:	a8 87       	std	Y+8, r26	; 0x08
    17b2:	b9 87       	std	Y+9, r27	; 0x09

	/* Find the lowest possible exponent. */
	limit = 0xfffU >> 4;
	ratio = cpu_hz / baud;

	for (exp = -7; exp < 7; exp++) {
    17b4:	89 81       	ldd	r24, Y+1	; 0x01
    17b6:	8f 5f       	subi	r24, 0xFF	; 255
    17b8:	89 83       	std	Y+1, r24	; 0x01
    17ba:	89 81       	ldd	r24, Y+1	; 0x01
    17bc:	87 30       	cpi	r24, 0x07	; 7
    17be:	ac f2       	brlt	.-86     	; 0x176a <usart_set_baudrate+0x14e>
    17c0:	01 c0       	rjmp	.+2      	; 0x17c4 <usart_set_baudrate+0x1a8>
		if (ratio < limit) {
			break;
    17c2:	00 00       	nop
	 * point.
	 *
	 * The formula for calculating BSEL is slightly different when exp is
	 * negative than it is when exp is positive.
	 */
	if (exp < 0) {
    17c4:	89 81       	ldd	r24, Y+1	; 0x01
    17c6:	88 23       	and	r24, r24
    17c8:	0c f0       	brlt	.+2      	; 0x17cc <usart_set_baudrate+0x1b0>
    17ca:	8a c0       	rjmp	.+276    	; 0x18e0 <usart_set_baudrate+0x2c4>
		/* We are supposed to subtract 1, then apply BSCALE. We want to
		 * apply BSCALE first, so we need to turn everything inside the
		 * parenthesis into a single fractional expression.
		 */
		cpu_hz -= 8 * baud;
    17cc:	88 8d       	ldd	r24, Y+24	; 0x18
    17ce:	99 8d       	ldd	r25, Y+25	; 0x19
    17d0:	aa 8d       	ldd	r26, Y+26	; 0x1a
    17d2:	bb 8d       	ldd	r27, Y+27	; 0x1b
    17d4:	88 0f       	add	r24, r24
    17d6:	99 1f       	adc	r25, r25
    17d8:	aa 1f       	adc	r26, r26
    17da:	bb 1f       	adc	r27, r27
    17dc:	88 0f       	add	r24, r24
    17de:	99 1f       	adc	r25, r25
    17e0:	aa 1f       	adc	r26, r26
    17e2:	bb 1f       	adc	r27, r27
    17e4:	88 0f       	add	r24, r24
    17e6:	99 1f       	adc	r25, r25
    17e8:	aa 1f       	adc	r26, r26
    17ea:	bb 1f       	adc	r27, r27
    17ec:	9c 01       	movw	r18, r24
    17ee:	ad 01       	movw	r20, r26
    17f0:	8c 8d       	ldd	r24, Y+28	; 0x1c
    17f2:	9d 8d       	ldd	r25, Y+29	; 0x1d
    17f4:	ae 8d       	ldd	r26, Y+30	; 0x1e
    17f6:	bf 8d       	ldd	r27, Y+31	; 0x1f
    17f8:	82 1b       	sub	r24, r18
    17fa:	93 0b       	sbc	r25, r19
    17fc:	a4 0b       	sbc	r26, r20
    17fe:	b5 0b       	sbc	r27, r21
    1800:	8c 8f       	std	Y+28, r24	; 0x1c
    1802:	9d 8f       	std	Y+29, r25	; 0x1d
    1804:	ae 8f       	std	Y+30, r26	; 0x1e
    1806:	bf 8f       	std	Y+31, r27	; 0x1f
		/* If we end up with a left-shift after taking the final
		 * divide-by-8 into account, do the shift before the divide.
		 * Otherwise, left-shift the denominator instead (effectively
		 * resulting in an overall right shift.)
		 */
		if (exp <= -3) {
    1808:	89 81       	ldd	r24, Y+1	; 0x01
    180a:	8e 3f       	cpi	r24, 0xFE	; 254
    180c:	94 f5       	brge	.+100    	; 0x1872 <usart_set_baudrate+0x256>
			div = ((cpu_hz << (-exp - 3)) + baud / 2) / baud;
    180e:	89 81       	ldd	r24, Y+1	; 0x01
    1810:	08 2e       	mov	r0, r24
    1812:	00 0c       	add	r0, r0
    1814:	99 0b       	sbc	r25, r25
    1816:	2d ef       	ldi	r18, 0xFD	; 253
    1818:	3f ef       	ldi	r19, 0xFF	; 255
    181a:	28 1b       	sub	r18, r24
    181c:	39 0b       	sbc	r19, r25
    181e:	8c 8d       	ldd	r24, Y+28	; 0x1c
    1820:	9d 8d       	ldd	r25, Y+29	; 0x1d
    1822:	ae 8d       	ldd	r26, Y+30	; 0x1e
    1824:	bf 8d       	ldd	r27, Y+31	; 0x1f
    1826:	7c 01       	movw	r14, r24
    1828:	8d 01       	movw	r16, r26
    182a:	04 c0       	rjmp	.+8      	; 0x1834 <usart_set_baudrate+0x218>
    182c:	ee 0c       	add	r14, r14
    182e:	ff 1c       	adc	r15, r15
    1830:	00 1f       	adc	r16, r16
    1832:	11 1f       	adc	r17, r17
    1834:	2a 95       	dec	r18
    1836:	d2 f7       	brpl	.-12     	; 0x182c <usart_set_baudrate+0x210>
    1838:	a8 01       	movw	r20, r16
    183a:	97 01       	movw	r18, r14
    183c:	88 8d       	ldd	r24, Y+24	; 0x18
    183e:	99 8d       	ldd	r25, Y+25	; 0x19
    1840:	aa 8d       	ldd	r26, Y+26	; 0x1a
    1842:	bb 8d       	ldd	r27, Y+27	; 0x1b
    1844:	b6 95       	lsr	r27
    1846:	a7 95       	ror	r26
    1848:	97 95       	ror	r25
    184a:	87 95       	ror	r24
    184c:	82 0f       	add	r24, r18
    184e:	93 1f       	adc	r25, r19
    1850:	a4 1f       	adc	r26, r20
    1852:	b5 1f       	adc	r27, r21
    1854:	28 8d       	ldd	r18, Y+24	; 0x18
    1856:	39 8d       	ldd	r19, Y+25	; 0x19
    1858:	4a 8d       	ldd	r20, Y+26	; 0x1a
    185a:	5b 8d       	ldd	r21, Y+27	; 0x1b
    185c:	bc 01       	movw	r22, r24
    185e:	cd 01       	movw	r24, r26
    1860:	0e 94 5e 19 	call	0x32bc	; 0x32bc <__udivmodsi4>
    1864:	da 01       	movw	r26, r20
    1866:	c9 01       	movw	r24, r18
    1868:	8a 83       	std	Y+2, r24	; 0x02
    186a:	9b 83       	std	Y+3, r25	; 0x03
    186c:	ac 83       	std	Y+4, r26	; 0x04
    186e:	bd 83       	std	Y+5, r27	; 0x05
    1870:	70 c0       	rjmp	.+224    	; 0x1952 <usart_set_baudrate+0x336>
		} else {
			baud <<= exp + 3;
    1872:	89 81       	ldd	r24, Y+1	; 0x01
    1874:	08 2e       	mov	r0, r24
    1876:	00 0c       	add	r0, r0
    1878:	99 0b       	sbc	r25, r25
    187a:	9c 01       	movw	r18, r24
    187c:	2d 5f       	subi	r18, 0xFD	; 253
    187e:	3f 4f       	sbci	r19, 0xFF	; 255
    1880:	88 8d       	ldd	r24, Y+24	; 0x18
    1882:	99 8d       	ldd	r25, Y+25	; 0x19
    1884:	aa 8d       	ldd	r26, Y+26	; 0x1a
    1886:	bb 8d       	ldd	r27, Y+27	; 0x1b
    1888:	04 c0       	rjmp	.+8      	; 0x1892 <usart_set_baudrate+0x276>
    188a:	88 0f       	add	r24, r24
    188c:	99 1f       	adc	r25, r25
    188e:	aa 1f       	adc	r26, r26
    1890:	bb 1f       	adc	r27, r27
    1892:	2a 95       	dec	r18
    1894:	d2 f7       	brpl	.-12     	; 0x188a <usart_set_baudrate+0x26e>
    1896:	88 8f       	std	Y+24, r24	; 0x18
    1898:	99 8f       	std	Y+25, r25	; 0x19
    189a:	aa 8f       	std	Y+26, r26	; 0x1a
    189c:	bb 8f       	std	Y+27, r27	; 0x1b
			div = (cpu_hz + baud / 2) / baud;
    189e:	88 8d       	ldd	r24, Y+24	; 0x18
    18a0:	99 8d       	ldd	r25, Y+25	; 0x19
    18a2:	aa 8d       	ldd	r26, Y+26	; 0x1a
    18a4:	bb 8d       	ldd	r27, Y+27	; 0x1b
    18a6:	9c 01       	movw	r18, r24
    18a8:	ad 01       	movw	r20, r26
    18aa:	56 95       	lsr	r21
    18ac:	47 95       	ror	r20
    18ae:	37 95       	ror	r19
    18b0:	27 95       	ror	r18
    18b2:	8c 8d       	ldd	r24, Y+28	; 0x1c
    18b4:	9d 8d       	ldd	r25, Y+29	; 0x1d
    18b6:	ae 8d       	ldd	r26, Y+30	; 0x1e
    18b8:	bf 8d       	ldd	r27, Y+31	; 0x1f
    18ba:	82 0f       	add	r24, r18
    18bc:	93 1f       	adc	r25, r19
    18be:	a4 1f       	adc	r26, r20
    18c0:	b5 1f       	adc	r27, r21
    18c2:	28 8d       	ldd	r18, Y+24	; 0x18
    18c4:	39 8d       	ldd	r19, Y+25	; 0x19
    18c6:	4a 8d       	ldd	r20, Y+26	; 0x1a
    18c8:	5b 8d       	ldd	r21, Y+27	; 0x1b
    18ca:	bc 01       	movw	r22, r24
    18cc:	cd 01       	movw	r24, r26
    18ce:	0e 94 5e 19 	call	0x32bc	; 0x32bc <__udivmodsi4>
    18d2:	da 01       	movw	r26, r20
    18d4:	c9 01       	movw	r24, r18
    18d6:	8a 83       	std	Y+2, r24	; 0x02
    18d8:	9b 83       	std	Y+3, r25	; 0x03
    18da:	ac 83       	std	Y+4, r26	; 0x04
    18dc:	bd 83       	std	Y+5, r27	; 0x05
    18de:	39 c0       	rjmp	.+114    	; 0x1952 <usart_set_baudrate+0x336>
		}
	} else {
		/* We will always do a right shift in this case, but we need to
		 * shift three extra positions because of the divide-by-8.
		 */
		baud <<= exp + 3;
    18e0:	89 81       	ldd	r24, Y+1	; 0x01
    18e2:	08 2e       	mov	r0, r24
    18e4:	00 0c       	add	r0, r0
    18e6:	99 0b       	sbc	r25, r25
    18e8:	9c 01       	movw	r18, r24
    18ea:	2d 5f       	subi	r18, 0xFD	; 253
    18ec:	3f 4f       	sbci	r19, 0xFF	; 255
    18ee:	88 8d       	ldd	r24, Y+24	; 0x18
    18f0:	99 8d       	ldd	r25, Y+25	; 0x19
    18f2:	aa 8d       	ldd	r26, Y+26	; 0x1a
    18f4:	bb 8d       	ldd	r27, Y+27	; 0x1b
    18f6:	04 c0       	rjmp	.+8      	; 0x1900 <usart_set_baudrate+0x2e4>
    18f8:	88 0f       	add	r24, r24
    18fa:	99 1f       	adc	r25, r25
    18fc:	aa 1f       	adc	r26, r26
    18fe:	bb 1f       	adc	r27, r27
    1900:	2a 95       	dec	r18
    1902:	d2 f7       	brpl	.-12     	; 0x18f8 <usart_set_baudrate+0x2dc>
    1904:	88 8f       	std	Y+24, r24	; 0x18
    1906:	99 8f       	std	Y+25, r25	; 0x19
    1908:	aa 8f       	std	Y+26, r26	; 0x1a
    190a:	bb 8f       	std	Y+27, r27	; 0x1b
		div = (cpu_hz + baud / 2) / baud - 1;
    190c:	88 8d       	ldd	r24, Y+24	; 0x18
    190e:	99 8d       	ldd	r25, Y+25	; 0x19
    1910:	aa 8d       	ldd	r26, Y+26	; 0x1a
    1912:	bb 8d       	ldd	r27, Y+27	; 0x1b
    1914:	9c 01       	movw	r18, r24
    1916:	ad 01       	movw	r20, r26
    1918:	56 95       	lsr	r21
    191a:	47 95       	ror	r20
    191c:	37 95       	ror	r19
    191e:	27 95       	ror	r18
    1920:	8c 8d       	ldd	r24, Y+28	; 0x1c
    1922:	9d 8d       	ldd	r25, Y+29	; 0x1d
    1924:	ae 8d       	ldd	r26, Y+30	; 0x1e
    1926:	bf 8d       	ldd	r27, Y+31	; 0x1f
    1928:	82 0f       	add	r24, r18
    192a:	93 1f       	adc	r25, r19
    192c:	a4 1f       	adc	r26, r20
    192e:	b5 1f       	adc	r27, r21
    1930:	28 8d       	ldd	r18, Y+24	; 0x18
    1932:	39 8d       	ldd	r19, Y+25	; 0x19
    1934:	4a 8d       	ldd	r20, Y+26	; 0x1a
    1936:	5b 8d       	ldd	r21, Y+27	; 0x1b
    1938:	bc 01       	movw	r22, r24
    193a:	cd 01       	movw	r24, r26
    193c:	0e 94 5e 19 	call	0x32bc	; 0x32bc <__udivmodsi4>
    1940:	da 01       	movw	r26, r20
    1942:	c9 01       	movw	r24, r18
    1944:	01 97       	sbiw	r24, 0x01	; 1
    1946:	a1 09       	sbc	r26, r1
    1948:	b1 09       	sbc	r27, r1
    194a:	8a 83       	std	Y+2, r24	; 0x02
    194c:	9b 83       	std	Y+3, r25	; 0x03
    194e:	ac 83       	std	Y+4, r26	; 0x04
    1950:	bd 83       	std	Y+5, r27	; 0x05
	}

	(usart)->BAUDCTRLB = (uint8_t)(((div >> 8) & 0X0F) | (exp << 4));
    1952:	8a 81       	ldd	r24, Y+2	; 0x02
    1954:	9b 81       	ldd	r25, Y+3	; 0x03
    1956:	ac 81       	ldd	r26, Y+4	; 0x04
    1958:	bd 81       	ldd	r27, Y+5	; 0x05
    195a:	89 2f       	mov	r24, r25
    195c:	9a 2f       	mov	r25, r26
    195e:	ab 2f       	mov	r26, r27
    1960:	bb 27       	eor	r27, r27
    1962:	98 2f       	mov	r25, r24
    1964:	9f 70       	andi	r25, 0x0F	; 15
    1966:	89 81       	ldd	r24, Y+1	; 0x01
    1968:	82 95       	swap	r24
    196a:	80 7f       	andi	r24, 0xF0	; 240
    196c:	29 2f       	mov	r18, r25
    196e:	28 2b       	or	r18, r24
    1970:	8e 89       	ldd	r24, Y+22	; 0x16
    1972:	9f 89       	ldd	r25, Y+23	; 0x17
    1974:	fc 01       	movw	r30, r24
    1976:	27 83       	std	Z+7, r18	; 0x07
	(usart)->BAUDCTRLA = (uint8_t)div;
    1978:	2a 81       	ldd	r18, Y+2	; 0x02
    197a:	8e 89       	ldd	r24, Y+22	; 0x16
    197c:	9f 89       	ldd	r25, Y+23	; 0x17
    197e:	fc 01       	movw	r30, r24
    1980:	26 83       	std	Z+6, r18	; 0x06

	return true;
    1982:	81 e0       	ldi	r24, 0x01	; 1
}
    1984:	6f 96       	adiw	r28, 0x1f	; 31
    1986:	cd bf       	out	0x3d, r28	; 61
    1988:	de bf       	out	0x3e, r29	; 62
    198a:	df 91       	pop	r29
    198c:	cf 91       	pop	r28
    198e:	1f 91       	pop	r17
    1990:	0f 91       	pop	r16
    1992:	ff 90       	pop	r15
    1994:	ef 90       	pop	r14
    1996:	08 95       	ret

00001998 <hex_decode>:
 */ 
#include <stdint-gcc.h>
char hex_lookup[16] = {'0', '1', '2', '3', '4', '5', '6', '7', '8', '9', 'A', 'B', 'C', 'D', 'E', 'F'};

uint8_t* hex_decode(const char *in, int len,uint8_t *out)//ASCII
{
    1998:	cf 93       	push	r28
    199a:	df 93       	push	r29
    199c:	cd b7       	in	r28, 0x3d	; 61
    199e:	de b7       	in	r29, 0x3e	; 62
    19a0:	2e 97       	sbiw	r28, 0x0e	; 14
    19a2:	cd bf       	out	0x3d, r28	; 61
    19a4:	de bf       	out	0x3e, r29	; 62
    19a6:	89 87       	std	Y+9, r24	; 0x09
    19a8:	9a 87       	std	Y+10, r25	; 0x0a
    19aa:	6b 87       	std	Y+11, r22	; 0x0b
    19ac:	7c 87       	std	Y+12, r23	; 0x0c
    19ae:	4d 87       	std	Y+13, r20	; 0x0d
    19b0:	5e 87       	std	Y+14, r21	; 0x0e
	unsigned int i, t, hn, ln;

	for (t = 0,i = 0; i < len; i+=2,++t)
    19b2:	1b 82       	std	Y+3, r1	; 0x03
    19b4:	1c 82       	std	Y+4, r1	; 0x04
    19b6:	19 82       	std	Y+1, r1	; 0x01
    19b8:	1a 82       	std	Y+2, r1	; 0x02
    19ba:	69 c0       	rjmp	.+210    	; 0x1a8e <hex_decode+0xf6>
	{
		hn = in[i] > '9' ? (in[i]|32) - 'a' + 10 : in[i] - '0';//1610Aa
    19bc:	29 85       	ldd	r18, Y+9	; 0x09
    19be:	3a 85       	ldd	r19, Y+10	; 0x0a
    19c0:	89 81       	ldd	r24, Y+1	; 0x01
    19c2:	9a 81       	ldd	r25, Y+2	; 0x02
    19c4:	82 0f       	add	r24, r18
    19c6:	93 1f       	adc	r25, r19
    19c8:	fc 01       	movw	r30, r24
    19ca:	80 81       	ld	r24, Z
    19cc:	8a 33       	cpi	r24, 0x3A	; 58
    19ce:	7c f0       	brlt	.+30     	; 0x19ee <hex_decode+0x56>
    19d0:	29 85       	ldd	r18, Y+9	; 0x09
    19d2:	3a 85       	ldd	r19, Y+10	; 0x0a
    19d4:	89 81       	ldd	r24, Y+1	; 0x01
    19d6:	9a 81       	ldd	r25, Y+2	; 0x02
    19d8:	82 0f       	add	r24, r18
    19da:	93 1f       	adc	r25, r19
    19dc:	fc 01       	movw	r30, r24
    19de:	80 81       	ld	r24, Z
    19e0:	80 62       	ori	r24, 0x20	; 32
    19e2:	08 2e       	mov	r0, r24
    19e4:	00 0c       	add	r0, r0
    19e6:	99 0b       	sbc	r25, r25
    19e8:	87 55       	subi	r24, 0x57	; 87
    19ea:	91 09       	sbc	r25, r1
    19ec:	0c c0       	rjmp	.+24     	; 0x1a06 <hex_decode+0x6e>
    19ee:	29 85       	ldd	r18, Y+9	; 0x09
    19f0:	3a 85       	ldd	r19, Y+10	; 0x0a
    19f2:	89 81       	ldd	r24, Y+1	; 0x01
    19f4:	9a 81       	ldd	r25, Y+2	; 0x02
    19f6:	82 0f       	add	r24, r18
    19f8:	93 1f       	adc	r25, r19
    19fa:	fc 01       	movw	r30, r24
    19fc:	80 81       	ld	r24, Z
    19fe:	08 2e       	mov	r0, r24
    1a00:	00 0c       	add	r0, r0
    1a02:	99 0b       	sbc	r25, r25
    1a04:	c0 97       	sbiw	r24, 0x30	; 48
    1a06:	8d 83       	std	Y+5, r24	; 0x05
    1a08:	9e 83       	std	Y+6, r25	; 0x06
		ln = in[i+1] > '9' ? (in[i+1]|32) - 'a' + 10 : in[i+1] - '0';
    1a0a:	89 81       	ldd	r24, Y+1	; 0x01
    1a0c:	9a 81       	ldd	r25, Y+2	; 0x02
    1a0e:	01 96       	adiw	r24, 0x01	; 1
    1a10:	29 85       	ldd	r18, Y+9	; 0x09
    1a12:	3a 85       	ldd	r19, Y+10	; 0x0a
    1a14:	82 0f       	add	r24, r18
    1a16:	93 1f       	adc	r25, r19
    1a18:	fc 01       	movw	r30, r24
    1a1a:	80 81       	ld	r24, Z
    1a1c:	8a 33       	cpi	r24, 0x3A	; 58
    1a1e:	84 f0       	brlt	.+32     	; 0x1a40 <hex_decode+0xa8>
    1a20:	89 81       	ldd	r24, Y+1	; 0x01
    1a22:	9a 81       	ldd	r25, Y+2	; 0x02
    1a24:	01 96       	adiw	r24, 0x01	; 1
    1a26:	29 85       	ldd	r18, Y+9	; 0x09
    1a28:	3a 85       	ldd	r19, Y+10	; 0x0a
    1a2a:	82 0f       	add	r24, r18
    1a2c:	93 1f       	adc	r25, r19
    1a2e:	fc 01       	movw	r30, r24
    1a30:	80 81       	ld	r24, Z
    1a32:	80 62       	ori	r24, 0x20	; 32
    1a34:	08 2e       	mov	r0, r24
    1a36:	00 0c       	add	r0, r0
    1a38:	99 0b       	sbc	r25, r25
    1a3a:	87 55       	subi	r24, 0x57	; 87
    1a3c:	91 09       	sbc	r25, r1
    1a3e:	0d c0       	rjmp	.+26     	; 0x1a5a <hex_decode+0xc2>
    1a40:	89 81       	ldd	r24, Y+1	; 0x01
    1a42:	9a 81       	ldd	r25, Y+2	; 0x02
    1a44:	01 96       	adiw	r24, 0x01	; 1
    1a46:	29 85       	ldd	r18, Y+9	; 0x09
    1a48:	3a 85       	ldd	r19, Y+10	; 0x0a
    1a4a:	82 0f       	add	r24, r18
    1a4c:	93 1f       	adc	r25, r19
    1a4e:	fc 01       	movw	r30, r24
    1a50:	80 81       	ld	r24, Z
    1a52:	08 2e       	mov	r0, r24
    1a54:	00 0c       	add	r0, r0
    1a56:	99 0b       	sbc	r25, r25
    1a58:	c0 97       	sbiw	r24, 0x30	; 48
    1a5a:	8f 83       	std	Y+7, r24	; 0x07
    1a5c:	98 87       	std	Y+8, r25	; 0x08
		out[t] = (hn << 4 ) | ln;
    1a5e:	2d 85       	ldd	r18, Y+13	; 0x0d
    1a60:	3e 85       	ldd	r19, Y+14	; 0x0e
    1a62:	8b 81       	ldd	r24, Y+3	; 0x03
    1a64:	9c 81       	ldd	r25, Y+4	; 0x04
    1a66:	82 0f       	add	r24, r18
    1a68:	93 1f       	adc	r25, r19
    1a6a:	2d 81       	ldd	r18, Y+5	; 0x05
    1a6c:	32 2f       	mov	r19, r18
    1a6e:	32 95       	swap	r19
    1a70:	30 7f       	andi	r19, 0xF0	; 240
    1a72:	2f 81       	ldd	r18, Y+7	; 0x07
    1a74:	23 2b       	or	r18, r19
    1a76:	fc 01       	movw	r30, r24
    1a78:	20 83       	st	Z, r18

uint8_t* hex_decode(const char *in, int len,uint8_t *out)//ASCII
{
	unsigned int i, t, hn, ln;

	for (t = 0,i = 0; i < len; i+=2,++t)
    1a7a:	89 81       	ldd	r24, Y+1	; 0x01
    1a7c:	9a 81       	ldd	r25, Y+2	; 0x02
    1a7e:	02 96       	adiw	r24, 0x02	; 2
    1a80:	89 83       	std	Y+1, r24	; 0x01
    1a82:	9a 83       	std	Y+2, r25	; 0x02
    1a84:	8b 81       	ldd	r24, Y+3	; 0x03
    1a86:	9c 81       	ldd	r25, Y+4	; 0x04
    1a88:	01 96       	adiw	r24, 0x01	; 1
    1a8a:	8b 83       	std	Y+3, r24	; 0x03
    1a8c:	9c 83       	std	Y+4, r25	; 0x04
    1a8e:	8b 85       	ldd	r24, Y+11	; 0x0b
    1a90:	9c 85       	ldd	r25, Y+12	; 0x0c
    1a92:	29 81       	ldd	r18, Y+1	; 0x01
    1a94:	3a 81       	ldd	r19, Y+2	; 0x02
    1a96:	28 17       	cp	r18, r24
    1a98:	39 07       	cpc	r19, r25
    1a9a:	08 f4       	brcc	.+2      	; 0x1a9e <hex_decode+0x106>
    1a9c:	8f cf       	rjmp	.-226    	; 0x19bc <hex_decode+0x24>
	{
		hn = in[i] > '9' ? (in[i]|32) - 'a' + 10 : in[i] - '0';//1610Aa
		ln = in[i+1] > '9' ? (in[i+1]|32) - 'a' + 10 : in[i+1] - '0';
		out[t] = (hn << 4 ) | ln;
	}
	return out;
    1a9e:	8d 85       	ldd	r24, Y+13	; 0x0d
    1aa0:	9e 85       	ldd	r25, Y+14	; 0x0e
}
    1aa2:	2e 96       	adiw	r28, 0x0e	; 14
    1aa4:	cd bf       	out	0x3d, r28	; 61
    1aa6:	de bf       	out	0x3e, r29	; 62
    1aa8:	df 91       	pop	r29
    1aaa:	cf 91       	pop	r28
    1aac:	08 95       	ret

00001aae <hex_print>:

void hex_print(const uint8_t *in, int len, char *out)//ASCII
{
    1aae:	cf 93       	push	r28
    1ab0:	df 93       	push	r29
    1ab2:	cd b7       	in	r28, 0x3d	; 61
    1ab4:	de b7       	in	r29, 0x3e	; 62
    1ab6:	2a 97       	sbiw	r28, 0x0a	; 10
    1ab8:	cd bf       	out	0x3d, r28	; 61
    1aba:	de bf       	out	0x3e, r29	; 62
    1abc:	8d 83       	std	Y+5, r24	; 0x05
    1abe:	9e 83       	std	Y+6, r25	; 0x06
    1ac0:	6f 83       	std	Y+7, r22	; 0x07
    1ac2:	78 87       	std	Y+8, r23	; 0x08
    1ac4:	49 87       	std	Y+9, r20	; 0x09
    1ac6:	5a 87       	std	Y+10, r21	; 0x0a
	unsigned int i,j;
	j=0;
    1ac8:	1b 82       	std	Y+3, r1	; 0x03
    1aca:	1c 82       	std	Y+4, r1	; 0x04
	for (i=0; i < len; i++)
    1acc:	19 82       	std	Y+1, r1	; 0x01
    1ace:	1a 82       	std	Y+2, r1	; 0x02
    1ad0:	3f c0       	rjmp	.+126    	; 0x1b50 <hex_print+0xa2>
	{
		out[j++] = hex_lookup[in[i] >> 4];
    1ad2:	8b 81       	ldd	r24, Y+3	; 0x03
    1ad4:	9c 81       	ldd	r25, Y+4	; 0x04
    1ad6:	9c 01       	movw	r18, r24
    1ad8:	2f 5f       	subi	r18, 0xFF	; 255
    1ada:	3f 4f       	sbci	r19, 0xFF	; 255
    1adc:	2b 83       	std	Y+3, r18	; 0x03
    1ade:	3c 83       	std	Y+4, r19	; 0x04
    1ae0:	29 85       	ldd	r18, Y+9	; 0x09
    1ae2:	3a 85       	ldd	r19, Y+10	; 0x0a
    1ae4:	82 0f       	add	r24, r18
    1ae6:	93 1f       	adc	r25, r19
    1ae8:	4d 81       	ldd	r20, Y+5	; 0x05
    1aea:	5e 81       	ldd	r21, Y+6	; 0x06
    1aec:	29 81       	ldd	r18, Y+1	; 0x01
    1aee:	3a 81       	ldd	r19, Y+2	; 0x02
    1af0:	24 0f       	add	r18, r20
    1af2:	35 1f       	adc	r19, r21
    1af4:	f9 01       	movw	r30, r18
    1af6:	20 81       	ld	r18, Z
    1af8:	22 95       	swap	r18
    1afa:	2f 70       	andi	r18, 0x0F	; 15
    1afc:	22 2f       	mov	r18, r18
    1afe:	30 e0       	ldi	r19, 0x00	; 0
    1b00:	24 5f       	subi	r18, 0xF4	; 244
    1b02:	3e 4d       	sbci	r19, 0xDE	; 222
    1b04:	f9 01       	movw	r30, r18
    1b06:	20 81       	ld	r18, Z
    1b08:	fc 01       	movw	r30, r24
    1b0a:	20 83       	st	Z, r18
		out[j++] = hex_lookup[in[i] & 0x0F];
    1b0c:	8b 81       	ldd	r24, Y+3	; 0x03
    1b0e:	9c 81       	ldd	r25, Y+4	; 0x04
    1b10:	9c 01       	movw	r18, r24
    1b12:	2f 5f       	subi	r18, 0xFF	; 255
    1b14:	3f 4f       	sbci	r19, 0xFF	; 255
    1b16:	2b 83       	std	Y+3, r18	; 0x03
    1b18:	3c 83       	std	Y+4, r19	; 0x04
    1b1a:	29 85       	ldd	r18, Y+9	; 0x09
    1b1c:	3a 85       	ldd	r19, Y+10	; 0x0a
    1b1e:	82 0f       	add	r24, r18
    1b20:	93 1f       	adc	r25, r19
    1b22:	4d 81       	ldd	r20, Y+5	; 0x05
    1b24:	5e 81       	ldd	r21, Y+6	; 0x06
    1b26:	29 81       	ldd	r18, Y+1	; 0x01
    1b28:	3a 81       	ldd	r19, Y+2	; 0x02
    1b2a:	24 0f       	add	r18, r20
    1b2c:	35 1f       	adc	r19, r21
    1b2e:	f9 01       	movw	r30, r18
    1b30:	20 81       	ld	r18, Z
    1b32:	22 2f       	mov	r18, r18
    1b34:	30 e0       	ldi	r19, 0x00	; 0
    1b36:	2f 70       	andi	r18, 0x0F	; 15
    1b38:	33 27       	eor	r19, r19
    1b3a:	24 5f       	subi	r18, 0xF4	; 244
    1b3c:	3e 4d       	sbci	r19, 0xDE	; 222
    1b3e:	f9 01       	movw	r30, r18
    1b40:	20 81       	ld	r18, Z
    1b42:	fc 01       	movw	r30, r24
    1b44:	20 83       	st	Z, r18

void hex_print(const uint8_t *in, int len, char *out)//ASCII
{
	unsigned int i,j;
	j=0;
	for (i=0; i < len; i++)
    1b46:	89 81       	ldd	r24, Y+1	; 0x01
    1b48:	9a 81       	ldd	r25, Y+2	; 0x02
    1b4a:	01 96       	adiw	r24, 0x01	; 1
    1b4c:	89 83       	std	Y+1, r24	; 0x01
    1b4e:	9a 83       	std	Y+2, r25	; 0x02
    1b50:	8f 81       	ldd	r24, Y+7	; 0x07
    1b52:	98 85       	ldd	r25, Y+8	; 0x08
    1b54:	29 81       	ldd	r18, Y+1	; 0x01
    1b56:	3a 81       	ldd	r19, Y+2	; 0x02
    1b58:	28 17       	cp	r18, r24
    1b5a:	39 07       	cpc	r19, r25
    1b5c:	08 f4       	brcc	.+2      	; 0x1b60 <hex_print+0xb2>
    1b5e:	b9 cf       	rjmp	.-142    	; 0x1ad2 <hex_print+0x24>
	{
		out[j++] = hex_lookup[in[i] >> 4];
		out[j++] = hex_lookup[in[i] & 0x0F];
	}
	out[j] = 0;
    1b60:	29 85       	ldd	r18, Y+9	; 0x09
    1b62:	3a 85       	ldd	r19, Y+10	; 0x0a
    1b64:	8b 81       	ldd	r24, Y+3	; 0x03
    1b66:	9c 81       	ldd	r25, Y+4	; 0x04
    1b68:	82 0f       	add	r24, r18
    1b6a:	93 1f       	adc	r25, r19
    1b6c:	fc 01       	movw	r30, r24
    1b6e:	10 82       	st	Z, r1
}
    1b70:	00 00       	nop
    1b72:	2a 96       	adiw	r28, 0x0a	; 10
    1b74:	cd bf       	out	0x3d, r28	; 61
    1b76:	de bf       	out	0x3e, r29	; 62
    1b78:	df 91       	pop	r29
    1b7a:	cf 91       	pop	r28
    1b7c:	08 95       	ret

00001b7e <ioport_set_pin_low>:
	{
		(value8 & bitMask)?usart_serial_putchar(USART_SERIAL,49):usart_serial_putchar(USART_SERIAL,48);
		bitMask=bitMask>>1;
	}
	usart_serial_putchar(USART_SERIAL,'\n');
}
    1b7e:	cf 93       	push	r28
    1b80:	df 93       	push	r29
    1b82:	cd b7       	in	r28, 0x3d	; 61
    1b84:	de b7       	in	r29, 0x3e	; 62
    1b86:	2a 97       	sbiw	r28, 0x0a	; 10
    1b88:	cd bf       	out	0x3d, r28	; 61
    1b8a:	de bf       	out	0x3e, r29	; 62
    1b8c:	8a 87       	std	Y+10, r24	; 0x0a
    1b8e:	8a 85       	ldd	r24, Y+10	; 0x0a
    1b90:	89 83       	std	Y+1, r24	; 0x01
    1b92:	1a 82       	std	Y+2, r1	; 0x02
    1b94:	89 81       	ldd	r24, Y+1	; 0x01
    1b96:	8b 83       	std	Y+3, r24	; 0x03
    1b98:	8b 81       	ldd	r24, Y+3	; 0x03
    1b9a:	8c 83       	std	Y+4, r24	; 0x04
    1b9c:	8c 81       	ldd	r24, Y+4	; 0x04
    1b9e:	86 95       	lsr	r24
    1ba0:	86 95       	lsr	r24
    1ba2:	86 95       	lsr	r24
    1ba4:	8d 83       	std	Y+5, r24	; 0x05
    1ba6:	8d 81       	ldd	r24, Y+5	; 0x05
    1ba8:	88 2f       	mov	r24, r24
    1baa:	90 e0       	ldi	r25, 0x00	; 0
    1bac:	88 0f       	add	r24, r24
    1bae:	99 1f       	adc	r25, r25
    1bb0:	82 95       	swap	r24
    1bb2:	92 95       	swap	r25
    1bb4:	90 7f       	andi	r25, 0xF0	; 240
    1bb6:	98 27       	eor	r25, r24
    1bb8:	80 7f       	andi	r24, 0xF0	; 240
    1bba:	98 27       	eor	r25, r24
    1bbc:	9a 5f       	subi	r25, 0xFA	; 250
    1bbe:	8e 83       	std	Y+6, r24	; 0x06
    1bc0:	9f 83       	std	Y+7, r25	; 0x07
    1bc2:	8a 81       	ldd	r24, Y+2	; 0x02
    1bc4:	88 23       	and	r24, r24
    1bc6:	a9 f0       	breq	.+42     	; 0x1bf2 <ioport_set_pin_low+0x74>
    1bc8:	89 81       	ldd	r24, Y+1	; 0x01
    1bca:	88 87       	std	Y+8, r24	; 0x08
    1bcc:	88 85       	ldd	r24, Y+8	; 0x08
    1bce:	88 2f       	mov	r24, r24
    1bd0:	90 e0       	ldi	r25, 0x00	; 0
    1bd2:	9c 01       	movw	r18, r24
    1bd4:	27 70       	andi	r18, 0x07	; 7
    1bd6:	33 27       	eor	r19, r19
    1bd8:	81 e0       	ldi	r24, 0x01	; 1
    1bda:	90 e0       	ldi	r25, 0x00	; 0
    1bdc:	02 c0       	rjmp	.+4      	; 0x1be2 <ioport_set_pin_low+0x64>
    1bde:	88 0f       	add	r24, r24
    1be0:	99 1f       	adc	r25, r25
    1be2:	2a 95       	dec	r18
    1be4:	e2 f7       	brpl	.-8      	; 0x1bde <ioport_set_pin_low+0x60>
    1be6:	28 2f       	mov	r18, r24
    1be8:	8e 81       	ldd	r24, Y+6	; 0x06
    1bea:	9f 81       	ldd	r25, Y+7	; 0x07
    1bec:	fc 01       	movw	r30, r24
    1bee:	25 83       	std	Z+5, r18	; 0x05
    1bf0:	14 c0       	rjmp	.+40     	; 0x1c1a <ioport_set_pin_low+0x9c>
    1bf2:	89 81       	ldd	r24, Y+1	; 0x01
    1bf4:	89 87       	std	Y+9, r24	; 0x09
    1bf6:	89 85       	ldd	r24, Y+9	; 0x09
    1bf8:	88 2f       	mov	r24, r24
    1bfa:	90 e0       	ldi	r25, 0x00	; 0
    1bfc:	9c 01       	movw	r18, r24
    1bfe:	27 70       	andi	r18, 0x07	; 7
    1c00:	33 27       	eor	r19, r19
    1c02:	81 e0       	ldi	r24, 0x01	; 1
    1c04:	90 e0       	ldi	r25, 0x00	; 0
    1c06:	02 c0       	rjmp	.+4      	; 0x1c0c <ioport_set_pin_low+0x8e>
    1c08:	88 0f       	add	r24, r24
    1c0a:	99 1f       	adc	r25, r25
    1c0c:	2a 95       	dec	r18
    1c0e:	e2 f7       	brpl	.-8      	; 0x1c08 <ioport_set_pin_low+0x8a>
    1c10:	28 2f       	mov	r18, r24
    1c12:	8e 81       	ldd	r24, Y+6	; 0x06
    1c14:	9f 81       	ldd	r25, Y+7	; 0x07
    1c16:	fc 01       	movw	r30, r24
    1c18:	26 83       	std	Z+6, r18	; 0x06
    1c1a:	00 00       	nop
    1c1c:	2a 96       	adiw	r28, 0x0a	; 10
    1c1e:	cd bf       	out	0x3d, r28	; 61
    1c20:	de bf       	out	0x3e, r29	; 62
    1c22:	df 91       	pop	r29
    1c24:	cf 91       	pop	r28
    1c26:	08 95       	ret

00001c28 <ioport_set_pin_high>:
    1c28:	cf 93       	push	r28
    1c2a:	df 93       	push	r29
    1c2c:	cd b7       	in	r28, 0x3d	; 61
    1c2e:	de b7       	in	r29, 0x3e	; 62
    1c30:	2a 97       	sbiw	r28, 0x0a	; 10
    1c32:	cd bf       	out	0x3d, r28	; 61
    1c34:	de bf       	out	0x3e, r29	; 62
    1c36:	8a 87       	std	Y+10, r24	; 0x0a
    1c38:	8a 85       	ldd	r24, Y+10	; 0x0a
    1c3a:	89 83       	std	Y+1, r24	; 0x01
    1c3c:	81 e0       	ldi	r24, 0x01	; 1
    1c3e:	8a 83       	std	Y+2, r24	; 0x02
    1c40:	89 81       	ldd	r24, Y+1	; 0x01
    1c42:	8b 83       	std	Y+3, r24	; 0x03
    1c44:	8b 81       	ldd	r24, Y+3	; 0x03
    1c46:	8c 83       	std	Y+4, r24	; 0x04
    1c48:	8c 81       	ldd	r24, Y+4	; 0x04
    1c4a:	86 95       	lsr	r24
    1c4c:	86 95       	lsr	r24
    1c4e:	86 95       	lsr	r24
    1c50:	8d 83       	std	Y+5, r24	; 0x05
    1c52:	8d 81       	ldd	r24, Y+5	; 0x05
    1c54:	88 2f       	mov	r24, r24
    1c56:	90 e0       	ldi	r25, 0x00	; 0
    1c58:	88 0f       	add	r24, r24
    1c5a:	99 1f       	adc	r25, r25
    1c5c:	82 95       	swap	r24
    1c5e:	92 95       	swap	r25
    1c60:	90 7f       	andi	r25, 0xF0	; 240
    1c62:	98 27       	eor	r25, r24
    1c64:	80 7f       	andi	r24, 0xF0	; 240
    1c66:	98 27       	eor	r25, r24
    1c68:	9a 5f       	subi	r25, 0xFA	; 250
    1c6a:	8e 83       	std	Y+6, r24	; 0x06
    1c6c:	9f 83       	std	Y+7, r25	; 0x07
    1c6e:	8a 81       	ldd	r24, Y+2	; 0x02
    1c70:	88 23       	and	r24, r24
    1c72:	a9 f0       	breq	.+42     	; 0x1c9e <ioport_set_pin_high+0x76>
    1c74:	89 81       	ldd	r24, Y+1	; 0x01
    1c76:	88 87       	std	Y+8, r24	; 0x08
    1c78:	88 85       	ldd	r24, Y+8	; 0x08
    1c7a:	88 2f       	mov	r24, r24
    1c7c:	90 e0       	ldi	r25, 0x00	; 0
    1c7e:	9c 01       	movw	r18, r24
    1c80:	27 70       	andi	r18, 0x07	; 7
    1c82:	33 27       	eor	r19, r19
    1c84:	81 e0       	ldi	r24, 0x01	; 1
    1c86:	90 e0       	ldi	r25, 0x00	; 0
    1c88:	02 c0       	rjmp	.+4      	; 0x1c8e <ioport_set_pin_high+0x66>
    1c8a:	88 0f       	add	r24, r24
    1c8c:	99 1f       	adc	r25, r25
    1c8e:	2a 95       	dec	r18
    1c90:	e2 f7       	brpl	.-8      	; 0x1c8a <ioport_set_pin_high+0x62>
    1c92:	28 2f       	mov	r18, r24
    1c94:	8e 81       	ldd	r24, Y+6	; 0x06
    1c96:	9f 81       	ldd	r25, Y+7	; 0x07
    1c98:	fc 01       	movw	r30, r24
    1c9a:	25 83       	std	Z+5, r18	; 0x05
    1c9c:	14 c0       	rjmp	.+40     	; 0x1cc6 <ioport_set_pin_high+0x9e>
    1c9e:	89 81       	ldd	r24, Y+1	; 0x01
    1ca0:	89 87       	std	Y+9, r24	; 0x09
    1ca2:	89 85       	ldd	r24, Y+9	; 0x09
    1ca4:	88 2f       	mov	r24, r24
    1ca6:	90 e0       	ldi	r25, 0x00	; 0
    1ca8:	9c 01       	movw	r18, r24
    1caa:	27 70       	andi	r18, 0x07	; 7
    1cac:	33 27       	eor	r19, r19
    1cae:	81 e0       	ldi	r24, 0x01	; 1
    1cb0:	90 e0       	ldi	r25, 0x00	; 0
    1cb2:	02 c0       	rjmp	.+4      	; 0x1cb8 <ioport_set_pin_high+0x90>
    1cb4:	88 0f       	add	r24, r24
    1cb6:	99 1f       	adc	r25, r25
    1cb8:	2a 95       	dec	r18
    1cba:	e2 f7       	brpl	.-8      	; 0x1cb4 <ioport_set_pin_high+0x8c>
    1cbc:	28 2f       	mov	r18, r24
    1cbe:	8e 81       	ldd	r24, Y+6	; 0x06
    1cc0:	9f 81       	ldd	r25, Y+7	; 0x07
    1cc2:	fc 01       	movw	r30, r24
    1cc4:	26 83       	std	Z+6, r18	; 0x06
    1cc6:	00 00       	nop
    1cc8:	2a 96       	adiw	r28, 0x0a	; 10
    1cca:	cd bf       	out	0x3d, r28	; 61
    1ccc:	de bf       	out	0x3e, r29	; 62
    1cce:	df 91       	pop	r29
    1cd0:	cf 91       	pop	r28
    1cd2:	08 95       	ret

00001cd4 <ioport_init>:
    1cd4:	cf 93       	push	r28
    1cd6:	df 93       	push	r29
    1cd8:	cd b7       	in	r28, 0x3d	; 61
    1cda:	de b7       	in	r29, 0x3e	; 62
    1cdc:	00 00       	nop
    1cde:	df 91       	pop	r29
    1ce0:	cf 91       	pop	r28
    1ce2:	08 95       	ret

00001ce4 <ioport_set_pin_dir>:
    1ce4:	cf 93       	push	r28
    1ce6:	df 93       	push	r29
    1ce8:	cd b7       	in	r28, 0x3d	; 61
    1cea:	de b7       	in	r29, 0x3e	; 62
    1cec:	2b 97       	sbiw	r28, 0x0b	; 11
    1cee:	cd bf       	out	0x3d, r28	; 61
    1cf0:	de bf       	out	0x3e, r29	; 62
    1cf2:	8a 87       	std	Y+10, r24	; 0x0a
    1cf4:	6b 87       	std	Y+11, r22	; 0x0b
    1cf6:	8a 85       	ldd	r24, Y+10	; 0x0a
    1cf8:	89 83       	std	Y+1, r24	; 0x01
    1cfa:	8b 85       	ldd	r24, Y+11	; 0x0b
    1cfc:	8a 83       	std	Y+2, r24	; 0x02
    1cfe:	89 81       	ldd	r24, Y+1	; 0x01
    1d00:	8b 83       	std	Y+3, r24	; 0x03
    1d02:	8b 81       	ldd	r24, Y+3	; 0x03
    1d04:	8c 83       	std	Y+4, r24	; 0x04
    1d06:	8c 81       	ldd	r24, Y+4	; 0x04
    1d08:	86 95       	lsr	r24
    1d0a:	86 95       	lsr	r24
    1d0c:	86 95       	lsr	r24
    1d0e:	8d 83       	std	Y+5, r24	; 0x05
    1d10:	8d 81       	ldd	r24, Y+5	; 0x05
    1d12:	88 2f       	mov	r24, r24
    1d14:	90 e0       	ldi	r25, 0x00	; 0
    1d16:	88 0f       	add	r24, r24
    1d18:	99 1f       	adc	r25, r25
    1d1a:	82 95       	swap	r24
    1d1c:	92 95       	swap	r25
    1d1e:	90 7f       	andi	r25, 0xF0	; 240
    1d20:	98 27       	eor	r25, r24
    1d22:	80 7f       	andi	r24, 0xF0	; 240
    1d24:	98 27       	eor	r25, r24
    1d26:	9a 5f       	subi	r25, 0xFA	; 250
    1d28:	8e 83       	std	Y+6, r24	; 0x06
    1d2a:	9f 83       	std	Y+7, r25	; 0x07
    1d2c:	8a 81       	ldd	r24, Y+2	; 0x02
    1d2e:	81 30       	cpi	r24, 0x01	; 1
    1d30:	a9 f4       	brne	.+42     	; 0x1d5c <ioport_set_pin_dir+0x78>
    1d32:	89 81       	ldd	r24, Y+1	; 0x01
    1d34:	88 87       	std	Y+8, r24	; 0x08
    1d36:	88 85       	ldd	r24, Y+8	; 0x08
    1d38:	88 2f       	mov	r24, r24
    1d3a:	90 e0       	ldi	r25, 0x00	; 0
    1d3c:	9c 01       	movw	r18, r24
    1d3e:	27 70       	andi	r18, 0x07	; 7
    1d40:	33 27       	eor	r19, r19
    1d42:	81 e0       	ldi	r24, 0x01	; 1
    1d44:	90 e0       	ldi	r25, 0x00	; 0
    1d46:	02 c0       	rjmp	.+4      	; 0x1d4c <ioport_set_pin_dir+0x68>
    1d48:	88 0f       	add	r24, r24
    1d4a:	99 1f       	adc	r25, r25
    1d4c:	2a 95       	dec	r18
    1d4e:	e2 f7       	brpl	.-8      	; 0x1d48 <ioport_set_pin_dir+0x64>
    1d50:	28 2f       	mov	r18, r24
    1d52:	8e 81       	ldd	r24, Y+6	; 0x06
    1d54:	9f 81       	ldd	r25, Y+7	; 0x07
    1d56:	fc 01       	movw	r30, r24
    1d58:	21 83       	std	Z+1, r18	; 0x01
    1d5a:	17 c0       	rjmp	.+46     	; 0x1d8a <ioport_set_pin_dir+0xa6>
    1d5c:	8a 81       	ldd	r24, Y+2	; 0x02
    1d5e:	88 23       	and	r24, r24
    1d60:	a1 f4       	brne	.+40     	; 0x1d8a <ioport_set_pin_dir+0xa6>
    1d62:	89 81       	ldd	r24, Y+1	; 0x01
    1d64:	89 87       	std	Y+9, r24	; 0x09
    1d66:	89 85       	ldd	r24, Y+9	; 0x09
    1d68:	88 2f       	mov	r24, r24
    1d6a:	90 e0       	ldi	r25, 0x00	; 0
    1d6c:	9c 01       	movw	r18, r24
    1d6e:	27 70       	andi	r18, 0x07	; 7
    1d70:	33 27       	eor	r19, r19
    1d72:	81 e0       	ldi	r24, 0x01	; 1
    1d74:	90 e0       	ldi	r25, 0x00	; 0
    1d76:	02 c0       	rjmp	.+4      	; 0x1d7c <ioport_set_pin_dir+0x98>
    1d78:	88 0f       	add	r24, r24
    1d7a:	99 1f       	adc	r25, r25
    1d7c:	2a 95       	dec	r18
    1d7e:	e2 f7       	brpl	.-8      	; 0x1d78 <ioport_set_pin_dir+0x94>
    1d80:	28 2f       	mov	r18, r24
    1d82:	8e 81       	ldd	r24, Y+6	; 0x06
    1d84:	9f 81       	ldd	r25, Y+7	; 0x07
    1d86:	fc 01       	movw	r30, r24
    1d88:	22 83       	std	Z+2, r18	; 0x02
    1d8a:	00 00       	nop
    1d8c:	2b 96       	adiw	r28, 0x0b	; 11
    1d8e:	cd bf       	out	0x3d, r28	; 61
    1d90:	de bf       	out	0x3e, r29	; 62
    1d92:	df 91       	pop	r29
    1d94:	cf 91       	pop	r28
    1d96:	08 95       	ret

00001d98 <pmic_init>:
    1d98:	cf 93       	push	r28
    1d9a:	df 93       	push	r29
    1d9c:	cd b7       	in	r28, 0x3d	; 61
    1d9e:	de b7       	in	r29, 0x3e	; 62
    1da0:	80 ea       	ldi	r24, 0xA0	; 160
    1da2:	90 e0       	ldi	r25, 0x00	; 0
    1da4:	27 e0       	ldi	r18, 0x07	; 7
    1da6:	fc 01       	movw	r30, r24
    1da8:	22 83       	std	Z+2, r18	; 0x02
    1daa:	00 00       	nop
    1dac:	df 91       	pop	r29
    1dae:	cf 91       	pop	r28
    1db0:	08 95       	ret

00001db2 <tc_set_overflow_interrupt_level>:
    1db2:	cf 93       	push	r28
    1db4:	df 93       	push	r29
    1db6:	00 d0       	rcall	.+0      	; 0x1db8 <tc_set_overflow_interrupt_level+0x6>
    1db8:	cd b7       	in	r28, 0x3d	; 61
    1dba:	de b7       	in	r29, 0x3e	; 62
    1dbc:	89 83       	std	Y+1, r24	; 0x01
    1dbe:	9a 83       	std	Y+2, r25	; 0x02
    1dc0:	6b 83       	std	Y+3, r22	; 0x03
    1dc2:	89 81       	ldd	r24, Y+1	; 0x01
    1dc4:	9a 81       	ldd	r25, Y+2	; 0x02
    1dc6:	fc 01       	movw	r30, r24
    1dc8:	86 81       	ldd	r24, Z+6	; 0x06
    1dca:	28 2f       	mov	r18, r24
    1dcc:	2c 7f       	andi	r18, 0xFC	; 252
    1dce:	89 81       	ldd	r24, Y+1	; 0x01
    1dd0:	9a 81       	ldd	r25, Y+2	; 0x02
    1dd2:	fc 01       	movw	r30, r24
    1dd4:	26 83       	std	Z+6, r18	; 0x06
    1dd6:	89 81       	ldd	r24, Y+1	; 0x01
    1dd8:	9a 81       	ldd	r25, Y+2	; 0x02
    1dda:	fc 01       	movw	r30, r24
    1ddc:	96 81       	ldd	r25, Z+6	; 0x06
    1dde:	8b 81       	ldd	r24, Y+3	; 0x03
    1de0:	29 2f       	mov	r18, r25
    1de2:	28 2b       	or	r18, r24
    1de4:	89 81       	ldd	r24, Y+1	; 0x01
    1de6:	9a 81       	ldd	r25, Y+2	; 0x02
    1de8:	fc 01       	movw	r30, r24
    1dea:	26 83       	std	Z+6, r18	; 0x06
    1dec:	00 00       	nop
    1dee:	23 96       	adiw	r28, 0x03	; 3
    1df0:	cd bf       	out	0x3d, r28	; 61
    1df2:	de bf       	out	0x3e, r29	; 62
    1df4:	df 91       	pop	r29
    1df6:	cf 91       	pop	r28
    1df8:	08 95       	ret

00001dfa <tc_write_clock_source>:
    1dfa:	cf 93       	push	r28
    1dfc:	df 93       	push	r29
    1dfe:	00 d0       	rcall	.+0      	; 0x1e00 <tc_write_clock_source+0x6>
    1e00:	cd b7       	in	r28, 0x3d	; 61
    1e02:	de b7       	in	r29, 0x3e	; 62
    1e04:	89 83       	std	Y+1, r24	; 0x01
    1e06:	9a 83       	std	Y+2, r25	; 0x02
    1e08:	6b 83       	std	Y+3, r22	; 0x03
    1e0a:	89 81       	ldd	r24, Y+1	; 0x01
    1e0c:	9a 81       	ldd	r25, Y+2	; 0x02
    1e0e:	fc 01       	movw	r30, r24
    1e10:	80 81       	ld	r24, Z
    1e12:	98 2f       	mov	r25, r24
    1e14:	90 7f       	andi	r25, 0xF0	; 240
    1e16:	8b 81       	ldd	r24, Y+3	; 0x03
    1e18:	89 2b       	or	r24, r25
    1e1a:	28 2f       	mov	r18, r24
    1e1c:	89 81       	ldd	r24, Y+1	; 0x01
    1e1e:	9a 81       	ldd	r25, Y+2	; 0x02
    1e20:	fc 01       	movw	r30, r24
    1e22:	20 83       	st	Z, r18
    1e24:	00 00       	nop
    1e26:	23 96       	adiw	r28, 0x03	; 3
    1e28:	cd bf       	out	0x3d, r28	; 61
    1e2a:	de bf       	out	0x3e, r29	; 62
    1e2c:	df 91       	pop	r29
    1e2e:	cf 91       	pop	r28
    1e30:	08 95       	ret

00001e32 <tc_set_direction>:
    1e32:	cf 93       	push	r28
    1e34:	df 93       	push	r29
    1e36:	00 d0       	rcall	.+0      	; 0x1e38 <tc_set_direction+0x6>
    1e38:	cd b7       	in	r28, 0x3d	; 61
    1e3a:	de b7       	in	r29, 0x3e	; 62
    1e3c:	89 83       	std	Y+1, r24	; 0x01
    1e3e:	9a 83       	std	Y+2, r25	; 0x02
    1e40:	6b 83       	std	Y+3, r22	; 0x03
    1e42:	8b 81       	ldd	r24, Y+3	; 0x03
    1e44:	88 23       	and	r24, r24
    1e46:	59 f4       	brne	.+22     	; 0x1e5e <tc_set_direction+0x2c>
    1e48:	89 81       	ldd	r24, Y+1	; 0x01
    1e4a:	9a 81       	ldd	r25, Y+2	; 0x02
    1e4c:	fc 01       	movw	r30, r24
    1e4e:	80 85       	ldd	r24, Z+8	; 0x08
    1e50:	8e 6f       	ori	r24, 0xFE	; 254
    1e52:	28 2f       	mov	r18, r24
    1e54:	89 81       	ldd	r24, Y+1	; 0x01
    1e56:	9a 81       	ldd	r25, Y+2	; 0x02
    1e58:	fc 01       	movw	r30, r24
    1e5a:	20 87       	std	Z+8, r18	; 0x08
    1e5c:	0a c0       	rjmp	.+20     	; 0x1e72 <tc_set_direction+0x40>
    1e5e:	89 81       	ldd	r24, Y+1	; 0x01
    1e60:	9a 81       	ldd	r25, Y+2	; 0x02
    1e62:	fc 01       	movw	r30, r24
    1e64:	81 85       	ldd	r24, Z+9	; 0x09
    1e66:	28 2f       	mov	r18, r24
    1e68:	21 60       	ori	r18, 0x01	; 1
    1e6a:	89 81       	ldd	r24, Y+1	; 0x01
    1e6c:	9a 81       	ldd	r25, Y+2	; 0x02
    1e6e:	fc 01       	movw	r30, r24
    1e70:	21 87       	std	Z+9, r18	; 0x09
    1e72:	00 00       	nop
    1e74:	23 96       	adiw	r28, 0x03	; 3
    1e76:	cd bf       	out	0x3d, r28	; 61
    1e78:	de bf       	out	0x3e, r29	; 62
    1e7a:	df 91       	pop	r29
    1e7c:	cf 91       	pop	r28
    1e7e:	08 95       	ret

00001e80 <tc_write_count>:
    1e80:	cf 93       	push	r28
    1e82:	df 93       	push	r29
    1e84:	00 d0       	rcall	.+0      	; 0x1e86 <tc_write_count+0x6>
    1e86:	1f 92       	push	r1
    1e88:	cd b7       	in	r28, 0x3d	; 61
    1e8a:	de b7       	in	r29, 0x3e	; 62
    1e8c:	89 83       	std	Y+1, r24	; 0x01
    1e8e:	9a 83       	std	Y+2, r25	; 0x02
    1e90:	6b 83       	std	Y+3, r22	; 0x03
    1e92:	7c 83       	std	Y+4, r23	; 0x04
    1e94:	89 81       	ldd	r24, Y+1	; 0x01
    1e96:	9a 81       	ldd	r25, Y+2	; 0x02
    1e98:	2b 81       	ldd	r18, Y+3	; 0x03
    1e9a:	3c 81       	ldd	r19, Y+4	; 0x04
    1e9c:	fc 01       	movw	r30, r24
    1e9e:	20 a3       	std	Z+32, r18	; 0x20
    1ea0:	31 a3       	std	Z+33, r19	; 0x21
    1ea2:	00 00       	nop
    1ea4:	24 96       	adiw	r28, 0x04	; 4
    1ea6:	cd bf       	out	0x3d, r28	; 61
    1ea8:	de bf       	out	0x3e, r29	; 62
    1eaa:	df 91       	pop	r29
    1eac:	cf 91       	pop	r28
    1eae:	08 95       	ret

00001eb0 <tc_read_count>:
    1eb0:	cf 93       	push	r28
    1eb2:	df 93       	push	r29
    1eb4:	1f 92       	push	r1
    1eb6:	1f 92       	push	r1
    1eb8:	cd b7       	in	r28, 0x3d	; 61
    1eba:	de b7       	in	r29, 0x3e	; 62
    1ebc:	89 83       	std	Y+1, r24	; 0x01
    1ebe:	9a 83       	std	Y+2, r25	; 0x02
    1ec0:	89 81       	ldd	r24, Y+1	; 0x01
    1ec2:	9a 81       	ldd	r25, Y+2	; 0x02
    1ec4:	fc 01       	movw	r30, r24
    1ec6:	80 a1       	ldd	r24, Z+32	; 0x20
    1ec8:	91 a1       	ldd	r25, Z+33	; 0x21
    1eca:	0f 90       	pop	r0
    1ecc:	0f 90       	pop	r0
    1ece:	df 91       	pop	r29
    1ed0:	cf 91       	pop	r28
    1ed2:	08 95       	ret

00001ed4 <tc_write_period>:
    1ed4:	cf 93       	push	r28
    1ed6:	df 93       	push	r29
    1ed8:	00 d0       	rcall	.+0      	; 0x1eda <tc_write_period+0x6>
    1eda:	1f 92       	push	r1
    1edc:	cd b7       	in	r28, 0x3d	; 61
    1ede:	de b7       	in	r29, 0x3e	; 62
    1ee0:	89 83       	std	Y+1, r24	; 0x01
    1ee2:	9a 83       	std	Y+2, r25	; 0x02
    1ee4:	6b 83       	std	Y+3, r22	; 0x03
    1ee6:	7c 83       	std	Y+4, r23	; 0x04
    1ee8:	89 81       	ldd	r24, Y+1	; 0x01
    1eea:	9a 81       	ldd	r25, Y+2	; 0x02
    1eec:	2b 81       	ldd	r18, Y+3	; 0x03
    1eee:	3c 81       	ldd	r19, Y+4	; 0x04
    1ef0:	fc 01       	movw	r30, r24
    1ef2:	26 a3       	std	Z+38, r18	; 0x26
    1ef4:	37 a3       	std	Z+39, r19	; 0x27
    1ef6:	00 00       	nop
    1ef8:	24 96       	adiw	r28, 0x04	; 4
    1efa:	cd bf       	out	0x3d, r28	; 61
    1efc:	de bf       	out	0x3e, r29	; 62
    1efe:	df 91       	pop	r29
    1f00:	cf 91       	pop	r28
    1f02:	08 95       	ret

00001f04 <tc_clear_overflow>:
    1f04:	cf 93       	push	r28
    1f06:	df 93       	push	r29
    1f08:	1f 92       	push	r1
    1f0a:	1f 92       	push	r1
    1f0c:	cd b7       	in	r28, 0x3d	; 61
    1f0e:	de b7       	in	r29, 0x3e	; 62
    1f10:	89 83       	std	Y+1, r24	; 0x01
    1f12:	9a 83       	std	Y+2, r25	; 0x02
    1f14:	89 81       	ldd	r24, Y+1	; 0x01
    1f16:	9a 81       	ldd	r25, Y+2	; 0x02
    1f18:	fc 01       	movw	r30, r24
    1f1a:	84 85       	ldd	r24, Z+12	; 0x0c
    1f1c:	28 2f       	mov	r18, r24
    1f1e:	21 60       	ori	r18, 0x01	; 1
    1f20:	89 81       	ldd	r24, Y+1	; 0x01
    1f22:	9a 81       	ldd	r25, Y+2	; 0x02
    1f24:	fc 01       	movw	r30, r24
    1f26:	24 87       	std	Z+12, r18	; 0x0c
    1f28:	00 00       	nop
    1f2a:	0f 90       	pop	r0
    1f2c:	0f 90       	pop	r0
    1f2e:	df 91       	pop	r29
    1f30:	cf 91       	pop	r28
    1f32:	08 95       	ret

00001f34 <tc_set_wgm>:
    1f34:	cf 93       	push	r28
    1f36:	df 93       	push	r29
    1f38:	00 d0       	rcall	.+0      	; 0x1f3a <tc_set_wgm+0x6>
    1f3a:	cd b7       	in	r28, 0x3d	; 61
    1f3c:	de b7       	in	r29, 0x3e	; 62
    1f3e:	89 83       	std	Y+1, r24	; 0x01
    1f40:	9a 83       	std	Y+2, r25	; 0x02
    1f42:	6b 83       	std	Y+3, r22	; 0x03
    1f44:	89 81       	ldd	r24, Y+1	; 0x01
    1f46:	9a 81       	ldd	r25, Y+2	; 0x02
    1f48:	fc 01       	movw	r30, r24
    1f4a:	81 81       	ldd	r24, Z+1	; 0x01
    1f4c:	98 2f       	mov	r25, r24
    1f4e:	98 7f       	andi	r25, 0xF8	; 248
    1f50:	8b 81       	ldd	r24, Y+3	; 0x03
    1f52:	89 2b       	or	r24, r25
    1f54:	28 2f       	mov	r18, r24
    1f56:	89 81       	ldd	r24, Y+1	; 0x01
    1f58:	9a 81       	ldd	r25, Y+2	; 0x02
    1f5a:	fc 01       	movw	r30, r24
    1f5c:	21 83       	std	Z+1, r18	; 0x01
    1f5e:	00 00       	nop
    1f60:	23 96       	adiw	r28, 0x03	; 3
    1f62:	cd bf       	out	0x3d, r28	; 61
    1f64:	de bf       	out	0x3e, r29	; 62
    1f66:	df 91       	pop	r29
    1f68:	cf 91       	pop	r28
    1f6a:	08 95       	ret

00001f6c <usart_serial_init>:
    1f6c:	cf 93       	push	r28
    1f6e:	df 93       	push	r29
    1f70:	cd b7       	in	r28, 0x3d	; 61
    1f72:	de b7       	in	r29, 0x3e	; 62
    1f74:	2b 97       	sbiw	r28, 0x0b	; 11
    1f76:	cd bf       	out	0x3d, r28	; 61
    1f78:	de bf       	out	0x3e, r29	; 62
    1f7a:	88 87       	std	Y+8, r24	; 0x08
    1f7c:	99 87       	std	Y+9, r25	; 0x09
    1f7e:	6a 87       	std	Y+10, r22	; 0x0a
    1f80:	7b 87       	std	Y+11, r23	; 0x0b
    1f82:	8a 85       	ldd	r24, Y+10	; 0x0a
    1f84:	9b 85       	ldd	r25, Y+11	; 0x0b
    1f86:	fc 01       	movw	r30, r24
    1f88:	84 81       	ldd	r24, Z+4	; 0x04
    1f8a:	8d 83       	std	Y+5, r24	; 0x05
    1f8c:	8a 85       	ldd	r24, Y+10	; 0x0a
    1f8e:	9b 85       	ldd	r25, Y+11	; 0x0b
    1f90:	fc 01       	movw	r30, r24
    1f92:	85 81       	ldd	r24, Z+5	; 0x05
    1f94:	8e 83       	std	Y+6, r24	; 0x06
    1f96:	8a 85       	ldd	r24, Y+10	; 0x0a
    1f98:	9b 85       	ldd	r25, Y+11	; 0x0b
    1f9a:	fc 01       	movw	r30, r24
    1f9c:	86 81       	ldd	r24, Z+6	; 0x06
    1f9e:	8f 83       	std	Y+7, r24	; 0x07
    1fa0:	8a 85       	ldd	r24, Y+10	; 0x0a
    1fa2:	9b 85       	ldd	r25, Y+11	; 0x0b
    1fa4:	fc 01       	movw	r30, r24
    1fa6:	80 81       	ld	r24, Z
    1fa8:	91 81       	ldd	r25, Z+1	; 0x01
    1faa:	a2 81       	ldd	r26, Z+2	; 0x02
    1fac:	b3 81       	ldd	r27, Z+3	; 0x03
    1fae:	89 83       	std	Y+1, r24	; 0x01
    1fb0:	9a 83       	std	Y+2, r25	; 0x02
    1fb2:	ab 83       	std	Y+3, r26	; 0x03
    1fb4:	bc 83       	std	Y+4, r27	; 0x04
    1fb6:	88 85       	ldd	r24, Y+8	; 0x08
    1fb8:	99 85       	ldd	r25, Y+9	; 0x09
    1fba:	80 3a       	cpi	r24, 0xA0	; 160
    1fbc:	98 40       	sbci	r25, 0x08	; 8
    1fbe:	19 f4       	brne	.+6      	; 0x1fc6 <usart_serial_init+0x5a>
    1fc0:	60 e1       	ldi	r22, 0x10	; 16
    1fc2:	83 e0       	ldi	r24, 0x03	; 3
    1fc4:	32 d3       	rcall	.+1636   	; 0x262a <sysclk_enable_module>
    1fc6:	88 85       	ldd	r24, Y+8	; 0x08
    1fc8:	99 85       	ldd	r25, Y+9	; 0x09
    1fca:	80 3a       	cpi	r24, 0xA0	; 160
    1fcc:	99 40       	sbci	r25, 0x09	; 9
    1fce:	19 f4       	brne	.+6      	; 0x1fd6 <usart_serial_init+0x6a>
    1fd0:	60 e1       	ldi	r22, 0x10	; 16
    1fd2:	84 e0       	ldi	r24, 0x04	; 4
    1fd4:	2a d3       	rcall	.+1620   	; 0x262a <sysclk_enable_module>
    1fd6:	88 85       	ldd	r24, Y+8	; 0x08
    1fd8:	99 85       	ldd	r25, Y+9	; 0x09
    1fda:	9e 01       	movw	r18, r28
    1fdc:	2f 5f       	subi	r18, 0xFF	; 255
    1fde:	3f 4f       	sbci	r19, 0xFF	; 255
    1fe0:	b9 01       	movw	r22, r18
    1fe2:	9e da       	rcall	.-2756   	; 0x1520 <usart_init_rs232>
    1fe4:	88 23       	and	r24, r24
    1fe6:	11 f0       	breq	.+4      	; 0x1fec <usart_serial_init+0x80>
    1fe8:	81 e0       	ldi	r24, 0x01	; 1
    1fea:	01 c0       	rjmp	.+2      	; 0x1fee <usart_serial_init+0x82>
    1fec:	80 e0       	ldi	r24, 0x00	; 0
    1fee:	2b 96       	adiw	r28, 0x0b	; 11
    1ff0:	cd bf       	out	0x3d, r28	; 61
    1ff2:	de bf       	out	0x3e, r29	; 62
    1ff4:	df 91       	pop	r29
    1ff6:	cf 91       	pop	r28
    1ff8:	08 95       	ret

00001ffa <usart_serial_putchar>:
    1ffa:	cf 93       	push	r28
    1ffc:	df 93       	push	r29
    1ffe:	00 d0       	rcall	.+0      	; 0x2000 <usart_serial_putchar+0x6>
    2000:	cd b7       	in	r28, 0x3d	; 61
    2002:	de b7       	in	r29, 0x3e	; 62
    2004:	89 83       	std	Y+1, r24	; 0x01
    2006:	9a 83       	std	Y+2, r25	; 0x02
    2008:	6b 83       	std	Y+3, r22	; 0x03
    200a:	89 81       	ldd	r24, Y+1	; 0x01
    200c:	9a 81       	ldd	r25, Y+2	; 0x02
    200e:	6b 81       	ldd	r22, Y+3	; 0x03
    2010:	cd da       	rcall	.-2662   	; 0x15ac <usart_putchar>
    2012:	23 96       	adiw	r28, 0x03	; 3
    2014:	cd bf       	out	0x3d, r28	; 61
    2016:	de bf       	out	0x3e, r29	; 62
    2018:	df 91       	pop	r29
    201a:	cf 91       	pop	r28
    201c:	08 95       	ret

0000201e <usart_serial_getchar>:
    201e:	cf 93       	push	r28
    2020:	df 93       	push	r29
    2022:	00 d0       	rcall	.+0      	; 0x2024 <usart_serial_getchar+0x6>
    2024:	1f 92       	push	r1
    2026:	cd b7       	in	r28, 0x3d	; 61
    2028:	de b7       	in	r29, 0x3e	; 62
    202a:	89 83       	std	Y+1, r24	; 0x01
    202c:	9a 83       	std	Y+2, r25	; 0x02
    202e:	6b 83       	std	Y+3, r22	; 0x03
    2030:	7c 83       	std	Y+4, r23	; 0x04
    2032:	89 81       	ldd	r24, Y+1	; 0x01
    2034:	9a 81       	ldd	r25, Y+2	; 0x02
    2036:	d8 da       	rcall	.-2640   	; 0x15e8 <usart_getchar>
    2038:	28 2f       	mov	r18, r24
    203a:	8b 81       	ldd	r24, Y+3	; 0x03
    203c:	9c 81       	ldd	r25, Y+4	; 0x04
    203e:	fc 01       	movw	r30, r24
    2040:	20 83       	st	Z, r18
    2042:	00 00       	nop
    2044:	24 96       	adiw	r28, 0x04	; 4
    2046:	cd bf       	out	0x3d, r28	; 61
    2048:	de bf       	out	0x3e, r29	; 62
    204a:	df 91       	pop	r29
    204c:	cf 91       	pop	r28
    204e:	08 95       	ret

00002050 <main>:
    2050:	cf 93       	push	r28
    2052:	df 93       	push	r29
    2054:	00 d0       	rcall	.+0      	; 0x2056 <main+0x6>
    2056:	00 d0       	rcall	.+0      	; 0x2058 <main+0x8>
    2058:	cd b7       	in	r28, 0x3d	; 61
    205a:	de b7       	in	r29, 0x3e	; 62
    205c:	1c 82       	std	Y+4, r1	; 0x04
    205e:	1d 82       	std	Y+5, r1	; 0x05
    2060:	b6 d0       	rcall	.+364    	; 0x21ce <CWPlatInit>
    2062:	19 82       	std	Y+1, r1	; 0x01
    2064:	1a 82       	std	Y+2, r1	; 0x02
    2066:	ce 01       	movw	r24, r28
    2068:	06 96       	adiw	r24, 0x06	; 6
    206a:	bc 01       	movw	r22, r24
    206c:	80 ea       	ldi	r24, 0xA0	; 160
    206e:	98 e0       	ldi	r25, 0x08	; 8
    2070:	d6 df       	rcall	.-84     	; 0x201e <usart_serial_getchar>
    2072:	8e 81       	ldd	r24, Y+6	; 0x06
    2074:	88 37       	cpi	r24, 0x78	; 120
    2076:	19 f4       	brne	.+6      	; 0x207e <main+0x2e>
    2078:	19 82       	std	Y+1, r1	; 0x01
    207a:	1a 82       	std	Y+2, r1	; 0x02
    207c:	a7 c0       	rjmp	.+334    	; 0x21cc <main+0x17c>
    207e:	8e 81       	ldd	r24, Y+6	; 0x06
    2080:	8b 36       	cpi	r24, 0x6B	; 107
    2082:	21 f4       	brne	.+8      	; 0x208c <main+0x3c>
    2084:	19 82       	std	Y+1, r1	; 0x01
    2086:	81 e0       	ldi	r24, 0x01	; 1
    2088:	8a 83       	std	Y+2, r24	; 0x02
    208a:	a0 c0       	rjmp	.+320    	; 0x21cc <main+0x17c>
    208c:	8e 81       	ldd	r24, Y+6	; 0x06
    208e:	80 37       	cpi	r24, 0x70	; 112
    2090:	21 f4       	brne	.+8      	; 0x209a <main+0x4a>
    2092:	19 82       	std	Y+1, r1	; 0x01
    2094:	82 e0       	ldi	r24, 0x02	; 2
    2096:	8a 83       	std	Y+2, r24	; 0x02
    2098:	99 c0       	rjmp	.+306    	; 0x21cc <main+0x17c>
    209a:	8a 81       	ldd	r24, Y+2	; 0x02
    209c:	81 30       	cpi	r24, 0x01	; 1
    209e:	21 f5       	brne	.+72     	; 0x20e8 <main+0x98>
    20a0:	8e 81       	ldd	r24, Y+6	; 0x06
    20a2:	8a 30       	cpi	r24, 0x0A	; 10
    20a4:	19 f0       	breq	.+6      	; 0x20ac <main+0x5c>
    20a6:	8e 81       	ldd	r24, Y+6	; 0x06
    20a8:	8d 30       	cpi	r24, 0x0D	; 13
    20aa:	91 f4       	brne	.+36     	; 0x20d0 <main+0x80>
    20ac:	89 81       	ldd	r24, Y+1	; 0x01
    20ae:	88 2f       	mov	r24, r24
    20b0:	90 e0       	ldi	r25, 0x00	; 0
    20b2:	86 5a       	subi	r24, 0xA6	; 166
    20b4:	9e 4d       	sbci	r25, 0xDE	; 222
    20b6:	fc 01       	movw	r30, r24
    20b8:	10 82       	st	Z, r1
    20ba:	89 81       	ldd	r24, Y+1	; 0x01
    20bc:	88 2f       	mov	r24, r24
    20be:	90 e0       	ldi	r25, 0x00	; 0
    20c0:	4a ef       	ldi	r20, 0xFA	; 250
    20c2:	51 e2       	ldi	r21, 0x21	; 33
    20c4:	bc 01       	movw	r22, r24
    20c6:	8a e5       	ldi	r24, 0x5A	; 90
    20c8:	91 e2       	ldi	r25, 0x21	; 33
    20ca:	66 dc       	rcall	.-1844   	; 0x1998 <hex_decode>
    20cc:	1a 82       	std	Y+2, r1	; 0x02
    20ce:	7e c0       	rjmp	.+252    	; 0x21cc <main+0x17c>
    20d0:	89 81       	ldd	r24, Y+1	; 0x01
    20d2:	91 e0       	ldi	r25, 0x01	; 1
    20d4:	98 0f       	add	r25, r24
    20d6:	99 83       	std	Y+1, r25	; 0x01
    20d8:	88 2f       	mov	r24, r24
    20da:	90 e0       	ldi	r25, 0x00	; 0
    20dc:	2e 81       	ldd	r18, Y+6	; 0x06
    20de:	86 5a       	subi	r24, 0xA6	; 166
    20e0:	9e 4d       	sbci	r25, 0xDE	; 222
    20e2:	fc 01       	movw	r30, r24
    20e4:	20 83       	st	Z, r18
    20e6:	bf cf       	rjmp	.-130    	; 0x2066 <main+0x16>
    20e8:	8a 81       	ldd	r24, Y+2	; 0x02
    20ea:	82 30       	cpi	r24, 0x02	; 2
    20ec:	09 f0       	breq	.+2      	; 0x20f0 <main+0xa0>
    20ee:	bb cf       	rjmp	.-138    	; 0x2066 <main+0x16>
    20f0:	8e 81       	ldd	r24, Y+6	; 0x06
    20f2:	8a 30       	cpi	r24, 0x0A	; 10
    20f4:	21 f0       	breq	.+8      	; 0x20fe <main+0xae>
    20f6:	8e 81       	ldd	r24, Y+6	; 0x06
    20f8:	8d 30       	cpi	r24, 0x0D	; 13
    20fa:	09 f0       	breq	.+2      	; 0x20fe <main+0xae>
    20fc:	57 c0       	rjmp	.+174    	; 0x21ac <main+0x15c>
    20fe:	89 81       	ldd	r24, Y+1	; 0x01
    2100:	88 2f       	mov	r24, r24
    2102:	90 e0       	ldi	r25, 0x00	; 0
    2104:	86 5a       	subi	r24, 0xA6	; 166
    2106:	9e 4d       	sbci	r25, 0xDE	; 222
    2108:	fc 01       	movw	r30, r24
    210a:	10 82       	st	Z, r1
    210c:	89 81       	ldd	r24, Y+1	; 0x01
    210e:	88 2f       	mov	r24, r24
    2110:	90 e0       	ldi	r25, 0x00	; 0
    2112:	4a e9       	ldi	r20, 0x9A	; 154
    2114:	51 e2       	ldi	r21, 0x21	; 33
    2116:	bc 01       	movw	r22, r24
    2118:	8a e5       	ldi	r24, 0x5A	; 90
    211a:	91 e2       	ldi	r25, 0x21	; 33
    211c:	3d dc       	rcall	.-1926   	; 0x1998 <hex_decode>
    211e:	60 e0       	ldi	r22, 0x00	; 0
    2120:	70 e0       	ldi	r23, 0x00	; 0
    2122:	80 e0       	ldi	r24, 0x00	; 0
    2124:	98 e0       	ldi	r25, 0x08	; 8
    2126:	ac de       	rcall	.-680    	; 0x1e80 <tc_write_count>
    2128:	61 e0       	ldi	r22, 0x01	; 1
    212a:	80 e0       	ldi	r24, 0x00	; 0
    212c:	98 e0       	ldi	r25, 0x08	; 8
    212e:	65 de       	rcall	.-822    	; 0x1dfa <tc_write_clock_source>
    2130:	80 e0       	ldi	r24, 0x00	; 0
    2132:	7a dd       	rcall	.-1292   	; 0x1c28 <ioport_set_pin_high>
    2134:	76 d1       	rcall	.+748    	; 0x2422 <aesEnc>
    2136:	80 e0       	ldi	r24, 0x00	; 0
    2138:	98 e0       	ldi	r25, 0x08	; 8
    213a:	ba de       	rcall	.-652    	; 0x1eb0 <tc_read_count>
    213c:	8c 83       	std	Y+4, r24	; 0x04
    213e:	9d 83       	std	Y+5, r25	; 0x05
    2140:	60 e0       	ldi	r22, 0x00	; 0
    2142:	80 e0       	ldi	r24, 0x00	; 0
    2144:	98 e0       	ldi	r25, 0x08	; 8
    2146:	35 de       	rcall	.-918    	; 0x1db2 <tc_set_overflow_interrupt_level>
    2148:	60 e0       	ldi	r22, 0x00	; 0
    214a:	80 e0       	ldi	r24, 0x00	; 0
    214c:	98 e0       	ldi	r25, 0x08	; 8
    214e:	55 de       	rcall	.-854    	; 0x1dfa <tc_write_clock_source>
    2150:	80 e0       	ldi	r24, 0x00	; 0
    2152:	15 dd       	rcall	.-1494   	; 0x1b7e <ioport_set_pin_low>
    2154:	4a e5       	ldi	r20, 0x5A	; 90
    2156:	51 e2       	ldi	r21, 0x21	; 33
    2158:	60 e1       	ldi	r22, 0x10	; 16
    215a:	70 e0       	ldi	r23, 0x00	; 0
    215c:	8a ee       	ldi	r24, 0xEA	; 234
    215e:	91 e2       	ldi	r25, 0x21	; 33
    2160:	a6 dc       	rcall	.-1716   	; 0x1aae <hex_print>
    2162:	62 e7       	ldi	r22, 0x72	; 114
    2164:	80 ea       	ldi	r24, 0xA0	; 160
    2166:	98 e0       	ldi	r25, 0x08	; 8
    2168:	48 df       	rcall	.-368    	; 0x1ffa <usart_serial_putchar>
    216a:	1b 82       	std	Y+3, r1	; 0x03
    216c:	0e c0       	rjmp	.+28     	; 0x218a <main+0x13a>
    216e:	8b 81       	ldd	r24, Y+3	; 0x03
    2170:	88 2f       	mov	r24, r24
    2172:	90 e0       	ldi	r25, 0x00	; 0
    2174:	86 5a       	subi	r24, 0xA6	; 166
    2176:	9e 4d       	sbci	r25, 0xDE	; 222
    2178:	fc 01       	movw	r30, r24
    217a:	80 81       	ld	r24, Z
    217c:	68 2f       	mov	r22, r24
    217e:	80 ea       	ldi	r24, 0xA0	; 160
    2180:	98 e0       	ldi	r25, 0x08	; 8
    2182:	3b df       	rcall	.-394    	; 0x1ffa <usart_serial_putchar>
    2184:	8b 81       	ldd	r24, Y+3	; 0x03
    2186:	8f 5f       	subi	r24, 0xFF	; 255
    2188:	8b 83       	std	Y+3, r24	; 0x03
    218a:	8b 81       	ldd	r24, Y+3	; 0x03
    218c:	80 32       	cpi	r24, 0x20	; 32
    218e:	78 f3       	brcs	.-34     	; 0x216e <main+0x11e>
    2190:	6a e0       	ldi	r22, 0x0A	; 10
    2192:	80 ea       	ldi	r24, 0xA0	; 160
    2194:	98 e0       	ldi	r25, 0x08	; 8
    2196:	31 df       	rcall	.-414    	; 0x1ffa <usart_serial_putchar>
    2198:	80 91 24 21 	lds	r24, 0x2124	; 0x802124 <__data_end>
    219c:	90 91 25 21 	lds	r25, 0x2125	; 0x802125 <__data_end+0x1>
    21a0:	70 d0       	rcall	.+224    	; 0x2282 <sendUint16>
    21a2:	8c 81       	ldd	r24, Y+4	; 0x04
    21a4:	9d 81       	ldd	r25, Y+5	; 0x05
    21a6:	6d d0       	rcall	.+218    	; 0x2282 <sendUint16>
    21a8:	1a 82       	std	Y+2, r1	; 0x02
    21aa:	10 c0       	rjmp	.+32     	; 0x21cc <main+0x17c>
    21ac:	89 81       	ldd	r24, Y+1	; 0x01
    21ae:	80 34       	cpi	r24, 0x40	; 64
    21b0:	10 f0       	brcs	.+4      	; 0x21b6 <main+0x166>
    21b2:	1a 82       	std	Y+2, r1	; 0x02
    21b4:	58 cf       	rjmp	.-336    	; 0x2066 <main+0x16>
    21b6:	89 81       	ldd	r24, Y+1	; 0x01
    21b8:	91 e0       	ldi	r25, 0x01	; 1
    21ba:	98 0f       	add	r25, r24
    21bc:	99 83       	std	Y+1, r25	; 0x01
    21be:	88 2f       	mov	r24, r24
    21c0:	90 e0       	ldi	r25, 0x00	; 0
    21c2:	2e 81       	ldd	r18, Y+6	; 0x06
    21c4:	86 5a       	subi	r24, 0xA6	; 166
    21c6:	9e 4d       	sbci	r25, 0xDE	; 222
    21c8:	fc 01       	movw	r30, r24
    21ca:	20 83       	st	Z, r18
    21cc:	4c cf       	rjmp	.-360    	; 0x2066 <main+0x16>

000021ce <CWPlatInit>:
    21ce:	cf 93       	push	r28
    21d0:	df 93       	push	r29
    21d2:	cd b7       	in	r28, 0x3d	; 61
    21d4:	de b7       	in	r29, 0x3e	; 62
    21d6:	f8 d1       	rcall	.+1008   	; 0x25c8 <sysclk_init>
    21d8:	7d dd       	rcall	.-1286   	; 0x1cd4 <ioport_init>
    21da:	61 e0       	ldi	r22, 0x01	; 1
    21dc:	83 e1       	ldi	r24, 0x13	; 19
    21de:	82 dd       	rcall	.-1276   	; 0x1ce4 <ioport_set_pin_dir>
    21e0:	60 e0       	ldi	r22, 0x00	; 0
    21e2:	82 e1       	ldi	r24, 0x12	; 18
    21e4:	7f dd       	rcall	.-1282   	; 0x1ce4 <ioport_set_pin_dir>
    21e6:	61 e0       	ldi	r22, 0x01	; 1
    21e8:	80 e0       	ldi	r24, 0x00	; 0
    21ea:	7c dd       	rcall	.-1288   	; 0x1ce4 <ioport_set_pin_dir>
    21ec:	61 e0       	ldi	r22, 0x01	; 1
    21ee:	85 e0       	ldi	r24, 0x05	; 5
    21f0:	79 dd       	rcall	.-1294   	; 0x1ce4 <ioport_set_pin_dir>
    21f2:	85 e0       	ldi	r24, 0x05	; 5
    21f4:	c4 dc       	rcall	.-1656   	; 0x1b7e <ioport_set_pin_low>
    21f6:	61 e0       	ldi	r22, 0x01	; 1
    21f8:	86 e0       	ldi	r24, 0x06	; 6
    21fa:	74 dd       	rcall	.-1304   	; 0x1ce4 <ioport_set_pin_dir>
    21fc:	86 e0       	ldi	r24, 0x06	; 6
    21fe:	14 dd       	rcall	.-1496   	; 0x1c28 <ioport_set_pin_high>
    2200:	6c e1       	ldi	r22, 0x1C	; 28
    2202:	71 e2       	ldi	r23, 0x21	; 33
    2204:	80 ea       	ldi	r24, 0xA0	; 160
    2206:	98 e0       	ldi	r25, 0x08	; 8
    2208:	b1 de       	rcall	.-670    	; 0x1f6c <usart_serial_init>
    220a:	c6 dd       	rcall	.-1140   	; 0x1d98 <pmic_init>
    220c:	80 e0       	ldi	r24, 0x00	; 0
    220e:	98 e0       	ldi	r25, 0x08	; 8
    2210:	b6 d7       	rcall	.+3948   	; 0x317e <tc_enable>
    2212:	64 e2       	ldi	r22, 0x24	; 36
    2214:	71 e1       	ldi	r23, 0x11	; 17
    2216:	80 e0       	ldi	r24, 0x00	; 0
    2218:	98 e0       	ldi	r25, 0x08	; 8
    221a:	f7 d7       	rcall	.+4078   	; 0x320a <tc_set_overflow_interrupt_callback>
    221c:	60 e0       	ldi	r22, 0x00	; 0
    221e:	80 e0       	ldi	r24, 0x00	; 0
    2220:	98 e0       	ldi	r25, 0x08	; 8
    2222:	88 de       	rcall	.-752    	; 0x1f34 <tc_set_wgm>
    2224:	61 ee       	ldi	r22, 0xE1	; 225
    2226:	72 e0       	ldi	r23, 0x02	; 2
    2228:	80 e0       	ldi	r24, 0x00	; 0
    222a:	98 e0       	ldi	r25, 0x08	; 8
    222c:	53 de       	rcall	.-858    	; 0x1ed4 <tc_write_period>
    222e:	61 e0       	ldi	r22, 0x01	; 1
    2230:	80 e0       	ldi	r24, 0x00	; 0
    2232:	98 e0       	ldi	r25, 0x08	; 8
    2234:	be dd       	rcall	.-1156   	; 0x1db2 <tc_set_overflow_interrupt_level>
    2236:	78 94       	sei
    2238:	60 e0       	ldi	r22, 0x00	; 0
    223a:	80 e0       	ldi	r24, 0x00	; 0
    223c:	98 e0       	ldi	r25, 0x08	; 8
    223e:	f9 dd       	rcall	.-1038   	; 0x1e32 <tc_set_direction>
    2240:	00 00       	nop
    2242:	df 91       	pop	r29
    2244:	cf 91       	pop	r28
    2246:	08 95       	ret

00002248 <timeConsum>:
    2248:	cf 93       	push	r28
    224a:	df 93       	push	r29
    224c:	cd b7       	in	r28, 0x3d	; 61
    224e:	de b7       	in	r29, 0x3e	; 62
    2250:	80 91 24 21 	lds	r24, 0x2124	; 0x802124 <__data_end>
    2254:	90 91 25 21 	lds	r25, 0x2125	; 0x802125 <__data_end+0x1>
    2258:	01 96       	adiw	r24, 0x01	; 1
    225a:	80 93 24 21 	sts	0x2124, r24	; 0x802124 <__data_end>
    225e:	90 93 25 21 	sts	0x2125, r25	; 0x802125 <__data_end+0x1>
    2262:	80 91 26 21 	lds	r24, 0x2126	; 0x802126 <clkCount>
    2266:	90 91 27 21 	lds	r25, 0x2127	; 0x802127 <clkCount+0x1>
    226a:	01 96       	adiw	r24, 0x01	; 1
    226c:	80 93 26 21 	sts	0x2126, r24	; 0x802126 <clkCount>
    2270:	90 93 27 21 	sts	0x2127, r25	; 0x802127 <clkCount+0x1>
    2274:	80 e0       	ldi	r24, 0x00	; 0
    2276:	98 e0       	ldi	r25, 0x08	; 8
    2278:	45 de       	rcall	.-886    	; 0x1f04 <tc_clear_overflow>
    227a:	00 00       	nop
    227c:	df 91       	pop	r29
    227e:	cf 91       	pop	r28
    2280:	08 95       	ret

00002282 <sendUint16>:
    2282:	cf 93       	push	r28
    2284:	df 93       	push	r29
    2286:	cd b7       	in	r28, 0x3d	; 61
    2288:	de b7       	in	r29, 0x3e	; 62
    228a:	28 97       	sbiw	r28, 0x08	; 8
    228c:	cd bf       	out	0x3d, r28	; 61
    228e:	de bf       	out	0x3e, r29	; 62
    2290:	8f 83       	std	Y+7, r24	; 0x07
    2292:	98 87       	std	Y+8, r25	; 0x08
    2294:	8f 81       	ldd	r24, Y+7	; 0x07
    2296:	98 85       	ldd	r25, Y+8	; 0x08
    2298:	92 95       	swap	r25
    229a:	82 95       	swap	r24
    229c:	8f 70       	andi	r24, 0x0F	; 15
    229e:	89 27       	eor	r24, r25
    22a0:	9f 70       	andi	r25, 0x0F	; 15
    22a2:	89 27       	eor	r24, r25
    22a4:	9c 01       	movw	r18, r24
    22a6:	a7 e4       	ldi	r26, 0x47	; 71
    22a8:	b3 e0       	ldi	r27, 0x03	; 3
    22aa:	0e 94 80 19 	call	0x3300	; 0x3300 <__umulhisi3>
    22ae:	96 95       	lsr	r25
    22b0:	87 95       	ror	r24
    22b2:	96 95       	lsr	r25
    22b4:	87 95       	ror	r24
    22b6:	96 95       	lsr	r25
    22b8:	87 95       	ror	r24
    22ba:	8a 83       	std	Y+2, r24	; 0x02
    22bc:	8f 81       	ldd	r24, Y+7	; 0x07
    22be:	98 85       	ldd	r25, Y+8	; 0x08
    22c0:	96 95       	lsr	r25
    22c2:	87 95       	ror	r24
    22c4:	96 95       	lsr	r25
    22c6:	87 95       	ror	r24
    22c8:	96 95       	lsr	r25
    22ca:	87 95       	ror	r24
    22cc:	9c 01       	movw	r18, r24
    22ce:	a5 ec       	ldi	r26, 0xC5	; 197
    22d0:	b0 e2       	ldi	r27, 0x20	; 32
    22d2:	0e 94 80 19 	call	0x3300	; 0x3300 <__umulhisi3>
    22d6:	ac 01       	movw	r20, r24
    22d8:	52 95       	swap	r21
    22da:	42 95       	swap	r20
    22dc:	4f 70       	andi	r20, 0x0F	; 15
    22de:	45 27       	eor	r20, r21
    22e0:	5f 70       	andi	r21, 0x0F	; 15
    22e2:	45 27       	eor	r20, r21
    22e4:	9a 01       	movw	r18, r20
    22e6:	ad ec       	ldi	r26, 0xCD	; 205
    22e8:	bc ec       	ldi	r27, 0xCC	; 204
    22ea:	0e 94 80 19 	call	0x3300	; 0x3300 <__umulhisi3>
    22ee:	96 95       	lsr	r25
    22f0:	87 95       	ror	r24
    22f2:	96 95       	lsr	r25
    22f4:	87 95       	ror	r24
    22f6:	96 95       	lsr	r25
    22f8:	87 95       	ror	r24
    22fa:	88 0f       	add	r24, r24
    22fc:	99 1f       	adc	r25, r25
    22fe:	9c 01       	movw	r18, r24
    2300:	22 0f       	add	r18, r18
    2302:	33 1f       	adc	r19, r19
    2304:	22 0f       	add	r18, r18
    2306:	33 1f       	adc	r19, r19
    2308:	82 0f       	add	r24, r18
    230a:	93 1f       	adc	r25, r19
    230c:	9a 01       	movw	r18, r20
    230e:	28 1b       	sub	r18, r24
    2310:	39 0b       	sbc	r19, r25
    2312:	c9 01       	movw	r24, r18
    2314:	8b 83       	std	Y+3, r24	; 0x03
    2316:	8f 81       	ldd	r24, Y+7	; 0x07
    2318:	98 85       	ldd	r25, Y+8	; 0x08
    231a:	96 95       	lsr	r25
    231c:	87 95       	ror	r24
    231e:	96 95       	lsr	r25
    2320:	87 95       	ror	r24
    2322:	9c 01       	movw	r18, r24
    2324:	ab e7       	ldi	r26, 0x7B	; 123
    2326:	b4 e1       	ldi	r27, 0x14	; 20
    2328:	eb d7       	rcall	.+4054   	; 0x3300 <__umulhisi3>
    232a:	ac 01       	movw	r20, r24
    232c:	56 95       	lsr	r21
    232e:	47 95       	ror	r20
    2330:	9a 01       	movw	r18, r20
    2332:	ad ec       	ldi	r26, 0xCD	; 205
    2334:	bc ec       	ldi	r27, 0xCC	; 204
    2336:	e4 d7       	rcall	.+4040   	; 0x3300 <__umulhisi3>
    2338:	96 95       	lsr	r25
    233a:	87 95       	ror	r24
    233c:	96 95       	lsr	r25
    233e:	87 95       	ror	r24
    2340:	96 95       	lsr	r25
    2342:	87 95       	ror	r24
    2344:	88 0f       	add	r24, r24
    2346:	99 1f       	adc	r25, r25
    2348:	9c 01       	movw	r18, r24
    234a:	22 0f       	add	r18, r18
    234c:	33 1f       	adc	r19, r19
    234e:	22 0f       	add	r18, r18
    2350:	33 1f       	adc	r19, r19
    2352:	82 0f       	add	r24, r18
    2354:	93 1f       	adc	r25, r19
    2356:	fa 01       	movw	r30, r20
    2358:	e8 1b       	sub	r30, r24
    235a:	f9 0b       	sbc	r31, r25
    235c:	cf 01       	movw	r24, r30
    235e:	8c 83       	std	Y+4, r24	; 0x04
    2360:	8f 81       	ldd	r24, Y+7	; 0x07
    2362:	98 85       	ldd	r25, Y+8	; 0x08
    2364:	9c 01       	movw	r18, r24
    2366:	ad ec       	ldi	r26, 0xCD	; 205
    2368:	bc ec       	ldi	r27, 0xCC	; 204
    236a:	ca d7       	rcall	.+3988   	; 0x3300 <__umulhisi3>
    236c:	ac 01       	movw	r20, r24
    236e:	56 95       	lsr	r21
    2370:	47 95       	ror	r20
    2372:	56 95       	lsr	r21
    2374:	47 95       	ror	r20
    2376:	56 95       	lsr	r21
    2378:	47 95       	ror	r20
    237a:	9a 01       	movw	r18, r20
    237c:	ad ec       	ldi	r26, 0xCD	; 205
    237e:	bc ec       	ldi	r27, 0xCC	; 204
    2380:	bf d7       	rcall	.+3966   	; 0x3300 <__umulhisi3>
    2382:	96 95       	lsr	r25
    2384:	87 95       	ror	r24
    2386:	96 95       	lsr	r25
    2388:	87 95       	ror	r24
    238a:	96 95       	lsr	r25
    238c:	87 95       	ror	r24
    238e:	88 0f       	add	r24, r24
    2390:	99 1f       	adc	r25, r25
    2392:	9c 01       	movw	r18, r24
    2394:	22 0f       	add	r18, r18
    2396:	33 1f       	adc	r19, r19
    2398:	22 0f       	add	r18, r18
    239a:	33 1f       	adc	r19, r19
    239c:	82 0f       	add	r24, r18
    239e:	93 1f       	adc	r25, r19
    23a0:	9a 01       	movw	r18, r20
    23a2:	28 1b       	sub	r18, r24
    23a4:	39 0b       	sbc	r19, r25
    23a6:	c9 01       	movw	r24, r18
    23a8:	8d 83       	std	Y+5, r24	; 0x05
    23aa:	4f 81       	ldd	r20, Y+7	; 0x07
    23ac:	58 85       	ldd	r21, Y+8	; 0x08
    23ae:	9a 01       	movw	r18, r20
    23b0:	ad ec       	ldi	r26, 0xCD	; 205
    23b2:	bc ec       	ldi	r27, 0xCC	; 204
    23b4:	a5 d7       	rcall	.+3914   	; 0x3300 <__umulhisi3>
    23b6:	96 95       	lsr	r25
    23b8:	87 95       	ror	r24
    23ba:	96 95       	lsr	r25
    23bc:	87 95       	ror	r24
    23be:	96 95       	lsr	r25
    23c0:	87 95       	ror	r24
    23c2:	88 0f       	add	r24, r24
    23c4:	99 1f       	adc	r25, r25
    23c6:	9c 01       	movw	r18, r24
    23c8:	22 0f       	add	r18, r18
    23ca:	33 1f       	adc	r19, r19
    23cc:	22 0f       	add	r18, r18
    23ce:	33 1f       	adc	r19, r19
    23d0:	82 0f       	add	r24, r18
    23d2:	93 1f       	adc	r25, r19
    23d4:	fa 01       	movw	r30, r20
    23d6:	e8 1b       	sub	r30, r24
    23d8:	f9 0b       	sbc	r31, r25
    23da:	cf 01       	movw	r24, r30
    23dc:	8e 83       	std	Y+6, r24	; 0x06
    23de:	19 82       	std	Y+1, r1	; 0x01
    23e0:	12 c0       	rjmp	.+36     	; 0x2406 <sendUint16+0x184>
    23e2:	89 81       	ldd	r24, Y+1	; 0x01
    23e4:	88 2f       	mov	r24, r24
    23e6:	90 e0       	ldi	r25, 0x00	; 0
    23e8:	9e 01       	movw	r18, r28
    23ea:	2e 5f       	subi	r18, 0xFE	; 254
    23ec:	3f 4f       	sbci	r19, 0xFF	; 255
    23ee:	82 0f       	add	r24, r18
    23f0:	93 1f       	adc	r25, r19
    23f2:	fc 01       	movw	r30, r24
    23f4:	80 81       	ld	r24, Z
    23f6:	80 5d       	subi	r24, 0xD0	; 208
    23f8:	68 2f       	mov	r22, r24
    23fa:	80 ea       	ldi	r24, 0xA0	; 160
    23fc:	98 e0       	ldi	r25, 0x08	; 8
    23fe:	fd dd       	rcall	.-1030   	; 0x1ffa <usart_serial_putchar>
    2400:	89 81       	ldd	r24, Y+1	; 0x01
    2402:	8f 5f       	subi	r24, 0xFF	; 255
    2404:	89 83       	std	Y+1, r24	; 0x01
    2406:	89 81       	ldd	r24, Y+1	; 0x01
    2408:	85 30       	cpi	r24, 0x05	; 5
    240a:	58 f3       	brcs	.-42     	; 0x23e2 <sendUint16+0x160>
    240c:	6a e0       	ldi	r22, 0x0A	; 10
    240e:	80 ea       	ldi	r24, 0xA0	; 160
    2410:	98 e0       	ldi	r25, 0x08	; 8
    2412:	f3 dd       	rcall	.-1050   	; 0x1ffa <usart_serial_putchar>
    2414:	00 00       	nop
    2416:	28 96       	adiw	r28, 0x08	; 8
    2418:	cd bf       	out	0x3d, r28	; 61
    241a:	de bf       	out	0x3e, r29	; 62
    241c:	df 91       	pop	r29
    241e:	cf 91       	pop	r28
    2420:	08 95       	ret

00002422 <aesEnc>:

void aesEnc(void)
{
    2422:	cf 93       	push	r28
    2424:	df 93       	push	r29
    2426:	1f 92       	push	r1
    2428:	1f 92       	push	r1
    242a:	cd b7       	in	r28, 0x3d	; 61
    242c:	de b7       	in	r29, 0x3e	; 62
	uint8_t *w; // expanded key

	w = aes_init(sizeof(key));
    242e:	80 e1       	ldi	r24, 0x10	; 16
    2430:	90 e0       	ldi	r25, 0x00	; 0
    2432:	0e 94 b7 07 	call	0xf6e	; 0xf6e <aes_init>
    2436:	89 83       	std	Y+1, r24	; 0x01
    2438:	9a 83       	std	Y+2, r25	; 0x02
	aes_key_expansion(key, w);
    243a:	89 81       	ldd	r24, Y+1	; 0x01
    243c:	9a 81       	ldd	r25, Y+2	; 0x02
    243e:	bc 01       	movw	r22, r24
    2440:	8a ef       	ldi	r24, 0xFA	; 250
    2442:	91 e2       	ldi	r25, 0x21	; 33
    2444:	0e 94 ef 05 	call	0xbde	; 0xbde <aes_key_expansion>
	aes_cipher(pt,cip,w);
    2448:	89 81       	ldd	r24, Y+1	; 0x01
    244a:	9a 81       	ldd	r25, Y+2	; 0x02
    244c:	ac 01       	movw	r20, r24
    244e:	6a ee       	ldi	r22, 0xEA	; 234
    2450:	71 e2       	ldi	r23, 0x21	; 33
    2452:	8a e9       	ldi	r24, 0x9A	; 154
    2454:	91 e2       	ldi	r25, 0x21	; 33
    2456:	0e 94 0a 08 	call	0x1014	; 0x1014 <aes_cipher>
}
    245a:	00 00       	nop
    245c:	0f 90       	pop	r0
    245e:	0f 90       	pop	r0
    2460:	df 91       	pop	r29
    2462:	cf 91       	pop	r28
    2464:	08 95       	ret

00002466 <cpu_irq_save>:
#endif

typedef uint8_t irqflags_t;

static inline irqflags_t cpu_irq_save(void)
{
    2466:	cf 93       	push	r28
    2468:	df 93       	push	r29
    246a:	1f 92       	push	r1
    246c:	cd b7       	in	r28, 0x3d	; 61
    246e:	de b7       	in	r29, 0x3e	; 62
	volatile irqflags_t flags = SREG;
    2470:	8f e3       	ldi	r24, 0x3F	; 63
    2472:	90 e0       	ldi	r25, 0x00	; 0
    2474:	fc 01       	movw	r30, r24
    2476:	80 81       	ld	r24, Z
    2478:	89 83       	std	Y+1, r24	; 0x01
	cpu_irq_disable();
    247a:	f8 94       	cli
	return flags;
    247c:	89 81       	ldd	r24, Y+1	; 0x01
}
    247e:	0f 90       	pop	r0
    2480:	df 91       	pop	r29
    2482:	cf 91       	pop	r28
    2484:	08 95       	ret

00002486 <cpu_irq_restore>:

static inline void cpu_irq_restore(irqflags_t flags)
{
    2486:	cf 93       	push	r28
    2488:	df 93       	push	r29
    248a:	1f 92       	push	r1
    248c:	cd b7       	in	r28, 0x3d	; 61
    248e:	de b7       	in	r29, 0x3e	; 62
    2490:	89 83       	std	Y+1, r24	; 0x01
	barrier();
	SREG = flags;
    2492:	8f e3       	ldi	r24, 0x3F	; 63
    2494:	90 e0       	ldi	r25, 0x00	; 0
    2496:	29 81       	ldd	r18, Y+1	; 0x01
    2498:	fc 01       	movw	r30, r24
    249a:	20 83       	st	Z, r18
}
    249c:	00 00       	nop
    249e:	0f 90       	pop	r0
    24a0:	df 91       	pop	r29
    24a2:	cf 91       	pop	r28
    24a4:	08 95       	ret

000024a6 <osc_enable_internal>:
 * \brief Enable internal oscillator \a id
 *
 * Do not call this function directly. Use osc_enable() instead.
 */
static inline void osc_enable_internal(uint8_t id)
{
    24a6:	cf 93       	push	r28
    24a8:	df 93       	push	r29
    24aa:	1f 92       	push	r1
    24ac:	1f 92       	push	r1
    24ae:	cd b7       	in	r28, 0x3d	; 61
    24b0:	de b7       	in	r29, 0x3e	; 62
    24b2:	8a 83       	std	Y+2, r24	; 0x02
	irqflags_t flags;

	Assert(id != OSC_ID_USBSOF);

	flags = cpu_irq_save();
    24b4:	d8 df       	rcall	.-80     	; 0x2466 <cpu_irq_save>
    24b6:	89 83       	std	Y+1, r24	; 0x01
	OSC.CTRL |= id;
    24b8:	80 e5       	ldi	r24, 0x50	; 80
    24ba:	90 e0       	ldi	r25, 0x00	; 0
    24bc:	20 e5       	ldi	r18, 0x50	; 80
    24be:	30 e0       	ldi	r19, 0x00	; 0
    24c0:	f9 01       	movw	r30, r18
    24c2:	30 81       	ld	r19, Z
    24c4:	2a 81       	ldd	r18, Y+2	; 0x02
    24c6:	23 2b       	or	r18, r19
    24c8:	fc 01       	movw	r30, r24
    24ca:	20 83       	st	Z, r18
#if (XMEGA_E && CONFIG_SYSCLK_RC8MHZ_LPM)
	if(id == OSC_ID_RC8MHZ) {
		OSC.CTRL |= OSC_RC8MLPM_bm;
	}
#endif
	cpu_irq_restore(flags);
    24cc:	89 81       	ldd	r24, Y+1	; 0x01
    24ce:	db df       	rcall	.-74     	; 0x2486 <cpu_irq_restore>
}
    24d0:	00 00       	nop
    24d2:	0f 90       	pop	r0
    24d4:	0f 90       	pop	r0
    24d6:	df 91       	pop	r29
    24d8:	cf 91       	pop	r28
    24da:	08 95       	ret

000024dc <osc_enable_external>:
 * Do not call this function directly. Use osc_enable() instead. Also
 * note that this function is only available if the board actually has
 * an external oscillator crystal.
 */
static inline void osc_enable_external(uint8_t id)
{
    24dc:	cf 93       	push	r28
    24de:	df 93       	push	r29
    24e0:	1f 92       	push	r1
    24e2:	1f 92       	push	r1
    24e4:	cd b7       	in	r28, 0x3d	; 61
    24e6:	de b7       	in	r29, 0x3e	; 62
    24e8:	8a 83       	std	Y+2, r24	; 0x02

#ifndef CONFIG_XOSC_32KHZ_LPM
#  if (XMEGA_E && (BOARD_XOSC_TYPE == XOSC_TYPE_EXTERNAL) && defined(CONFIG_XOSC_EXTERNAL_PC4))
	OSC.XOSCCTRL = OSC_XOSCSEL4_bm;
#  else
	OSC.XOSCCTRL = BOARD_XOSC_TYPE | (CONFIG_XOSC_STARTUP << 2) |
    24ea:	80 e5       	ldi	r24, 0x50	; 80
    24ec:	90 e0       	ldi	r25, 0x00	; 0
    24ee:	fc 01       	movw	r30, r24
    24f0:	12 82       	std	Z+2, r1	; 0x02
#else
	OSC.XOSCCTRL = BOARD_XOSC_TYPE | (CONFIG_XOSC_STARTUP << 2) |
			CONFIG_XOSC_RANGE | OSC_X32KLPM_bm;
#endif /* CONFIG_XOSC_32KHZ_LPM */

	flags = cpu_irq_save();
    24f2:	b9 df       	rcall	.-142    	; 0x2466 <cpu_irq_save>
    24f4:	89 83       	std	Y+1, r24	; 0x01
	OSC.CTRL |= id;
    24f6:	80 e5       	ldi	r24, 0x50	; 80
    24f8:	90 e0       	ldi	r25, 0x00	; 0
    24fa:	20 e5       	ldi	r18, 0x50	; 80
    24fc:	30 e0       	ldi	r19, 0x00	; 0
    24fe:	f9 01       	movw	r30, r18
    2500:	30 81       	ld	r19, Z
    2502:	2a 81       	ldd	r18, Y+2	; 0x02
    2504:	23 2b       	or	r18, r19
    2506:	fc 01       	movw	r30, r24
    2508:	20 83       	st	Z, r18
	cpu_irq_restore(flags);
    250a:	89 81       	ldd	r24, Y+1	; 0x01
    250c:	bc df       	rcall	.-136    	; 0x2486 <cpu_irq_restore>
}
    250e:	00 00       	nop
    2510:	0f 90       	pop	r0
    2512:	0f 90       	pop	r0
    2514:	df 91       	pop	r29
    2516:	cf 91       	pop	r28
    2518:	08 95       	ret

0000251a <osc_disable>:
	Assert(false); // No external oscillator on the selected board
}
#endif

static inline void osc_disable(uint8_t id)
{
    251a:	cf 93       	push	r28
    251c:	df 93       	push	r29
    251e:	1f 92       	push	r1
    2520:	1f 92       	push	r1
    2522:	cd b7       	in	r28, 0x3d	; 61
    2524:	de b7       	in	r29, 0x3e	; 62
    2526:	8a 83       	std	Y+2, r24	; 0x02
	irqflags_t flags;

	Assert(id != OSC_ID_USBSOF);

	flags = cpu_irq_save();
    2528:	9e df       	rcall	.-196    	; 0x2466 <cpu_irq_save>
    252a:	89 83       	std	Y+1, r24	; 0x01
	OSC.CTRL &= ~id;
    252c:	80 e5       	ldi	r24, 0x50	; 80
    252e:	90 e0       	ldi	r25, 0x00	; 0
    2530:	20 e5       	ldi	r18, 0x50	; 80
    2532:	30 e0       	ldi	r19, 0x00	; 0
    2534:	f9 01       	movw	r30, r18
    2536:	20 81       	ld	r18, Z
    2538:	32 2f       	mov	r19, r18
    253a:	2a 81       	ldd	r18, Y+2	; 0x02
    253c:	20 95       	com	r18
    253e:	23 23       	and	r18, r19
    2540:	fc 01       	movw	r30, r24
    2542:	20 83       	st	Z, r18
	cpu_irq_restore(flags);
    2544:	89 81       	ldd	r24, Y+1	; 0x01
    2546:	9f df       	rcall	.-194    	; 0x2486 <cpu_irq_restore>
}
    2548:	00 00       	nop
    254a:	0f 90       	pop	r0
    254c:	0f 90       	pop	r0
    254e:	df 91       	pop	r29
    2550:	cf 91       	pop	r28
    2552:	08 95       	ret

00002554 <osc_enable>:

static inline void osc_enable(uint8_t id)
{
    2554:	cf 93       	push	r28
    2556:	df 93       	push	r29
    2558:	1f 92       	push	r1
    255a:	cd b7       	in	r28, 0x3d	; 61
    255c:	de b7       	in	r29, 0x3e	; 62
    255e:	89 83       	std	Y+1, r24	; 0x01
	if (id != OSC_ID_XOSC) {
    2560:	89 81       	ldd	r24, Y+1	; 0x01
    2562:	88 30       	cpi	r24, 0x08	; 8
    2564:	19 f0       	breq	.+6      	; 0x256c <osc_enable+0x18>
		osc_enable_internal(id);
    2566:	89 81       	ldd	r24, Y+1	; 0x01
    2568:	9e df       	rcall	.-196    	; 0x24a6 <osc_enable_internal>
	} else {
		osc_enable_external(id);
	}
}
    256a:	02 c0       	rjmp	.+4      	; 0x2570 <osc_enable+0x1c>
static inline void osc_enable(uint8_t id)
{
	if (id != OSC_ID_XOSC) {
		osc_enable_internal(id);
	} else {
		osc_enable_external(id);
    256c:	89 81       	ldd	r24, Y+1	; 0x01
    256e:	b6 df       	rcall	.-148    	; 0x24dc <osc_enable_external>
	}
}
    2570:	00 00       	nop
    2572:	0f 90       	pop	r0
    2574:	df 91       	pop	r29
    2576:	cf 91       	pop	r28
    2578:	08 95       	ret

0000257a <osc_is_ready>:

static inline bool osc_is_ready(uint8_t id)
{
    257a:	cf 93       	push	r28
    257c:	df 93       	push	r29
    257e:	1f 92       	push	r1
    2580:	cd b7       	in	r28, 0x3d	; 61
    2582:	de b7       	in	r29, 0x3e	; 62
    2584:	89 83       	std	Y+1, r24	; 0x01
	Assert(id != OSC_ID_USBSOF);

	return OSC.STATUS & id;
    2586:	80 e5       	ldi	r24, 0x50	; 80
    2588:	90 e0       	ldi	r25, 0x00	; 0
    258a:	fc 01       	movw	r30, r24
    258c:	91 81       	ldd	r25, Z+1	; 0x01
    258e:	89 81       	ldd	r24, Y+1	; 0x01
    2590:	98 23       	and	r25, r24
    2592:	81 e0       	ldi	r24, 0x01	; 1
    2594:	99 23       	and	r25, r25
    2596:	09 f4       	brne	.+2      	; 0x259a <osc_is_ready+0x20>
    2598:	80 e0       	ldi	r24, 0x00	; 0
}
    259a:	0f 90       	pop	r0
    259c:	df 91       	pop	r29
    259e:	cf 91       	pop	r28
    25a0:	08 95       	ret

000025a2 <osc_wait_ready>:
 * to become stable and ready to use as a clock source.
 *
 * \param id A number identifying the oscillator to wait for.
 */
static inline void osc_wait_ready(uint8_t id)
{
    25a2:	cf 93       	push	r28
    25a4:	df 93       	push	r29
    25a6:	1f 92       	push	r1
    25a8:	cd b7       	in	r28, 0x3d	; 61
    25aa:	de b7       	in	r29, 0x3e	; 62
    25ac:	89 83       	std	Y+1, r24	; 0x01
	while (!osc_is_ready(id)) {
    25ae:	00 00       	nop
    25b0:	89 81       	ldd	r24, Y+1	; 0x01
    25b2:	e3 df       	rcall	.-58     	; 0x257a <osc_is_ready>
    25b4:	98 2f       	mov	r25, r24
    25b6:	81 e0       	ldi	r24, 0x01	; 1
    25b8:	89 27       	eor	r24, r25
    25ba:	88 23       	and	r24, r24
    25bc:	c9 f7       	brne	.-14     	; 0x25b0 <osc_wait_ready+0xe>
		/* Do nothing */
	}
}
    25be:	00 00       	nop
    25c0:	0f 90       	pop	r0
    25c2:	df 91       	pop	r29
    25c4:	cf 91       	pop	r28
    25c6:	08 95       	ret

000025c8 <sysclk_init>:
#  include <nvm.h>
#endif


void sysclk_init(void)
{
    25c8:	cf 93       	push	r28
    25ca:	df 93       	push	r29
    25cc:	00 d0       	rcall	.+0      	; 0x25ce <sysclk_init+0x6>
    25ce:	1f 92       	push	r1
    25d0:	cd b7       	in	r28, 0x3d	; 61
    25d2:	de b7       	in	r29, 0x3e	; 62
	uint8_t *reg = (uint8_t *)&PR.PRGEN;
    25d4:	80 e7       	ldi	r24, 0x70	; 112
    25d6:	90 e0       	ldi	r25, 0x00	; 0
    25d8:	89 83       	std	Y+1, r24	; 0x01
    25da:	9a 83       	std	Y+2, r25	; 0x02
#ifdef CONFIG_OSC_RC32_CAL
	uint16_t cal;
	/* avoid Cppcheck Warning */
	UNUSED(cal);
#endif
	bool need_rc2mhz = false;
    25dc:	1c 82       	std	Y+4, r1	; 0x04

	/* Turn off all peripheral clocks that can be turned off. */
	for (i = 0; i <= SYSCLK_PORT_F; i++) {
    25de:	1b 82       	std	Y+3, r1	; 0x03
    25e0:	0d c0       	rjmp	.+26     	; 0x25fc <sysclk_init+0x34>
		*(reg++) = 0xff;
    25e2:	89 81       	ldd	r24, Y+1	; 0x01
    25e4:	9a 81       	ldd	r25, Y+2	; 0x02
    25e6:	9c 01       	movw	r18, r24
    25e8:	2f 5f       	subi	r18, 0xFF	; 255
    25ea:	3f 4f       	sbci	r19, 0xFF	; 255
    25ec:	29 83       	std	Y+1, r18	; 0x01
    25ee:	3a 83       	std	Y+2, r19	; 0x02
    25f0:	2f ef       	ldi	r18, 0xFF	; 255
    25f2:	fc 01       	movw	r30, r24
    25f4:	20 83       	st	Z, r18
	UNUSED(cal);
#endif
	bool need_rc2mhz = false;

	/* Turn off all peripheral clocks that can be turned off. */
	for (i = 0; i <= SYSCLK_PORT_F; i++) {
    25f6:	8b 81       	ldd	r24, Y+3	; 0x03
    25f8:	8f 5f       	subi	r24, 0xFF	; 255
    25fa:	8b 83       	std	Y+3, r24	; 0x03
    25fc:	8b 81       	ldd	r24, Y+3	; 0x03
    25fe:	87 30       	cpi	r24, 0x07	; 7
    2600:	80 f3       	brcs	.-32     	; 0x25e2 <sysclk_init+0x1a>
			osc_enable(OSC_ID_RC32KHZ);
			osc_wait_ready(OSC_ID_RC32KHZ);
			break;

		case SYSCLK_SRC_XOSC:
			osc_enable(OSC_ID_XOSC);
    2602:	88 e0       	ldi	r24, 0x08	; 8
    2604:	a7 df       	rcall	.-178    	; 0x2554 <osc_enable>
			osc_wait_ready(OSC_ID_XOSC);
    2606:	88 e0       	ldi	r24, 0x08	; 8
    2608:	cc df       	rcall	.-104    	; 0x25a2 <osc_wait_ready>
			break;
    260a:	00 00       	nop
		default:
			//unhandled_case(CONFIG_SYSCLK_SOURCE);
			return;
		}

		ccp_write_io((uint8_t *)&CLK.CTRL, CONFIG_SYSCLK_SOURCE);
    260c:	63 e0       	ldi	r22, 0x03	; 3
    260e:	80 e4       	ldi	r24, 0x40	; 64
    2610:	90 e0       	ldi	r25, 0x00	; 0
    2612:	3b d6       	rcall	.+3190   	; 0x328a <ccp_write_io>
		Assert(CLK.CTRL == CONFIG_SYSCLK_SOURCE);
	}

	if (need_rc2mhz) {
    2614:	8c 81       	ldd	r24, Y+4	; 0x04
    2616:	88 23       	and	r24, r24
		osc_wait_ready(CONFIG_OSC_AUTOCAL_RC2MHZ_REF_OSC);
		osc_enable_autocalibration(OSC_ID_RC2MHZ,
				CONFIG_OSC_AUTOCAL_RC2MHZ_REF_OSC);
#endif
	} else {
		osc_disable(OSC_ID_RC2MHZ);
    2618:	11 f4       	brne	.+4      	; 0x261e <sysclk_init+0x56>
    261a:	81 e0       	ldi	r24, 0x01	; 1
    261c:	7e df       	rcall	.-260    	; 0x251a <osc_disable>
	}

#ifdef CONFIG_RTC_SOURCE
	sysclk_rtcsrc_enable(CONFIG_RTC_SOURCE);
#endif
}
    261e:	24 96       	adiw	r28, 0x04	; 4
    2620:	cd bf       	out	0x3d, r28	; 61
    2622:	de bf       	out	0x3e, r29	; 62
    2624:	df 91       	pop	r29
    2626:	cf 91       	pop	r28
    2628:	08 95       	ret

0000262a <sysclk_enable_module>:

void sysclk_enable_module(enum sysclk_port_id port, uint8_t id)
{
    262a:	cf 93       	push	r28
    262c:	df 93       	push	r29
    262e:	00 d0       	rcall	.+0      	; 0x2630 <sysclk_enable_module+0x6>
    2630:	cd b7       	in	r28, 0x3d	; 61
    2632:	de b7       	in	r29, 0x3e	; 62
    2634:	8a 83       	std	Y+2, r24	; 0x02
    2636:	6b 83       	std	Y+3, r22	; 0x03
	irqflags_t flags = cpu_irq_save();
    2638:	16 df       	rcall	.-468    	; 0x2466 <cpu_irq_save>
    263a:	89 83       	std	Y+1, r24	; 0x01

	*((uint8_t *)&PR.PRGEN + port) &= ~id;
    263c:	8a 81       	ldd	r24, Y+2	; 0x02
    263e:	88 2f       	mov	r24, r24
    2640:	90 e0       	ldi	r25, 0x00	; 0
    2642:	80 59       	subi	r24, 0x90	; 144
    2644:	9f 4f       	sbci	r25, 0xFF	; 255
    2646:	2a 81       	ldd	r18, Y+2	; 0x02
    2648:	22 2f       	mov	r18, r18
    264a:	30 e0       	ldi	r19, 0x00	; 0
    264c:	20 59       	subi	r18, 0x90	; 144
    264e:	3f 4f       	sbci	r19, 0xFF	; 255
    2650:	f9 01       	movw	r30, r18
    2652:	20 81       	ld	r18, Z
    2654:	32 2f       	mov	r19, r18
    2656:	2b 81       	ldd	r18, Y+3	; 0x03
    2658:	20 95       	com	r18
    265a:	23 23       	and	r18, r19
    265c:	fc 01       	movw	r30, r24
    265e:	20 83       	st	Z, r18

	cpu_irq_restore(flags);
    2660:	89 81       	ldd	r24, Y+1	; 0x01
    2662:	11 df       	rcall	.-478    	; 0x2486 <cpu_irq_restore>
}
    2664:	00 00       	nop
    2666:	23 96       	adiw	r28, 0x03	; 3
    2668:	cd bf       	out	0x3d, r28	; 61
    266a:	de bf       	out	0x3e, r29	; 62
    266c:	df 91       	pop	r29
    266e:	cf 91       	pop	r28
    2670:	08 95       	ret

00002672 <cpu_irq_save>:
	{
		cpu_irq_restore(iflags);
		return;
	}
	cpu_irq_restore(iflags);
}
    2672:	cf 93       	push	r28
    2674:	df 93       	push	r29
    2676:	1f 92       	push	r1
    2678:	cd b7       	in	r28, 0x3d	; 61
    267a:	de b7       	in	r29, 0x3e	; 62
    267c:	8f e3       	ldi	r24, 0x3F	; 63
    267e:	90 e0       	ldi	r25, 0x00	; 0
    2680:	fc 01       	movw	r30, r24
    2682:	80 81       	ld	r24, Z
    2684:	89 83       	std	Y+1, r24	; 0x01
    2686:	f8 94       	cli
    2688:	89 81       	ldd	r24, Y+1	; 0x01
    268a:	0f 90       	pop	r0
    268c:	df 91       	pop	r29
    268e:	cf 91       	pop	r28
    2690:	08 95       	ret

00002692 <cpu_irq_restore>:
    2692:	cf 93       	push	r28
    2694:	df 93       	push	r29
    2696:	1f 92       	push	r1
    2698:	cd b7       	in	r28, 0x3d	; 61
    269a:	de b7       	in	r29, 0x3e	; 62
    269c:	89 83       	std	Y+1, r24	; 0x01
    269e:	8f e3       	ldi	r24, 0x3F	; 63
    26a0:	90 e0       	ldi	r25, 0x00	; 0
    26a2:	29 81       	ldd	r18, Y+1	; 0x01
    26a4:	fc 01       	movw	r30, r24
    26a6:	20 83       	st	Z, r18
    26a8:	00 00       	nop
    26aa:	0f 90       	pop	r0
    26ac:	df 91       	pop	r29
    26ae:	cf 91       	pop	r28
    26b0:	08 95       	ret

000026b2 <sleepmgr_lock_mode>:
    26b2:	cf 93       	push	r28
    26b4:	df 93       	push	r29
    26b6:	1f 92       	push	r1
    26b8:	1f 92       	push	r1
    26ba:	cd b7       	in	r28, 0x3d	; 61
    26bc:	de b7       	in	r29, 0x3e	; 62
    26be:	8a 83       	std	Y+2, r24	; 0x02
    26c0:	8a 81       	ldd	r24, Y+2	; 0x02
    26c2:	88 2f       	mov	r24, r24
    26c4:	90 e0       	ldi	r25, 0x00	; 0
    26c6:	86 5f       	subi	r24, 0xF6	; 246
    26c8:	9d 4d       	sbci	r25, 0xDD	; 221
    26ca:	fc 01       	movw	r30, r24
    26cc:	80 81       	ld	r24, Z
    26ce:	8f 3f       	cpi	r24, 0xFF	; 255
    26d0:	09 f4       	brne	.+2      	; 0x26d4 <sleepmgr_lock_mode+0x22>
    26d2:	ff cf       	rjmp	.-2      	; 0x26d2 <sleepmgr_lock_mode+0x20>
    26d4:	ce df       	rcall	.-100    	; 0x2672 <cpu_irq_save>
    26d6:	89 83       	std	Y+1, r24	; 0x01
    26d8:	8a 81       	ldd	r24, Y+2	; 0x02
    26da:	88 2f       	mov	r24, r24
    26dc:	90 e0       	ldi	r25, 0x00	; 0
    26de:	9c 01       	movw	r18, r24
    26e0:	26 5f       	subi	r18, 0xF6	; 246
    26e2:	3d 4d       	sbci	r19, 0xDD	; 221
    26e4:	f9 01       	movw	r30, r18
    26e6:	20 81       	ld	r18, Z
    26e8:	2f 5f       	subi	r18, 0xFF	; 255
    26ea:	86 5f       	subi	r24, 0xF6	; 246
    26ec:	9d 4d       	sbci	r25, 0xDD	; 221
    26ee:	fc 01       	movw	r30, r24
    26f0:	20 83       	st	Z, r18
    26f2:	89 81       	ldd	r24, Y+1	; 0x01
    26f4:	ce df       	rcall	.-100    	; 0x2692 <cpu_irq_restore>
    26f6:	00 00       	nop
    26f8:	0f 90       	pop	r0
    26fa:	0f 90       	pop	r0
    26fc:	df 91       	pop	r29
    26fe:	cf 91       	pop	r28
    2700:	08 95       	ret

00002702 <__vector_14>:
    2702:	1f 92       	push	r1
    2704:	0f 92       	push	r0
    2706:	00 90 3f 00 	lds	r0, 0x003F	; 0x80003f <__TEXT_REGION_LENGTH__+0x70003f>
    270a:	0f 92       	push	r0
    270c:	11 24       	eor	r1, r1
    270e:	00 90 3b 00 	lds	r0, 0x003B	; 0x80003b <__TEXT_REGION_LENGTH__+0x70003b>
    2712:	0f 92       	push	r0
    2714:	2f 93       	push	r18
    2716:	3f 93       	push	r19
    2718:	4f 93       	push	r20
    271a:	5f 93       	push	r21
    271c:	6f 93       	push	r22
    271e:	7f 93       	push	r23
    2720:	8f 93       	push	r24
    2722:	9f 93       	push	r25
    2724:	af 93       	push	r26
    2726:	bf 93       	push	r27
    2728:	ef 93       	push	r30
    272a:	ff 93       	push	r31
    272c:	cf 93       	push	r28
    272e:	df 93       	push	r29
    2730:	cd b7       	in	r28, 0x3d	; 61
    2732:	de b7       	in	r29, 0x3e	; 62
    2734:	80 91 28 21 	lds	r24, 0x2128	; 0x802128 <tc_tcc0_ovf_callback>
    2738:	90 91 29 21 	lds	r25, 0x2129	; 0x802129 <tc_tcc0_ovf_callback+0x1>
    273c:	89 2b       	or	r24, r25
    273e:	31 f0       	breq	.+12     	; 0x274c <__vector_14+0x4a>
    2740:	80 91 28 21 	lds	r24, 0x2128	; 0x802128 <tc_tcc0_ovf_callback>
    2744:	90 91 29 21 	lds	r25, 0x2129	; 0x802129 <tc_tcc0_ovf_callback+0x1>
    2748:	fc 01       	movw	r30, r24
    274a:	19 95       	eicall
    274c:	00 00       	nop
    274e:	df 91       	pop	r29
    2750:	cf 91       	pop	r28
    2752:	ff 91       	pop	r31
    2754:	ef 91       	pop	r30
    2756:	bf 91       	pop	r27
    2758:	af 91       	pop	r26
    275a:	9f 91       	pop	r25
    275c:	8f 91       	pop	r24
    275e:	7f 91       	pop	r23
    2760:	6f 91       	pop	r22
    2762:	5f 91       	pop	r21
    2764:	4f 91       	pop	r20
    2766:	3f 91       	pop	r19
    2768:	2f 91       	pop	r18
    276a:	0f 90       	pop	r0
    276c:	00 92 3b 00 	sts	0x003B, r0	; 0x80003b <__TEXT_REGION_LENGTH__+0x70003b>
    2770:	0f 90       	pop	r0
    2772:	00 92 3f 00 	sts	0x003F, r0	; 0x80003f <__TEXT_REGION_LENGTH__+0x70003f>
    2776:	0f 90       	pop	r0
    2778:	1f 90       	pop	r1
    277a:	18 95       	reti

0000277c <__vector_15>:
    277c:	1f 92       	push	r1
    277e:	0f 92       	push	r0
    2780:	00 90 3f 00 	lds	r0, 0x003F	; 0x80003f <__TEXT_REGION_LENGTH__+0x70003f>
    2784:	0f 92       	push	r0
    2786:	11 24       	eor	r1, r1
    2788:	00 90 3b 00 	lds	r0, 0x003B	; 0x80003b <__TEXT_REGION_LENGTH__+0x70003b>
    278c:	0f 92       	push	r0
    278e:	2f 93       	push	r18
    2790:	3f 93       	push	r19
    2792:	4f 93       	push	r20
    2794:	5f 93       	push	r21
    2796:	6f 93       	push	r22
    2798:	7f 93       	push	r23
    279a:	8f 93       	push	r24
    279c:	9f 93       	push	r25
    279e:	af 93       	push	r26
    27a0:	bf 93       	push	r27
    27a2:	ef 93       	push	r30
    27a4:	ff 93       	push	r31
    27a6:	cf 93       	push	r28
    27a8:	df 93       	push	r29
    27aa:	cd b7       	in	r28, 0x3d	; 61
    27ac:	de b7       	in	r29, 0x3e	; 62
    27ae:	80 91 2a 21 	lds	r24, 0x212A	; 0x80212a <tc_tcc0_err_callback>
    27b2:	90 91 2b 21 	lds	r25, 0x212B	; 0x80212b <tc_tcc0_err_callback+0x1>
    27b6:	89 2b       	or	r24, r25
    27b8:	31 f0       	breq	.+12     	; 0x27c6 <__vector_15+0x4a>
    27ba:	80 91 2a 21 	lds	r24, 0x212A	; 0x80212a <tc_tcc0_err_callback>
    27be:	90 91 2b 21 	lds	r25, 0x212B	; 0x80212b <tc_tcc0_err_callback+0x1>
    27c2:	fc 01       	movw	r30, r24
    27c4:	19 95       	eicall
    27c6:	00 00       	nop
    27c8:	df 91       	pop	r29
    27ca:	cf 91       	pop	r28
    27cc:	ff 91       	pop	r31
    27ce:	ef 91       	pop	r30
    27d0:	bf 91       	pop	r27
    27d2:	af 91       	pop	r26
    27d4:	9f 91       	pop	r25
    27d6:	8f 91       	pop	r24
    27d8:	7f 91       	pop	r23
    27da:	6f 91       	pop	r22
    27dc:	5f 91       	pop	r21
    27de:	4f 91       	pop	r20
    27e0:	3f 91       	pop	r19
    27e2:	2f 91       	pop	r18
    27e4:	0f 90       	pop	r0
    27e6:	00 92 3b 00 	sts	0x003B, r0	; 0x80003b <__TEXT_REGION_LENGTH__+0x70003b>
    27ea:	0f 90       	pop	r0
    27ec:	00 92 3f 00 	sts	0x003F, r0	; 0x80003f <__TEXT_REGION_LENGTH__+0x70003f>
    27f0:	0f 90       	pop	r0
    27f2:	1f 90       	pop	r1
    27f4:	18 95       	reti

000027f6 <__vector_16>:
    27f6:	1f 92       	push	r1
    27f8:	0f 92       	push	r0
    27fa:	00 90 3f 00 	lds	r0, 0x003F	; 0x80003f <__TEXT_REGION_LENGTH__+0x70003f>
    27fe:	0f 92       	push	r0
    2800:	11 24       	eor	r1, r1
    2802:	00 90 3b 00 	lds	r0, 0x003B	; 0x80003b <__TEXT_REGION_LENGTH__+0x70003b>
    2806:	0f 92       	push	r0
    2808:	2f 93       	push	r18
    280a:	3f 93       	push	r19
    280c:	4f 93       	push	r20
    280e:	5f 93       	push	r21
    2810:	6f 93       	push	r22
    2812:	7f 93       	push	r23
    2814:	8f 93       	push	r24
    2816:	9f 93       	push	r25
    2818:	af 93       	push	r26
    281a:	bf 93       	push	r27
    281c:	ef 93       	push	r30
    281e:	ff 93       	push	r31
    2820:	cf 93       	push	r28
    2822:	df 93       	push	r29
    2824:	cd b7       	in	r28, 0x3d	; 61
    2826:	de b7       	in	r29, 0x3e	; 62
    2828:	80 91 2c 21 	lds	r24, 0x212C	; 0x80212c <tc_tcc0_cca_callback>
    282c:	90 91 2d 21 	lds	r25, 0x212D	; 0x80212d <tc_tcc0_cca_callback+0x1>
    2830:	89 2b       	or	r24, r25
    2832:	31 f0       	breq	.+12     	; 0x2840 <__vector_16+0x4a>
    2834:	80 91 2c 21 	lds	r24, 0x212C	; 0x80212c <tc_tcc0_cca_callback>
    2838:	90 91 2d 21 	lds	r25, 0x212D	; 0x80212d <tc_tcc0_cca_callback+0x1>
    283c:	fc 01       	movw	r30, r24
    283e:	19 95       	eicall
    2840:	00 00       	nop
    2842:	df 91       	pop	r29
    2844:	cf 91       	pop	r28
    2846:	ff 91       	pop	r31
    2848:	ef 91       	pop	r30
    284a:	bf 91       	pop	r27
    284c:	af 91       	pop	r26
    284e:	9f 91       	pop	r25
    2850:	8f 91       	pop	r24
    2852:	7f 91       	pop	r23
    2854:	6f 91       	pop	r22
    2856:	5f 91       	pop	r21
    2858:	4f 91       	pop	r20
    285a:	3f 91       	pop	r19
    285c:	2f 91       	pop	r18
    285e:	0f 90       	pop	r0
    2860:	00 92 3b 00 	sts	0x003B, r0	; 0x80003b <__TEXT_REGION_LENGTH__+0x70003b>
    2864:	0f 90       	pop	r0
    2866:	00 92 3f 00 	sts	0x003F, r0	; 0x80003f <__TEXT_REGION_LENGTH__+0x70003f>
    286a:	0f 90       	pop	r0
    286c:	1f 90       	pop	r1
    286e:	18 95       	reti

00002870 <__vector_17>:
    2870:	1f 92       	push	r1
    2872:	0f 92       	push	r0
    2874:	00 90 3f 00 	lds	r0, 0x003F	; 0x80003f <__TEXT_REGION_LENGTH__+0x70003f>
    2878:	0f 92       	push	r0
    287a:	11 24       	eor	r1, r1
    287c:	00 90 3b 00 	lds	r0, 0x003B	; 0x80003b <__TEXT_REGION_LENGTH__+0x70003b>
    2880:	0f 92       	push	r0
    2882:	2f 93       	push	r18
    2884:	3f 93       	push	r19
    2886:	4f 93       	push	r20
    2888:	5f 93       	push	r21
    288a:	6f 93       	push	r22
    288c:	7f 93       	push	r23
    288e:	8f 93       	push	r24
    2890:	9f 93       	push	r25
    2892:	af 93       	push	r26
    2894:	bf 93       	push	r27
    2896:	ef 93       	push	r30
    2898:	ff 93       	push	r31
    289a:	cf 93       	push	r28
    289c:	df 93       	push	r29
    289e:	cd b7       	in	r28, 0x3d	; 61
    28a0:	de b7       	in	r29, 0x3e	; 62
    28a2:	80 91 2e 21 	lds	r24, 0x212E	; 0x80212e <tc_tcc0_ccb_callback>
    28a6:	90 91 2f 21 	lds	r25, 0x212F	; 0x80212f <tc_tcc0_ccb_callback+0x1>
    28aa:	89 2b       	or	r24, r25
    28ac:	31 f0       	breq	.+12     	; 0x28ba <__vector_17+0x4a>
    28ae:	80 91 2e 21 	lds	r24, 0x212E	; 0x80212e <tc_tcc0_ccb_callback>
    28b2:	90 91 2f 21 	lds	r25, 0x212F	; 0x80212f <tc_tcc0_ccb_callback+0x1>
    28b6:	fc 01       	movw	r30, r24
    28b8:	19 95       	eicall
    28ba:	00 00       	nop
    28bc:	df 91       	pop	r29
    28be:	cf 91       	pop	r28
    28c0:	ff 91       	pop	r31
    28c2:	ef 91       	pop	r30
    28c4:	bf 91       	pop	r27
    28c6:	af 91       	pop	r26
    28c8:	9f 91       	pop	r25
    28ca:	8f 91       	pop	r24
    28cc:	7f 91       	pop	r23
    28ce:	6f 91       	pop	r22
    28d0:	5f 91       	pop	r21
    28d2:	4f 91       	pop	r20
    28d4:	3f 91       	pop	r19
    28d6:	2f 91       	pop	r18
    28d8:	0f 90       	pop	r0
    28da:	00 92 3b 00 	sts	0x003B, r0	; 0x80003b <__TEXT_REGION_LENGTH__+0x70003b>
    28de:	0f 90       	pop	r0
    28e0:	00 92 3f 00 	sts	0x003F, r0	; 0x80003f <__TEXT_REGION_LENGTH__+0x70003f>
    28e4:	0f 90       	pop	r0
    28e6:	1f 90       	pop	r1
    28e8:	18 95       	reti

000028ea <__vector_18>:
    28ea:	1f 92       	push	r1
    28ec:	0f 92       	push	r0
    28ee:	00 90 3f 00 	lds	r0, 0x003F	; 0x80003f <__TEXT_REGION_LENGTH__+0x70003f>
    28f2:	0f 92       	push	r0
    28f4:	11 24       	eor	r1, r1
    28f6:	00 90 3b 00 	lds	r0, 0x003B	; 0x80003b <__TEXT_REGION_LENGTH__+0x70003b>
    28fa:	0f 92       	push	r0
    28fc:	2f 93       	push	r18
    28fe:	3f 93       	push	r19
    2900:	4f 93       	push	r20
    2902:	5f 93       	push	r21
    2904:	6f 93       	push	r22
    2906:	7f 93       	push	r23
    2908:	8f 93       	push	r24
    290a:	9f 93       	push	r25
    290c:	af 93       	push	r26
    290e:	bf 93       	push	r27
    2910:	ef 93       	push	r30
    2912:	ff 93       	push	r31
    2914:	cf 93       	push	r28
    2916:	df 93       	push	r29
    2918:	cd b7       	in	r28, 0x3d	; 61
    291a:	de b7       	in	r29, 0x3e	; 62
    291c:	80 91 30 21 	lds	r24, 0x2130	; 0x802130 <tc_tcc0_ccc_callback>
    2920:	90 91 31 21 	lds	r25, 0x2131	; 0x802131 <tc_tcc0_ccc_callback+0x1>
    2924:	89 2b       	or	r24, r25
    2926:	31 f0       	breq	.+12     	; 0x2934 <__vector_18+0x4a>
    2928:	80 91 30 21 	lds	r24, 0x2130	; 0x802130 <tc_tcc0_ccc_callback>
    292c:	90 91 31 21 	lds	r25, 0x2131	; 0x802131 <tc_tcc0_ccc_callback+0x1>
    2930:	fc 01       	movw	r30, r24
    2932:	19 95       	eicall
    2934:	00 00       	nop
    2936:	df 91       	pop	r29
    2938:	cf 91       	pop	r28
    293a:	ff 91       	pop	r31
    293c:	ef 91       	pop	r30
    293e:	bf 91       	pop	r27
    2940:	af 91       	pop	r26
    2942:	9f 91       	pop	r25
    2944:	8f 91       	pop	r24
    2946:	7f 91       	pop	r23
    2948:	6f 91       	pop	r22
    294a:	5f 91       	pop	r21
    294c:	4f 91       	pop	r20
    294e:	3f 91       	pop	r19
    2950:	2f 91       	pop	r18
    2952:	0f 90       	pop	r0
    2954:	00 92 3b 00 	sts	0x003B, r0	; 0x80003b <__TEXT_REGION_LENGTH__+0x70003b>
    2958:	0f 90       	pop	r0
    295a:	00 92 3f 00 	sts	0x003F, r0	; 0x80003f <__TEXT_REGION_LENGTH__+0x70003f>
    295e:	0f 90       	pop	r0
    2960:	1f 90       	pop	r1
    2962:	18 95       	reti

00002964 <__vector_19>:
    2964:	1f 92       	push	r1
    2966:	0f 92       	push	r0
    2968:	00 90 3f 00 	lds	r0, 0x003F	; 0x80003f <__TEXT_REGION_LENGTH__+0x70003f>
    296c:	0f 92       	push	r0
    296e:	11 24       	eor	r1, r1
    2970:	00 90 3b 00 	lds	r0, 0x003B	; 0x80003b <__TEXT_REGION_LENGTH__+0x70003b>
    2974:	0f 92       	push	r0
    2976:	2f 93       	push	r18
    2978:	3f 93       	push	r19
    297a:	4f 93       	push	r20
    297c:	5f 93       	push	r21
    297e:	6f 93       	push	r22
    2980:	7f 93       	push	r23
    2982:	8f 93       	push	r24
    2984:	9f 93       	push	r25
    2986:	af 93       	push	r26
    2988:	bf 93       	push	r27
    298a:	ef 93       	push	r30
    298c:	ff 93       	push	r31
    298e:	cf 93       	push	r28
    2990:	df 93       	push	r29
    2992:	cd b7       	in	r28, 0x3d	; 61
    2994:	de b7       	in	r29, 0x3e	; 62
    2996:	80 91 32 21 	lds	r24, 0x2132	; 0x802132 <tc_tcc0_ccd_callback>
    299a:	90 91 33 21 	lds	r25, 0x2133	; 0x802133 <tc_tcc0_ccd_callback+0x1>
    299e:	89 2b       	or	r24, r25
    29a0:	31 f0       	breq	.+12     	; 0x29ae <__vector_19+0x4a>
    29a2:	80 91 32 21 	lds	r24, 0x2132	; 0x802132 <tc_tcc0_ccd_callback>
    29a6:	90 91 33 21 	lds	r25, 0x2133	; 0x802133 <tc_tcc0_ccd_callback+0x1>
    29aa:	fc 01       	movw	r30, r24
    29ac:	19 95       	eicall
    29ae:	00 00       	nop
    29b0:	df 91       	pop	r29
    29b2:	cf 91       	pop	r28
    29b4:	ff 91       	pop	r31
    29b6:	ef 91       	pop	r30
    29b8:	bf 91       	pop	r27
    29ba:	af 91       	pop	r26
    29bc:	9f 91       	pop	r25
    29be:	8f 91       	pop	r24
    29c0:	7f 91       	pop	r23
    29c2:	6f 91       	pop	r22
    29c4:	5f 91       	pop	r21
    29c6:	4f 91       	pop	r20
    29c8:	3f 91       	pop	r19
    29ca:	2f 91       	pop	r18
    29cc:	0f 90       	pop	r0
    29ce:	00 92 3b 00 	sts	0x003B, r0	; 0x80003b <__TEXT_REGION_LENGTH__+0x70003b>
    29d2:	0f 90       	pop	r0
    29d4:	00 92 3f 00 	sts	0x003F, r0	; 0x80003f <__TEXT_REGION_LENGTH__+0x70003f>
    29d8:	0f 90       	pop	r0
    29da:	1f 90       	pop	r1
    29dc:	18 95       	reti

000029de <__vector_20>:
    29de:	1f 92       	push	r1
    29e0:	0f 92       	push	r0
    29e2:	00 90 3f 00 	lds	r0, 0x003F	; 0x80003f <__TEXT_REGION_LENGTH__+0x70003f>
    29e6:	0f 92       	push	r0
    29e8:	11 24       	eor	r1, r1
    29ea:	00 90 3b 00 	lds	r0, 0x003B	; 0x80003b <__TEXT_REGION_LENGTH__+0x70003b>
    29ee:	0f 92       	push	r0
    29f0:	2f 93       	push	r18
    29f2:	3f 93       	push	r19
    29f4:	4f 93       	push	r20
    29f6:	5f 93       	push	r21
    29f8:	6f 93       	push	r22
    29fa:	7f 93       	push	r23
    29fc:	8f 93       	push	r24
    29fe:	9f 93       	push	r25
    2a00:	af 93       	push	r26
    2a02:	bf 93       	push	r27
    2a04:	ef 93       	push	r30
    2a06:	ff 93       	push	r31
    2a08:	cf 93       	push	r28
    2a0a:	df 93       	push	r29
    2a0c:	cd b7       	in	r28, 0x3d	; 61
    2a0e:	de b7       	in	r29, 0x3e	; 62
    2a10:	80 91 34 21 	lds	r24, 0x2134	; 0x802134 <tc_tcc1_ovf_callback>
    2a14:	90 91 35 21 	lds	r25, 0x2135	; 0x802135 <tc_tcc1_ovf_callback+0x1>
    2a18:	89 2b       	or	r24, r25
    2a1a:	31 f0       	breq	.+12     	; 0x2a28 <__vector_20+0x4a>
    2a1c:	80 91 34 21 	lds	r24, 0x2134	; 0x802134 <tc_tcc1_ovf_callback>
    2a20:	90 91 35 21 	lds	r25, 0x2135	; 0x802135 <tc_tcc1_ovf_callback+0x1>
    2a24:	fc 01       	movw	r30, r24
    2a26:	19 95       	eicall
    2a28:	00 00       	nop
    2a2a:	df 91       	pop	r29
    2a2c:	cf 91       	pop	r28
    2a2e:	ff 91       	pop	r31
    2a30:	ef 91       	pop	r30
    2a32:	bf 91       	pop	r27
    2a34:	af 91       	pop	r26
    2a36:	9f 91       	pop	r25
    2a38:	8f 91       	pop	r24
    2a3a:	7f 91       	pop	r23
    2a3c:	6f 91       	pop	r22
    2a3e:	5f 91       	pop	r21
    2a40:	4f 91       	pop	r20
    2a42:	3f 91       	pop	r19
    2a44:	2f 91       	pop	r18
    2a46:	0f 90       	pop	r0
    2a48:	00 92 3b 00 	sts	0x003B, r0	; 0x80003b <__TEXT_REGION_LENGTH__+0x70003b>
    2a4c:	0f 90       	pop	r0
    2a4e:	00 92 3f 00 	sts	0x003F, r0	; 0x80003f <__TEXT_REGION_LENGTH__+0x70003f>
    2a52:	0f 90       	pop	r0
    2a54:	1f 90       	pop	r1
    2a56:	18 95       	reti

00002a58 <__vector_21>:
    2a58:	1f 92       	push	r1
    2a5a:	0f 92       	push	r0
    2a5c:	00 90 3f 00 	lds	r0, 0x003F	; 0x80003f <__TEXT_REGION_LENGTH__+0x70003f>
    2a60:	0f 92       	push	r0
    2a62:	11 24       	eor	r1, r1
    2a64:	00 90 3b 00 	lds	r0, 0x003B	; 0x80003b <__TEXT_REGION_LENGTH__+0x70003b>
    2a68:	0f 92       	push	r0
    2a6a:	2f 93       	push	r18
    2a6c:	3f 93       	push	r19
    2a6e:	4f 93       	push	r20
    2a70:	5f 93       	push	r21
    2a72:	6f 93       	push	r22
    2a74:	7f 93       	push	r23
    2a76:	8f 93       	push	r24
    2a78:	9f 93       	push	r25
    2a7a:	af 93       	push	r26
    2a7c:	bf 93       	push	r27
    2a7e:	ef 93       	push	r30
    2a80:	ff 93       	push	r31
    2a82:	cf 93       	push	r28
    2a84:	df 93       	push	r29
    2a86:	cd b7       	in	r28, 0x3d	; 61
    2a88:	de b7       	in	r29, 0x3e	; 62
    2a8a:	80 91 36 21 	lds	r24, 0x2136	; 0x802136 <tc_tcc1_err_callback>
    2a8e:	90 91 37 21 	lds	r25, 0x2137	; 0x802137 <tc_tcc1_err_callback+0x1>
    2a92:	89 2b       	or	r24, r25
    2a94:	31 f0       	breq	.+12     	; 0x2aa2 <__vector_21+0x4a>
    2a96:	80 91 36 21 	lds	r24, 0x2136	; 0x802136 <tc_tcc1_err_callback>
    2a9a:	90 91 37 21 	lds	r25, 0x2137	; 0x802137 <tc_tcc1_err_callback+0x1>
    2a9e:	fc 01       	movw	r30, r24
    2aa0:	19 95       	eicall
    2aa2:	00 00       	nop
    2aa4:	df 91       	pop	r29
    2aa6:	cf 91       	pop	r28
    2aa8:	ff 91       	pop	r31
    2aaa:	ef 91       	pop	r30
    2aac:	bf 91       	pop	r27
    2aae:	af 91       	pop	r26
    2ab0:	9f 91       	pop	r25
    2ab2:	8f 91       	pop	r24
    2ab4:	7f 91       	pop	r23
    2ab6:	6f 91       	pop	r22
    2ab8:	5f 91       	pop	r21
    2aba:	4f 91       	pop	r20
    2abc:	3f 91       	pop	r19
    2abe:	2f 91       	pop	r18
    2ac0:	0f 90       	pop	r0
    2ac2:	00 92 3b 00 	sts	0x003B, r0	; 0x80003b <__TEXT_REGION_LENGTH__+0x70003b>
    2ac6:	0f 90       	pop	r0
    2ac8:	00 92 3f 00 	sts	0x003F, r0	; 0x80003f <__TEXT_REGION_LENGTH__+0x70003f>
    2acc:	0f 90       	pop	r0
    2ace:	1f 90       	pop	r1
    2ad0:	18 95       	reti

00002ad2 <__vector_22>:
    2ad2:	1f 92       	push	r1
    2ad4:	0f 92       	push	r0
    2ad6:	00 90 3f 00 	lds	r0, 0x003F	; 0x80003f <__TEXT_REGION_LENGTH__+0x70003f>
    2ada:	0f 92       	push	r0
    2adc:	11 24       	eor	r1, r1
    2ade:	00 90 3b 00 	lds	r0, 0x003B	; 0x80003b <__TEXT_REGION_LENGTH__+0x70003b>
    2ae2:	0f 92       	push	r0
    2ae4:	2f 93       	push	r18
    2ae6:	3f 93       	push	r19
    2ae8:	4f 93       	push	r20
    2aea:	5f 93       	push	r21
    2aec:	6f 93       	push	r22
    2aee:	7f 93       	push	r23
    2af0:	8f 93       	push	r24
    2af2:	9f 93       	push	r25
    2af4:	af 93       	push	r26
    2af6:	bf 93       	push	r27
    2af8:	ef 93       	push	r30
    2afa:	ff 93       	push	r31
    2afc:	cf 93       	push	r28
    2afe:	df 93       	push	r29
    2b00:	cd b7       	in	r28, 0x3d	; 61
    2b02:	de b7       	in	r29, 0x3e	; 62
    2b04:	80 91 38 21 	lds	r24, 0x2138	; 0x802138 <tc_tcc1_cca_callback>
    2b08:	90 91 39 21 	lds	r25, 0x2139	; 0x802139 <tc_tcc1_cca_callback+0x1>
    2b0c:	89 2b       	or	r24, r25
    2b0e:	31 f0       	breq	.+12     	; 0x2b1c <__vector_22+0x4a>
    2b10:	80 91 38 21 	lds	r24, 0x2138	; 0x802138 <tc_tcc1_cca_callback>
    2b14:	90 91 39 21 	lds	r25, 0x2139	; 0x802139 <tc_tcc1_cca_callback+0x1>
    2b18:	fc 01       	movw	r30, r24
    2b1a:	19 95       	eicall
    2b1c:	00 00       	nop
    2b1e:	df 91       	pop	r29
    2b20:	cf 91       	pop	r28
    2b22:	ff 91       	pop	r31
    2b24:	ef 91       	pop	r30
    2b26:	bf 91       	pop	r27
    2b28:	af 91       	pop	r26
    2b2a:	9f 91       	pop	r25
    2b2c:	8f 91       	pop	r24
    2b2e:	7f 91       	pop	r23
    2b30:	6f 91       	pop	r22
    2b32:	5f 91       	pop	r21
    2b34:	4f 91       	pop	r20
    2b36:	3f 91       	pop	r19
    2b38:	2f 91       	pop	r18
    2b3a:	0f 90       	pop	r0
    2b3c:	00 92 3b 00 	sts	0x003B, r0	; 0x80003b <__TEXT_REGION_LENGTH__+0x70003b>
    2b40:	0f 90       	pop	r0
    2b42:	00 92 3f 00 	sts	0x003F, r0	; 0x80003f <__TEXT_REGION_LENGTH__+0x70003f>
    2b46:	0f 90       	pop	r0
    2b48:	1f 90       	pop	r1
    2b4a:	18 95       	reti

00002b4c <__vector_23>:
    2b4c:	1f 92       	push	r1
    2b4e:	0f 92       	push	r0
    2b50:	00 90 3f 00 	lds	r0, 0x003F	; 0x80003f <__TEXT_REGION_LENGTH__+0x70003f>
    2b54:	0f 92       	push	r0
    2b56:	11 24       	eor	r1, r1
    2b58:	00 90 3b 00 	lds	r0, 0x003B	; 0x80003b <__TEXT_REGION_LENGTH__+0x70003b>
    2b5c:	0f 92       	push	r0
    2b5e:	2f 93       	push	r18
    2b60:	3f 93       	push	r19
    2b62:	4f 93       	push	r20
    2b64:	5f 93       	push	r21
    2b66:	6f 93       	push	r22
    2b68:	7f 93       	push	r23
    2b6a:	8f 93       	push	r24
    2b6c:	9f 93       	push	r25
    2b6e:	af 93       	push	r26
    2b70:	bf 93       	push	r27
    2b72:	ef 93       	push	r30
    2b74:	ff 93       	push	r31
    2b76:	cf 93       	push	r28
    2b78:	df 93       	push	r29
    2b7a:	cd b7       	in	r28, 0x3d	; 61
    2b7c:	de b7       	in	r29, 0x3e	; 62
    2b7e:	80 91 3a 21 	lds	r24, 0x213A	; 0x80213a <tc_tcc1_ccb_callback>
    2b82:	90 91 3b 21 	lds	r25, 0x213B	; 0x80213b <tc_tcc1_ccb_callback+0x1>
    2b86:	89 2b       	or	r24, r25
    2b88:	31 f0       	breq	.+12     	; 0x2b96 <__vector_23+0x4a>
    2b8a:	80 91 3a 21 	lds	r24, 0x213A	; 0x80213a <tc_tcc1_ccb_callback>
    2b8e:	90 91 3b 21 	lds	r25, 0x213B	; 0x80213b <tc_tcc1_ccb_callback+0x1>
    2b92:	fc 01       	movw	r30, r24
    2b94:	19 95       	eicall
    2b96:	00 00       	nop
    2b98:	df 91       	pop	r29
    2b9a:	cf 91       	pop	r28
    2b9c:	ff 91       	pop	r31
    2b9e:	ef 91       	pop	r30
    2ba0:	bf 91       	pop	r27
    2ba2:	af 91       	pop	r26
    2ba4:	9f 91       	pop	r25
    2ba6:	8f 91       	pop	r24
    2ba8:	7f 91       	pop	r23
    2baa:	6f 91       	pop	r22
    2bac:	5f 91       	pop	r21
    2bae:	4f 91       	pop	r20
    2bb0:	3f 91       	pop	r19
    2bb2:	2f 91       	pop	r18
    2bb4:	0f 90       	pop	r0
    2bb6:	00 92 3b 00 	sts	0x003B, r0	; 0x80003b <__TEXT_REGION_LENGTH__+0x70003b>
    2bba:	0f 90       	pop	r0
    2bbc:	00 92 3f 00 	sts	0x003F, r0	; 0x80003f <__TEXT_REGION_LENGTH__+0x70003f>
    2bc0:	0f 90       	pop	r0
    2bc2:	1f 90       	pop	r1
    2bc4:	18 95       	reti

00002bc6 <__vector_77>:
    2bc6:	1f 92       	push	r1
    2bc8:	0f 92       	push	r0
    2bca:	00 90 3f 00 	lds	r0, 0x003F	; 0x80003f <__TEXT_REGION_LENGTH__+0x70003f>
    2bce:	0f 92       	push	r0
    2bd0:	11 24       	eor	r1, r1
    2bd2:	00 90 3b 00 	lds	r0, 0x003B	; 0x80003b <__TEXT_REGION_LENGTH__+0x70003b>
    2bd6:	0f 92       	push	r0
    2bd8:	2f 93       	push	r18
    2bda:	3f 93       	push	r19
    2bdc:	4f 93       	push	r20
    2bde:	5f 93       	push	r21
    2be0:	6f 93       	push	r22
    2be2:	7f 93       	push	r23
    2be4:	8f 93       	push	r24
    2be6:	9f 93       	push	r25
    2be8:	af 93       	push	r26
    2bea:	bf 93       	push	r27
    2bec:	ef 93       	push	r30
    2bee:	ff 93       	push	r31
    2bf0:	cf 93       	push	r28
    2bf2:	df 93       	push	r29
    2bf4:	cd b7       	in	r28, 0x3d	; 61
    2bf6:	de b7       	in	r29, 0x3e	; 62
    2bf8:	80 91 3c 21 	lds	r24, 0x213C	; 0x80213c <tc_tcd0_ovf_callback>
    2bfc:	90 91 3d 21 	lds	r25, 0x213D	; 0x80213d <tc_tcd0_ovf_callback+0x1>
    2c00:	89 2b       	or	r24, r25
    2c02:	31 f0       	breq	.+12     	; 0x2c10 <__vector_77+0x4a>
    2c04:	80 91 3c 21 	lds	r24, 0x213C	; 0x80213c <tc_tcd0_ovf_callback>
    2c08:	90 91 3d 21 	lds	r25, 0x213D	; 0x80213d <tc_tcd0_ovf_callback+0x1>
    2c0c:	fc 01       	movw	r30, r24
    2c0e:	19 95       	eicall
    2c10:	00 00       	nop
    2c12:	df 91       	pop	r29
    2c14:	cf 91       	pop	r28
    2c16:	ff 91       	pop	r31
    2c18:	ef 91       	pop	r30
    2c1a:	bf 91       	pop	r27
    2c1c:	af 91       	pop	r26
    2c1e:	9f 91       	pop	r25
    2c20:	8f 91       	pop	r24
    2c22:	7f 91       	pop	r23
    2c24:	6f 91       	pop	r22
    2c26:	5f 91       	pop	r21
    2c28:	4f 91       	pop	r20
    2c2a:	3f 91       	pop	r19
    2c2c:	2f 91       	pop	r18
    2c2e:	0f 90       	pop	r0
    2c30:	00 92 3b 00 	sts	0x003B, r0	; 0x80003b <__TEXT_REGION_LENGTH__+0x70003b>
    2c34:	0f 90       	pop	r0
    2c36:	00 92 3f 00 	sts	0x003F, r0	; 0x80003f <__TEXT_REGION_LENGTH__+0x70003f>
    2c3a:	0f 90       	pop	r0
    2c3c:	1f 90       	pop	r1
    2c3e:	18 95       	reti

00002c40 <__vector_78>:
    2c40:	1f 92       	push	r1
    2c42:	0f 92       	push	r0
    2c44:	00 90 3f 00 	lds	r0, 0x003F	; 0x80003f <__TEXT_REGION_LENGTH__+0x70003f>
    2c48:	0f 92       	push	r0
    2c4a:	11 24       	eor	r1, r1
    2c4c:	00 90 3b 00 	lds	r0, 0x003B	; 0x80003b <__TEXT_REGION_LENGTH__+0x70003b>
    2c50:	0f 92       	push	r0
    2c52:	2f 93       	push	r18
    2c54:	3f 93       	push	r19
    2c56:	4f 93       	push	r20
    2c58:	5f 93       	push	r21
    2c5a:	6f 93       	push	r22
    2c5c:	7f 93       	push	r23
    2c5e:	8f 93       	push	r24
    2c60:	9f 93       	push	r25
    2c62:	af 93       	push	r26
    2c64:	bf 93       	push	r27
    2c66:	ef 93       	push	r30
    2c68:	ff 93       	push	r31
    2c6a:	cf 93       	push	r28
    2c6c:	df 93       	push	r29
    2c6e:	cd b7       	in	r28, 0x3d	; 61
    2c70:	de b7       	in	r29, 0x3e	; 62
    2c72:	80 91 3e 21 	lds	r24, 0x213E	; 0x80213e <tc_tcd0_err_callback>
    2c76:	90 91 3f 21 	lds	r25, 0x213F	; 0x80213f <tc_tcd0_err_callback+0x1>
    2c7a:	89 2b       	or	r24, r25
    2c7c:	31 f0       	breq	.+12     	; 0x2c8a <__vector_78+0x4a>
    2c7e:	80 91 3e 21 	lds	r24, 0x213E	; 0x80213e <tc_tcd0_err_callback>
    2c82:	90 91 3f 21 	lds	r25, 0x213F	; 0x80213f <tc_tcd0_err_callback+0x1>
    2c86:	fc 01       	movw	r30, r24
    2c88:	19 95       	eicall
    2c8a:	00 00       	nop
    2c8c:	df 91       	pop	r29
    2c8e:	cf 91       	pop	r28
    2c90:	ff 91       	pop	r31
    2c92:	ef 91       	pop	r30
    2c94:	bf 91       	pop	r27
    2c96:	af 91       	pop	r26
    2c98:	9f 91       	pop	r25
    2c9a:	8f 91       	pop	r24
    2c9c:	7f 91       	pop	r23
    2c9e:	6f 91       	pop	r22
    2ca0:	5f 91       	pop	r21
    2ca2:	4f 91       	pop	r20
    2ca4:	3f 91       	pop	r19
    2ca6:	2f 91       	pop	r18
    2ca8:	0f 90       	pop	r0
    2caa:	00 92 3b 00 	sts	0x003B, r0	; 0x80003b <__TEXT_REGION_LENGTH__+0x70003b>
    2cae:	0f 90       	pop	r0
    2cb0:	00 92 3f 00 	sts	0x003F, r0	; 0x80003f <__TEXT_REGION_LENGTH__+0x70003f>
    2cb4:	0f 90       	pop	r0
    2cb6:	1f 90       	pop	r1
    2cb8:	18 95       	reti

00002cba <__vector_79>:
    2cba:	1f 92       	push	r1
    2cbc:	0f 92       	push	r0
    2cbe:	00 90 3f 00 	lds	r0, 0x003F	; 0x80003f <__TEXT_REGION_LENGTH__+0x70003f>
    2cc2:	0f 92       	push	r0
    2cc4:	11 24       	eor	r1, r1
    2cc6:	00 90 3b 00 	lds	r0, 0x003B	; 0x80003b <__TEXT_REGION_LENGTH__+0x70003b>
    2cca:	0f 92       	push	r0
    2ccc:	2f 93       	push	r18
    2cce:	3f 93       	push	r19
    2cd0:	4f 93       	push	r20
    2cd2:	5f 93       	push	r21
    2cd4:	6f 93       	push	r22
    2cd6:	7f 93       	push	r23
    2cd8:	8f 93       	push	r24
    2cda:	9f 93       	push	r25
    2cdc:	af 93       	push	r26
    2cde:	bf 93       	push	r27
    2ce0:	ef 93       	push	r30
    2ce2:	ff 93       	push	r31
    2ce4:	cf 93       	push	r28
    2ce6:	df 93       	push	r29
    2ce8:	cd b7       	in	r28, 0x3d	; 61
    2cea:	de b7       	in	r29, 0x3e	; 62
    2cec:	80 91 40 21 	lds	r24, 0x2140	; 0x802140 <tc_tcd0_cca_callback>
    2cf0:	90 91 41 21 	lds	r25, 0x2141	; 0x802141 <tc_tcd0_cca_callback+0x1>
    2cf4:	89 2b       	or	r24, r25
    2cf6:	31 f0       	breq	.+12     	; 0x2d04 <__vector_79+0x4a>
    2cf8:	80 91 40 21 	lds	r24, 0x2140	; 0x802140 <tc_tcd0_cca_callback>
    2cfc:	90 91 41 21 	lds	r25, 0x2141	; 0x802141 <tc_tcd0_cca_callback+0x1>
    2d00:	fc 01       	movw	r30, r24
    2d02:	19 95       	eicall
    2d04:	00 00       	nop
    2d06:	df 91       	pop	r29
    2d08:	cf 91       	pop	r28
    2d0a:	ff 91       	pop	r31
    2d0c:	ef 91       	pop	r30
    2d0e:	bf 91       	pop	r27
    2d10:	af 91       	pop	r26
    2d12:	9f 91       	pop	r25
    2d14:	8f 91       	pop	r24
    2d16:	7f 91       	pop	r23
    2d18:	6f 91       	pop	r22
    2d1a:	5f 91       	pop	r21
    2d1c:	4f 91       	pop	r20
    2d1e:	3f 91       	pop	r19
    2d20:	2f 91       	pop	r18
    2d22:	0f 90       	pop	r0
    2d24:	00 92 3b 00 	sts	0x003B, r0	; 0x80003b <__TEXT_REGION_LENGTH__+0x70003b>
    2d28:	0f 90       	pop	r0
    2d2a:	00 92 3f 00 	sts	0x003F, r0	; 0x80003f <__TEXT_REGION_LENGTH__+0x70003f>
    2d2e:	0f 90       	pop	r0
    2d30:	1f 90       	pop	r1
    2d32:	18 95       	reti

00002d34 <__vector_80>:
    2d34:	1f 92       	push	r1
    2d36:	0f 92       	push	r0
    2d38:	00 90 3f 00 	lds	r0, 0x003F	; 0x80003f <__TEXT_REGION_LENGTH__+0x70003f>
    2d3c:	0f 92       	push	r0
    2d3e:	11 24       	eor	r1, r1
    2d40:	00 90 3b 00 	lds	r0, 0x003B	; 0x80003b <__TEXT_REGION_LENGTH__+0x70003b>
    2d44:	0f 92       	push	r0
    2d46:	2f 93       	push	r18
    2d48:	3f 93       	push	r19
    2d4a:	4f 93       	push	r20
    2d4c:	5f 93       	push	r21
    2d4e:	6f 93       	push	r22
    2d50:	7f 93       	push	r23
    2d52:	8f 93       	push	r24
    2d54:	9f 93       	push	r25
    2d56:	af 93       	push	r26
    2d58:	bf 93       	push	r27
    2d5a:	ef 93       	push	r30
    2d5c:	ff 93       	push	r31
    2d5e:	cf 93       	push	r28
    2d60:	df 93       	push	r29
    2d62:	cd b7       	in	r28, 0x3d	; 61
    2d64:	de b7       	in	r29, 0x3e	; 62
    2d66:	80 91 42 21 	lds	r24, 0x2142	; 0x802142 <tc_tcd0_ccb_callback>
    2d6a:	90 91 43 21 	lds	r25, 0x2143	; 0x802143 <tc_tcd0_ccb_callback+0x1>
    2d6e:	89 2b       	or	r24, r25
    2d70:	31 f0       	breq	.+12     	; 0x2d7e <__vector_80+0x4a>
    2d72:	80 91 42 21 	lds	r24, 0x2142	; 0x802142 <tc_tcd0_ccb_callback>
    2d76:	90 91 43 21 	lds	r25, 0x2143	; 0x802143 <tc_tcd0_ccb_callback+0x1>
    2d7a:	fc 01       	movw	r30, r24
    2d7c:	19 95       	eicall
    2d7e:	00 00       	nop
    2d80:	df 91       	pop	r29
    2d82:	cf 91       	pop	r28
    2d84:	ff 91       	pop	r31
    2d86:	ef 91       	pop	r30
    2d88:	bf 91       	pop	r27
    2d8a:	af 91       	pop	r26
    2d8c:	9f 91       	pop	r25
    2d8e:	8f 91       	pop	r24
    2d90:	7f 91       	pop	r23
    2d92:	6f 91       	pop	r22
    2d94:	5f 91       	pop	r21
    2d96:	4f 91       	pop	r20
    2d98:	3f 91       	pop	r19
    2d9a:	2f 91       	pop	r18
    2d9c:	0f 90       	pop	r0
    2d9e:	00 92 3b 00 	sts	0x003B, r0	; 0x80003b <__TEXT_REGION_LENGTH__+0x70003b>
    2da2:	0f 90       	pop	r0
    2da4:	00 92 3f 00 	sts	0x003F, r0	; 0x80003f <__TEXT_REGION_LENGTH__+0x70003f>
    2da8:	0f 90       	pop	r0
    2daa:	1f 90       	pop	r1
    2dac:	18 95       	reti

00002dae <__vector_81>:
    2dae:	1f 92       	push	r1
    2db0:	0f 92       	push	r0
    2db2:	00 90 3f 00 	lds	r0, 0x003F	; 0x80003f <__TEXT_REGION_LENGTH__+0x70003f>
    2db6:	0f 92       	push	r0
    2db8:	11 24       	eor	r1, r1
    2dba:	00 90 3b 00 	lds	r0, 0x003B	; 0x80003b <__TEXT_REGION_LENGTH__+0x70003b>
    2dbe:	0f 92       	push	r0
    2dc0:	2f 93       	push	r18
    2dc2:	3f 93       	push	r19
    2dc4:	4f 93       	push	r20
    2dc6:	5f 93       	push	r21
    2dc8:	6f 93       	push	r22
    2dca:	7f 93       	push	r23
    2dcc:	8f 93       	push	r24
    2dce:	9f 93       	push	r25
    2dd0:	af 93       	push	r26
    2dd2:	bf 93       	push	r27
    2dd4:	ef 93       	push	r30
    2dd6:	ff 93       	push	r31
    2dd8:	cf 93       	push	r28
    2dda:	df 93       	push	r29
    2ddc:	cd b7       	in	r28, 0x3d	; 61
    2dde:	de b7       	in	r29, 0x3e	; 62
    2de0:	80 91 44 21 	lds	r24, 0x2144	; 0x802144 <tc_tcd0_ccc_callback>
    2de4:	90 91 45 21 	lds	r25, 0x2145	; 0x802145 <tc_tcd0_ccc_callback+0x1>
    2de8:	89 2b       	or	r24, r25
    2dea:	31 f0       	breq	.+12     	; 0x2df8 <__vector_81+0x4a>
    2dec:	80 91 44 21 	lds	r24, 0x2144	; 0x802144 <tc_tcd0_ccc_callback>
    2df0:	90 91 45 21 	lds	r25, 0x2145	; 0x802145 <tc_tcd0_ccc_callback+0x1>
    2df4:	fc 01       	movw	r30, r24
    2df6:	19 95       	eicall
    2df8:	00 00       	nop
    2dfa:	df 91       	pop	r29
    2dfc:	cf 91       	pop	r28
    2dfe:	ff 91       	pop	r31
    2e00:	ef 91       	pop	r30
    2e02:	bf 91       	pop	r27
    2e04:	af 91       	pop	r26
    2e06:	9f 91       	pop	r25
    2e08:	8f 91       	pop	r24
    2e0a:	7f 91       	pop	r23
    2e0c:	6f 91       	pop	r22
    2e0e:	5f 91       	pop	r21
    2e10:	4f 91       	pop	r20
    2e12:	3f 91       	pop	r19
    2e14:	2f 91       	pop	r18
    2e16:	0f 90       	pop	r0
    2e18:	00 92 3b 00 	sts	0x003B, r0	; 0x80003b <__TEXT_REGION_LENGTH__+0x70003b>
    2e1c:	0f 90       	pop	r0
    2e1e:	00 92 3f 00 	sts	0x003F, r0	; 0x80003f <__TEXT_REGION_LENGTH__+0x70003f>
    2e22:	0f 90       	pop	r0
    2e24:	1f 90       	pop	r1
    2e26:	18 95       	reti

00002e28 <__vector_82>:
    2e28:	1f 92       	push	r1
    2e2a:	0f 92       	push	r0
    2e2c:	00 90 3f 00 	lds	r0, 0x003F	; 0x80003f <__TEXT_REGION_LENGTH__+0x70003f>
    2e30:	0f 92       	push	r0
    2e32:	11 24       	eor	r1, r1
    2e34:	00 90 3b 00 	lds	r0, 0x003B	; 0x80003b <__TEXT_REGION_LENGTH__+0x70003b>
    2e38:	0f 92       	push	r0
    2e3a:	2f 93       	push	r18
    2e3c:	3f 93       	push	r19
    2e3e:	4f 93       	push	r20
    2e40:	5f 93       	push	r21
    2e42:	6f 93       	push	r22
    2e44:	7f 93       	push	r23
    2e46:	8f 93       	push	r24
    2e48:	9f 93       	push	r25
    2e4a:	af 93       	push	r26
    2e4c:	bf 93       	push	r27
    2e4e:	ef 93       	push	r30
    2e50:	ff 93       	push	r31
    2e52:	cf 93       	push	r28
    2e54:	df 93       	push	r29
    2e56:	cd b7       	in	r28, 0x3d	; 61
    2e58:	de b7       	in	r29, 0x3e	; 62
    2e5a:	80 91 46 21 	lds	r24, 0x2146	; 0x802146 <tc_tcd0_ccd_callback>
    2e5e:	90 91 47 21 	lds	r25, 0x2147	; 0x802147 <tc_tcd0_ccd_callback+0x1>
    2e62:	89 2b       	or	r24, r25
    2e64:	31 f0       	breq	.+12     	; 0x2e72 <__vector_82+0x4a>
    2e66:	80 91 46 21 	lds	r24, 0x2146	; 0x802146 <tc_tcd0_ccd_callback>
    2e6a:	90 91 47 21 	lds	r25, 0x2147	; 0x802147 <tc_tcd0_ccd_callback+0x1>
    2e6e:	fc 01       	movw	r30, r24
    2e70:	19 95       	eicall
    2e72:	00 00       	nop
    2e74:	df 91       	pop	r29
    2e76:	cf 91       	pop	r28
    2e78:	ff 91       	pop	r31
    2e7a:	ef 91       	pop	r30
    2e7c:	bf 91       	pop	r27
    2e7e:	af 91       	pop	r26
    2e80:	9f 91       	pop	r25
    2e82:	8f 91       	pop	r24
    2e84:	7f 91       	pop	r23
    2e86:	6f 91       	pop	r22
    2e88:	5f 91       	pop	r21
    2e8a:	4f 91       	pop	r20
    2e8c:	3f 91       	pop	r19
    2e8e:	2f 91       	pop	r18
    2e90:	0f 90       	pop	r0
    2e92:	00 92 3b 00 	sts	0x003B, r0	; 0x80003b <__TEXT_REGION_LENGTH__+0x70003b>
    2e96:	0f 90       	pop	r0
    2e98:	00 92 3f 00 	sts	0x003F, r0	; 0x80003f <__TEXT_REGION_LENGTH__+0x70003f>
    2e9c:	0f 90       	pop	r0
    2e9e:	1f 90       	pop	r1
    2ea0:	18 95       	reti

00002ea2 <__vector_47>:
    2ea2:	1f 92       	push	r1
    2ea4:	0f 92       	push	r0
    2ea6:	00 90 3f 00 	lds	r0, 0x003F	; 0x80003f <__TEXT_REGION_LENGTH__+0x70003f>
    2eaa:	0f 92       	push	r0
    2eac:	11 24       	eor	r1, r1
    2eae:	00 90 3b 00 	lds	r0, 0x003B	; 0x80003b <__TEXT_REGION_LENGTH__+0x70003b>
    2eb2:	0f 92       	push	r0
    2eb4:	2f 93       	push	r18
    2eb6:	3f 93       	push	r19
    2eb8:	4f 93       	push	r20
    2eba:	5f 93       	push	r21
    2ebc:	6f 93       	push	r22
    2ebe:	7f 93       	push	r23
    2ec0:	8f 93       	push	r24
    2ec2:	9f 93       	push	r25
    2ec4:	af 93       	push	r26
    2ec6:	bf 93       	push	r27
    2ec8:	ef 93       	push	r30
    2eca:	ff 93       	push	r31
    2ecc:	cf 93       	push	r28
    2ece:	df 93       	push	r29
    2ed0:	cd b7       	in	r28, 0x3d	; 61
    2ed2:	de b7       	in	r29, 0x3e	; 62
    2ed4:	80 91 48 21 	lds	r24, 0x2148	; 0x802148 <tc_tce0_ovf_callback>
    2ed8:	90 91 49 21 	lds	r25, 0x2149	; 0x802149 <tc_tce0_ovf_callback+0x1>
    2edc:	89 2b       	or	r24, r25
    2ede:	31 f0       	breq	.+12     	; 0x2eec <__vector_47+0x4a>
    2ee0:	80 91 48 21 	lds	r24, 0x2148	; 0x802148 <tc_tce0_ovf_callback>
    2ee4:	90 91 49 21 	lds	r25, 0x2149	; 0x802149 <tc_tce0_ovf_callback+0x1>
    2ee8:	fc 01       	movw	r30, r24
    2eea:	19 95       	eicall
    2eec:	00 00       	nop
    2eee:	df 91       	pop	r29
    2ef0:	cf 91       	pop	r28
    2ef2:	ff 91       	pop	r31
    2ef4:	ef 91       	pop	r30
    2ef6:	bf 91       	pop	r27
    2ef8:	af 91       	pop	r26
    2efa:	9f 91       	pop	r25
    2efc:	8f 91       	pop	r24
    2efe:	7f 91       	pop	r23
    2f00:	6f 91       	pop	r22
    2f02:	5f 91       	pop	r21
    2f04:	4f 91       	pop	r20
    2f06:	3f 91       	pop	r19
    2f08:	2f 91       	pop	r18
    2f0a:	0f 90       	pop	r0
    2f0c:	00 92 3b 00 	sts	0x003B, r0	; 0x80003b <__TEXT_REGION_LENGTH__+0x70003b>
    2f10:	0f 90       	pop	r0
    2f12:	00 92 3f 00 	sts	0x003F, r0	; 0x80003f <__TEXT_REGION_LENGTH__+0x70003f>
    2f16:	0f 90       	pop	r0
    2f18:	1f 90       	pop	r1
    2f1a:	18 95       	reti

00002f1c <__vector_48>:
    2f1c:	1f 92       	push	r1
    2f1e:	0f 92       	push	r0
    2f20:	00 90 3f 00 	lds	r0, 0x003F	; 0x80003f <__TEXT_REGION_LENGTH__+0x70003f>
    2f24:	0f 92       	push	r0
    2f26:	11 24       	eor	r1, r1
    2f28:	00 90 3b 00 	lds	r0, 0x003B	; 0x80003b <__TEXT_REGION_LENGTH__+0x70003b>
    2f2c:	0f 92       	push	r0
    2f2e:	2f 93       	push	r18
    2f30:	3f 93       	push	r19
    2f32:	4f 93       	push	r20
    2f34:	5f 93       	push	r21
    2f36:	6f 93       	push	r22
    2f38:	7f 93       	push	r23
    2f3a:	8f 93       	push	r24
    2f3c:	9f 93       	push	r25
    2f3e:	af 93       	push	r26
    2f40:	bf 93       	push	r27
    2f42:	ef 93       	push	r30
    2f44:	ff 93       	push	r31
    2f46:	cf 93       	push	r28
    2f48:	df 93       	push	r29
    2f4a:	cd b7       	in	r28, 0x3d	; 61
    2f4c:	de b7       	in	r29, 0x3e	; 62
    2f4e:	80 91 4a 21 	lds	r24, 0x214A	; 0x80214a <tc_tce0_err_callback>
    2f52:	90 91 4b 21 	lds	r25, 0x214B	; 0x80214b <tc_tce0_err_callback+0x1>
    2f56:	89 2b       	or	r24, r25
    2f58:	31 f0       	breq	.+12     	; 0x2f66 <__vector_48+0x4a>
    2f5a:	80 91 4a 21 	lds	r24, 0x214A	; 0x80214a <tc_tce0_err_callback>
    2f5e:	90 91 4b 21 	lds	r25, 0x214B	; 0x80214b <tc_tce0_err_callback+0x1>
    2f62:	fc 01       	movw	r30, r24
    2f64:	19 95       	eicall
    2f66:	00 00       	nop
    2f68:	df 91       	pop	r29
    2f6a:	cf 91       	pop	r28
    2f6c:	ff 91       	pop	r31
    2f6e:	ef 91       	pop	r30
    2f70:	bf 91       	pop	r27
    2f72:	af 91       	pop	r26
    2f74:	9f 91       	pop	r25
    2f76:	8f 91       	pop	r24
    2f78:	7f 91       	pop	r23
    2f7a:	6f 91       	pop	r22
    2f7c:	5f 91       	pop	r21
    2f7e:	4f 91       	pop	r20
    2f80:	3f 91       	pop	r19
    2f82:	2f 91       	pop	r18
    2f84:	0f 90       	pop	r0
    2f86:	00 92 3b 00 	sts	0x003B, r0	; 0x80003b <__TEXT_REGION_LENGTH__+0x70003b>
    2f8a:	0f 90       	pop	r0
    2f8c:	00 92 3f 00 	sts	0x003F, r0	; 0x80003f <__TEXT_REGION_LENGTH__+0x70003f>
    2f90:	0f 90       	pop	r0
    2f92:	1f 90       	pop	r1
    2f94:	18 95       	reti

00002f96 <__vector_49>:
    2f96:	1f 92       	push	r1
    2f98:	0f 92       	push	r0
    2f9a:	00 90 3f 00 	lds	r0, 0x003F	; 0x80003f <__TEXT_REGION_LENGTH__+0x70003f>
    2f9e:	0f 92       	push	r0
    2fa0:	11 24       	eor	r1, r1
    2fa2:	00 90 3b 00 	lds	r0, 0x003B	; 0x80003b <__TEXT_REGION_LENGTH__+0x70003b>
    2fa6:	0f 92       	push	r0
    2fa8:	2f 93       	push	r18
    2faa:	3f 93       	push	r19
    2fac:	4f 93       	push	r20
    2fae:	5f 93       	push	r21
    2fb0:	6f 93       	push	r22
    2fb2:	7f 93       	push	r23
    2fb4:	8f 93       	push	r24
    2fb6:	9f 93       	push	r25
    2fb8:	af 93       	push	r26
    2fba:	bf 93       	push	r27
    2fbc:	ef 93       	push	r30
    2fbe:	ff 93       	push	r31
    2fc0:	cf 93       	push	r28
    2fc2:	df 93       	push	r29
    2fc4:	cd b7       	in	r28, 0x3d	; 61
    2fc6:	de b7       	in	r29, 0x3e	; 62
    2fc8:	80 91 4c 21 	lds	r24, 0x214C	; 0x80214c <tc_tce0_cca_callback>
    2fcc:	90 91 4d 21 	lds	r25, 0x214D	; 0x80214d <tc_tce0_cca_callback+0x1>
    2fd0:	89 2b       	or	r24, r25
    2fd2:	31 f0       	breq	.+12     	; 0x2fe0 <__vector_49+0x4a>
    2fd4:	80 91 4c 21 	lds	r24, 0x214C	; 0x80214c <tc_tce0_cca_callback>
    2fd8:	90 91 4d 21 	lds	r25, 0x214D	; 0x80214d <tc_tce0_cca_callback+0x1>
    2fdc:	fc 01       	movw	r30, r24
    2fde:	19 95       	eicall
    2fe0:	00 00       	nop
    2fe2:	df 91       	pop	r29
    2fe4:	cf 91       	pop	r28
    2fe6:	ff 91       	pop	r31
    2fe8:	ef 91       	pop	r30
    2fea:	bf 91       	pop	r27
    2fec:	af 91       	pop	r26
    2fee:	9f 91       	pop	r25
    2ff0:	8f 91       	pop	r24
    2ff2:	7f 91       	pop	r23
    2ff4:	6f 91       	pop	r22
    2ff6:	5f 91       	pop	r21
    2ff8:	4f 91       	pop	r20
    2ffa:	3f 91       	pop	r19
    2ffc:	2f 91       	pop	r18
    2ffe:	0f 90       	pop	r0
    3000:	00 92 3b 00 	sts	0x003B, r0	; 0x80003b <__TEXT_REGION_LENGTH__+0x70003b>
    3004:	0f 90       	pop	r0
    3006:	00 92 3f 00 	sts	0x003F, r0	; 0x80003f <__TEXT_REGION_LENGTH__+0x70003f>
    300a:	0f 90       	pop	r0
    300c:	1f 90       	pop	r1
    300e:	18 95       	reti

00003010 <__vector_50>:
    3010:	1f 92       	push	r1
    3012:	0f 92       	push	r0
    3014:	00 90 3f 00 	lds	r0, 0x003F	; 0x80003f <__TEXT_REGION_LENGTH__+0x70003f>
    3018:	0f 92       	push	r0
    301a:	11 24       	eor	r1, r1
    301c:	00 90 3b 00 	lds	r0, 0x003B	; 0x80003b <__TEXT_REGION_LENGTH__+0x70003b>
    3020:	0f 92       	push	r0
    3022:	2f 93       	push	r18
    3024:	3f 93       	push	r19
    3026:	4f 93       	push	r20
    3028:	5f 93       	push	r21
    302a:	6f 93       	push	r22
    302c:	7f 93       	push	r23
    302e:	8f 93       	push	r24
    3030:	9f 93       	push	r25
    3032:	af 93       	push	r26
    3034:	bf 93       	push	r27
    3036:	ef 93       	push	r30
    3038:	ff 93       	push	r31
    303a:	cf 93       	push	r28
    303c:	df 93       	push	r29
    303e:	cd b7       	in	r28, 0x3d	; 61
    3040:	de b7       	in	r29, 0x3e	; 62
    3042:	80 91 4e 21 	lds	r24, 0x214E	; 0x80214e <tc_tce0_ccb_callback>
    3046:	90 91 4f 21 	lds	r25, 0x214F	; 0x80214f <tc_tce0_ccb_callback+0x1>
    304a:	89 2b       	or	r24, r25
    304c:	31 f0       	breq	.+12     	; 0x305a <__vector_50+0x4a>
    304e:	80 91 4e 21 	lds	r24, 0x214E	; 0x80214e <tc_tce0_ccb_callback>
    3052:	90 91 4f 21 	lds	r25, 0x214F	; 0x80214f <tc_tce0_ccb_callback+0x1>
    3056:	fc 01       	movw	r30, r24
    3058:	19 95       	eicall
    305a:	00 00       	nop
    305c:	df 91       	pop	r29
    305e:	cf 91       	pop	r28
    3060:	ff 91       	pop	r31
    3062:	ef 91       	pop	r30
    3064:	bf 91       	pop	r27
    3066:	af 91       	pop	r26
    3068:	9f 91       	pop	r25
    306a:	8f 91       	pop	r24
    306c:	7f 91       	pop	r23
    306e:	6f 91       	pop	r22
    3070:	5f 91       	pop	r21
    3072:	4f 91       	pop	r20
    3074:	3f 91       	pop	r19
    3076:	2f 91       	pop	r18
    3078:	0f 90       	pop	r0
    307a:	00 92 3b 00 	sts	0x003B, r0	; 0x80003b <__TEXT_REGION_LENGTH__+0x70003b>
    307e:	0f 90       	pop	r0
    3080:	00 92 3f 00 	sts	0x003F, r0	; 0x80003f <__TEXT_REGION_LENGTH__+0x70003f>
    3084:	0f 90       	pop	r0
    3086:	1f 90       	pop	r1
    3088:	18 95       	reti

0000308a <__vector_51>:
    308a:	1f 92       	push	r1
    308c:	0f 92       	push	r0
    308e:	00 90 3f 00 	lds	r0, 0x003F	; 0x80003f <__TEXT_REGION_LENGTH__+0x70003f>
    3092:	0f 92       	push	r0
    3094:	11 24       	eor	r1, r1
    3096:	00 90 3b 00 	lds	r0, 0x003B	; 0x80003b <__TEXT_REGION_LENGTH__+0x70003b>
    309a:	0f 92       	push	r0
    309c:	2f 93       	push	r18
    309e:	3f 93       	push	r19
    30a0:	4f 93       	push	r20
    30a2:	5f 93       	push	r21
    30a4:	6f 93       	push	r22
    30a6:	7f 93       	push	r23
    30a8:	8f 93       	push	r24
    30aa:	9f 93       	push	r25
    30ac:	af 93       	push	r26
    30ae:	bf 93       	push	r27
    30b0:	ef 93       	push	r30
    30b2:	ff 93       	push	r31
    30b4:	cf 93       	push	r28
    30b6:	df 93       	push	r29
    30b8:	cd b7       	in	r28, 0x3d	; 61
    30ba:	de b7       	in	r29, 0x3e	; 62
    30bc:	80 91 50 21 	lds	r24, 0x2150	; 0x802150 <tc_tce0_ccc_callback>
    30c0:	90 91 51 21 	lds	r25, 0x2151	; 0x802151 <tc_tce0_ccc_callback+0x1>
    30c4:	89 2b       	or	r24, r25
    30c6:	31 f0       	breq	.+12     	; 0x30d4 <__vector_51+0x4a>
    30c8:	80 91 50 21 	lds	r24, 0x2150	; 0x802150 <tc_tce0_ccc_callback>
    30cc:	90 91 51 21 	lds	r25, 0x2151	; 0x802151 <tc_tce0_ccc_callback+0x1>
    30d0:	fc 01       	movw	r30, r24
    30d2:	19 95       	eicall
    30d4:	00 00       	nop
    30d6:	df 91       	pop	r29
    30d8:	cf 91       	pop	r28
    30da:	ff 91       	pop	r31
    30dc:	ef 91       	pop	r30
    30de:	bf 91       	pop	r27
    30e0:	af 91       	pop	r26
    30e2:	9f 91       	pop	r25
    30e4:	8f 91       	pop	r24
    30e6:	7f 91       	pop	r23
    30e8:	6f 91       	pop	r22
    30ea:	5f 91       	pop	r21
    30ec:	4f 91       	pop	r20
    30ee:	3f 91       	pop	r19
    30f0:	2f 91       	pop	r18
    30f2:	0f 90       	pop	r0
    30f4:	00 92 3b 00 	sts	0x003B, r0	; 0x80003b <__TEXT_REGION_LENGTH__+0x70003b>
    30f8:	0f 90       	pop	r0
    30fa:	00 92 3f 00 	sts	0x003F, r0	; 0x80003f <__TEXT_REGION_LENGTH__+0x70003f>
    30fe:	0f 90       	pop	r0
    3100:	1f 90       	pop	r1
    3102:	18 95       	reti

00003104 <__vector_52>:
    3104:	1f 92       	push	r1
    3106:	0f 92       	push	r0
    3108:	00 90 3f 00 	lds	r0, 0x003F	; 0x80003f <__TEXT_REGION_LENGTH__+0x70003f>
    310c:	0f 92       	push	r0
    310e:	11 24       	eor	r1, r1
    3110:	00 90 3b 00 	lds	r0, 0x003B	; 0x80003b <__TEXT_REGION_LENGTH__+0x70003b>
    3114:	0f 92       	push	r0
    3116:	2f 93       	push	r18
    3118:	3f 93       	push	r19
    311a:	4f 93       	push	r20
    311c:	5f 93       	push	r21
    311e:	6f 93       	push	r22
    3120:	7f 93       	push	r23
    3122:	8f 93       	push	r24
    3124:	9f 93       	push	r25
    3126:	af 93       	push	r26
    3128:	bf 93       	push	r27
    312a:	ef 93       	push	r30
    312c:	ff 93       	push	r31
    312e:	cf 93       	push	r28
    3130:	df 93       	push	r29
    3132:	cd b7       	in	r28, 0x3d	; 61
    3134:	de b7       	in	r29, 0x3e	; 62
    3136:	80 91 52 21 	lds	r24, 0x2152	; 0x802152 <tc_tce0_ccd_callback>
    313a:	90 91 53 21 	lds	r25, 0x2153	; 0x802153 <tc_tce0_ccd_callback+0x1>
    313e:	89 2b       	or	r24, r25
    3140:	31 f0       	breq	.+12     	; 0x314e <__vector_52+0x4a>
    3142:	80 91 52 21 	lds	r24, 0x2152	; 0x802152 <tc_tce0_ccd_callback>
    3146:	90 91 53 21 	lds	r25, 0x2153	; 0x802153 <tc_tce0_ccd_callback+0x1>
    314a:	fc 01       	movw	r30, r24
    314c:	19 95       	eicall
    314e:	00 00       	nop
    3150:	df 91       	pop	r29
    3152:	cf 91       	pop	r28
    3154:	ff 91       	pop	r31
    3156:	ef 91       	pop	r30
    3158:	bf 91       	pop	r27
    315a:	af 91       	pop	r26
    315c:	9f 91       	pop	r25
    315e:	8f 91       	pop	r24
    3160:	7f 91       	pop	r23
    3162:	6f 91       	pop	r22
    3164:	5f 91       	pop	r21
    3166:	4f 91       	pop	r20
    3168:	3f 91       	pop	r19
    316a:	2f 91       	pop	r18
    316c:	0f 90       	pop	r0
    316e:	00 92 3b 00 	sts	0x003B, r0	; 0x80003b <__TEXT_REGION_LENGTH__+0x70003b>
    3172:	0f 90       	pop	r0
    3174:	00 92 3f 00 	sts	0x003F, r0	; 0x80003f <__TEXT_REGION_LENGTH__+0x70003f>
    3178:	0f 90       	pop	r0
    317a:	1f 90       	pop	r1
    317c:	18 95       	reti

0000317e <tc_enable>:
    317e:	cf 93       	push	r28
    3180:	df 93       	push	r29
    3182:	00 d0       	rcall	.+0      	; 0x3184 <tc_enable+0x6>
    3184:	cd b7       	in	r28, 0x3d	; 61
    3186:	de b7       	in	r29, 0x3e	; 62
    3188:	8a 83       	std	Y+2, r24	; 0x02
    318a:	9b 83       	std	Y+3, r25	; 0x03
    318c:	72 da       	rcall	.-2844   	; 0x2672 <cpu_irq_save>
    318e:	89 83       	std	Y+1, r24	; 0x01
    3190:	8a 81       	ldd	r24, Y+2	; 0x02
    3192:	9b 81       	ldd	r25, Y+3	; 0x03
    3194:	81 15       	cp	r24, r1
    3196:	98 40       	sbci	r25, 0x08	; 8
    3198:	39 f4       	brne	.+14     	; 0x31a8 <tc_enable+0x2a>
    319a:	61 e0       	ldi	r22, 0x01	; 1
    319c:	83 e0       	ldi	r24, 0x03	; 3
    319e:	45 da       	rcall	.-2934   	; 0x262a <sysclk_enable_module>
    31a0:	64 e0       	ldi	r22, 0x04	; 4
    31a2:	83 e0       	ldi	r24, 0x03	; 3
    31a4:	42 da       	rcall	.-2940   	; 0x262a <sysclk_enable_module>
    31a6:	27 c0       	rjmp	.+78     	; 0x31f6 <tc_enable+0x78>
    31a8:	8a 81       	ldd	r24, Y+2	; 0x02
    31aa:	9b 81       	ldd	r25, Y+3	; 0x03
    31ac:	80 34       	cpi	r24, 0x40	; 64
    31ae:	98 40       	sbci	r25, 0x08	; 8
    31b0:	39 f4       	brne	.+14     	; 0x31c0 <tc_enable+0x42>
    31b2:	62 e0       	ldi	r22, 0x02	; 2
    31b4:	83 e0       	ldi	r24, 0x03	; 3
    31b6:	39 da       	rcall	.-2958   	; 0x262a <sysclk_enable_module>
    31b8:	64 e0       	ldi	r22, 0x04	; 4
    31ba:	83 e0       	ldi	r24, 0x03	; 3
    31bc:	36 da       	rcall	.-2964   	; 0x262a <sysclk_enable_module>
    31be:	1b c0       	rjmp	.+54     	; 0x31f6 <tc_enable+0x78>
    31c0:	8a 81       	ldd	r24, Y+2	; 0x02
    31c2:	9b 81       	ldd	r25, Y+3	; 0x03
    31c4:	81 15       	cp	r24, r1
    31c6:	99 40       	sbci	r25, 0x09	; 9
    31c8:	39 f4       	brne	.+14     	; 0x31d8 <tc_enable+0x5a>
    31ca:	61 e0       	ldi	r22, 0x01	; 1
    31cc:	84 e0       	ldi	r24, 0x04	; 4
    31ce:	2d da       	rcall	.-2982   	; 0x262a <sysclk_enable_module>
    31d0:	64 e0       	ldi	r22, 0x04	; 4
    31d2:	84 e0       	ldi	r24, 0x04	; 4
    31d4:	2a da       	rcall	.-2988   	; 0x262a <sysclk_enable_module>
    31d6:	0f c0       	rjmp	.+30     	; 0x31f6 <tc_enable+0x78>
    31d8:	8a 81       	ldd	r24, Y+2	; 0x02
    31da:	9b 81       	ldd	r25, Y+3	; 0x03
    31dc:	81 15       	cp	r24, r1
    31de:	9a 40       	sbci	r25, 0x0A	; 10
    31e0:	39 f4       	brne	.+14     	; 0x31f0 <tc_enable+0x72>
    31e2:	61 e0       	ldi	r22, 0x01	; 1
    31e4:	85 e0       	ldi	r24, 0x05	; 5
    31e6:	21 da       	rcall	.-3006   	; 0x262a <sysclk_enable_module>
    31e8:	64 e0       	ldi	r22, 0x04	; 4
    31ea:	85 e0       	ldi	r24, 0x05	; 5
    31ec:	1e da       	rcall	.-3012   	; 0x262a <sysclk_enable_module>
    31ee:	03 c0       	rjmp	.+6      	; 0x31f6 <tc_enable+0x78>
    31f0:	89 81       	ldd	r24, Y+1	; 0x01
    31f2:	4f da       	rcall	.-2914   	; 0x2692 <cpu_irq_restore>
    31f4:	04 c0       	rjmp	.+8      	; 0x31fe <tc_enable+0x80>
    31f6:	81 e0       	ldi	r24, 0x01	; 1
    31f8:	5c da       	rcall	.-2888   	; 0x26b2 <sleepmgr_lock_mode>
    31fa:	89 81       	ldd	r24, Y+1	; 0x01
    31fc:	4a da       	rcall	.-2924   	; 0x2692 <cpu_irq_restore>
    31fe:	23 96       	adiw	r28, 0x03	; 3
    3200:	cd bf       	out	0x3d, r28	; 61
    3202:	de bf       	out	0x3e, r29	; 62
    3204:	df 91       	pop	r29
    3206:	cf 91       	pop	r28
    3208:	08 95       	ret

0000320a <tc_set_overflow_interrupt_callback>:

void tc_set_overflow_interrupt_callback(volatile void *tc,
		tc_callback_t callback)
{
    320a:	cf 93       	push	r28
    320c:	df 93       	push	r29
    320e:	00 d0       	rcall	.+0      	; 0x3210 <tc_set_overflow_interrupt_callback+0x6>
    3210:	1f 92       	push	r1
    3212:	cd b7       	in	r28, 0x3d	; 61
    3214:	de b7       	in	r29, 0x3e	; 62
    3216:	89 83       	std	Y+1, r24	; 0x01
    3218:	9a 83       	std	Y+2, r25	; 0x02
    321a:	6b 83       	std	Y+3, r22	; 0x03
    321c:	7c 83       	std	Y+4, r23	; 0x04
#ifdef TCC0
	if ((uintptr_t) tc == (uintptr_t) & TCC0) {
    321e:	89 81       	ldd	r24, Y+1	; 0x01
    3220:	9a 81       	ldd	r25, Y+2	; 0x02
    3222:	81 15       	cp	r24, r1
    3224:	98 40       	sbci	r25, 0x08	; 8
    3226:	39 f4       	brne	.+14     	; 0x3236 <tc_set_overflow_interrupt_callback+0x2c>
		tc_tcc0_ovf_callback = callback;
    3228:	8b 81       	ldd	r24, Y+3	; 0x03
    322a:	9c 81       	ldd	r25, Y+4	; 0x04
    322c:	80 93 28 21 	sts	0x2128, r24	; 0x802128 <tc_tcc0_ovf_callback>
    3230:	90 93 29 21 	sts	0x2129, r25	; 0x802129 <tc_tcc0_ovf_callback+0x1>
	if ((uintptr_t) tc == (uintptr_t) & TCF1) {
		tc_tcf1_ovf_callback = callback;
	} else
#endif
	{}
}
    3234:	23 c0       	rjmp	.+70     	; 0x327c <tc_set_overflow_interrupt_callback+0x72>
	if ((uintptr_t) tc == (uintptr_t) & TCC0) {
		tc_tcc0_ovf_callback = callback;
	} else
#endif
#ifdef TCC1
	if ((uintptr_t) tc == (uintptr_t) & TCC1) {
    3236:	89 81       	ldd	r24, Y+1	; 0x01
    3238:	9a 81       	ldd	r25, Y+2	; 0x02
    323a:	80 34       	cpi	r24, 0x40	; 64
    323c:	98 40       	sbci	r25, 0x08	; 8
    323e:	39 f4       	brne	.+14     	; 0x324e <tc_set_overflow_interrupt_callback+0x44>
		tc_tcc1_ovf_callback = callback;
    3240:	8b 81       	ldd	r24, Y+3	; 0x03
    3242:	9c 81       	ldd	r25, Y+4	; 0x04
    3244:	80 93 34 21 	sts	0x2134, r24	; 0x802134 <tc_tcc1_ovf_callback>
    3248:	90 93 35 21 	sts	0x2135, r25	; 0x802135 <tc_tcc1_ovf_callback+0x1>
	if ((uintptr_t) tc == (uintptr_t) & TCF1) {
		tc_tcf1_ovf_callback = callback;
	} else
#endif
	{}
}
    324c:	17 c0       	rjmp	.+46     	; 0x327c <tc_set_overflow_interrupt_callback+0x72>
	if ((uintptr_t) tc == (uintptr_t) & TCC1) {
		tc_tcc1_ovf_callback = callback;
	} else
#endif
#ifdef TCD0
	if ((uintptr_t) tc == (uintptr_t) & TCD0) {
    324e:	89 81       	ldd	r24, Y+1	; 0x01
    3250:	9a 81       	ldd	r25, Y+2	; 0x02
    3252:	81 15       	cp	r24, r1
    3254:	99 40       	sbci	r25, 0x09	; 9
    3256:	39 f4       	brne	.+14     	; 0x3266 <tc_set_overflow_interrupt_callback+0x5c>
		tc_tcd0_ovf_callback = callback;
    3258:	8b 81       	ldd	r24, Y+3	; 0x03
    325a:	9c 81       	ldd	r25, Y+4	; 0x04
    325c:	80 93 3c 21 	sts	0x213C, r24	; 0x80213c <tc_tcd0_ovf_callback>
    3260:	90 93 3d 21 	sts	0x213D, r25	; 0x80213d <tc_tcd0_ovf_callback+0x1>
	if ((uintptr_t) tc == (uintptr_t) & TCF1) {
		tc_tcf1_ovf_callback = callback;
	} else
#endif
	{}
}
    3264:	0b c0       	rjmp	.+22     	; 0x327c <tc_set_overflow_interrupt_callback+0x72>
	if ((uintptr_t) tc == (uintptr_t) & TCD1) {
		tc_tcd1_ovf_callback = callback;
	} else
#endif
#ifdef TCE0
	if ((uintptr_t) tc == (uintptr_t) & TCE0) {
    3266:	89 81       	ldd	r24, Y+1	; 0x01
    3268:	9a 81       	ldd	r25, Y+2	; 0x02
    326a:	81 15       	cp	r24, r1
    326c:	9a 40       	sbci	r25, 0x0A	; 10
    326e:	31 f4       	brne	.+12     	; 0x327c <tc_set_overflow_interrupt_callback+0x72>
		tc_tce0_ovf_callback = callback;
    3270:	8b 81       	ldd	r24, Y+3	; 0x03
    3272:	9c 81       	ldd	r25, Y+4	; 0x04
    3274:	80 93 48 21 	sts	0x2148, r24	; 0x802148 <tc_tce0_ovf_callback>
    3278:	90 93 49 21 	sts	0x2149, r25	; 0x802149 <tc_tce0_ovf_callback+0x1>
	if ((uintptr_t) tc == (uintptr_t) & TCF1) {
		tc_tcf1_ovf_callback = callback;
	} else
#endif
	{}
}
    327c:	00 00       	nop
    327e:	24 96       	adiw	r28, 0x04	; 4
    3280:	cd bf       	out	0x3d, r28	; 61
    3282:	de bf       	out	0x3e, r29	; 62
    3284:	df 91       	pop	r29
    3286:	cf 91       	pop	r28
    3288:	08 95       	ret

0000328a <ccp_write_io>:

	PUBLIC_FUNCTION(ccp_write_io)

#if defined(__GNUC__)

	out     RAMPZ, r1               // Reset bits 23:16 of Z
    328a:	1b be       	out	0x3b, r1	; 59
	movw    r30, r24                // Load addr into Z
    328c:	fc 01       	movw	r30, r24
	ldi     r18, CCP_IOREG          // Load magic CCP value
    328e:	28 ed       	ldi	r18, 0xD8	; 216
	out     CCP, r18                // Start CCP handshake
    3290:	24 bf       	out	0x34, r18	; 52
	st      Z, r22                  // Write value to I/O register
    3292:	60 83       	st	Z, r22
	ret                             // Return to caller
    3294:	08 95       	ret

00003296 <__divmodhi4>:
    3296:	97 fb       	bst	r25, 7
    3298:	07 2e       	mov	r0, r23
    329a:	16 f4       	brtc	.+4      	; 0x32a0 <__divmodhi4+0xa>
    329c:	00 94       	com	r0
    329e:	06 d0       	rcall	.+12     	; 0x32ac <__divmodhi4_neg1>
    32a0:	77 fd       	sbrc	r23, 7
    32a2:	08 d0       	rcall	.+16     	; 0x32b4 <__divmodhi4_neg2>
    32a4:	3c d0       	rcall	.+120    	; 0x331e <__udivmodhi4>
    32a6:	07 fc       	sbrc	r0, 7
    32a8:	05 d0       	rcall	.+10     	; 0x32b4 <__divmodhi4_neg2>
    32aa:	3e f4       	brtc	.+14     	; 0x32ba <__divmodhi4_exit>

000032ac <__divmodhi4_neg1>:
    32ac:	90 95       	com	r25
    32ae:	81 95       	neg	r24
    32b0:	9f 4f       	sbci	r25, 0xFF	; 255
    32b2:	08 95       	ret

000032b4 <__divmodhi4_neg2>:
    32b4:	70 95       	com	r23
    32b6:	61 95       	neg	r22
    32b8:	7f 4f       	sbci	r23, 0xFF	; 255

000032ba <__divmodhi4_exit>:
    32ba:	08 95       	ret

000032bc <__udivmodsi4>:
    32bc:	a1 e2       	ldi	r26, 0x21	; 33
    32be:	1a 2e       	mov	r1, r26
    32c0:	aa 1b       	sub	r26, r26
    32c2:	bb 1b       	sub	r27, r27
    32c4:	fd 01       	movw	r30, r26
    32c6:	0d c0       	rjmp	.+26     	; 0x32e2 <__udivmodsi4_ep>

000032c8 <__udivmodsi4_loop>:
    32c8:	aa 1f       	adc	r26, r26
    32ca:	bb 1f       	adc	r27, r27
    32cc:	ee 1f       	adc	r30, r30
    32ce:	ff 1f       	adc	r31, r31
    32d0:	a2 17       	cp	r26, r18
    32d2:	b3 07       	cpc	r27, r19
    32d4:	e4 07       	cpc	r30, r20
    32d6:	f5 07       	cpc	r31, r21
    32d8:	20 f0       	brcs	.+8      	; 0x32e2 <__udivmodsi4_ep>
    32da:	a2 1b       	sub	r26, r18
    32dc:	b3 0b       	sbc	r27, r19
    32de:	e4 0b       	sbc	r30, r20
    32e0:	f5 0b       	sbc	r31, r21

000032e2 <__udivmodsi4_ep>:
    32e2:	66 1f       	adc	r22, r22
    32e4:	77 1f       	adc	r23, r23
    32e6:	88 1f       	adc	r24, r24
    32e8:	99 1f       	adc	r25, r25
    32ea:	1a 94       	dec	r1
    32ec:	69 f7       	brne	.-38     	; 0x32c8 <__udivmodsi4_loop>
    32ee:	60 95       	com	r22
    32f0:	70 95       	com	r23
    32f2:	80 95       	com	r24
    32f4:	90 95       	com	r25
    32f6:	9b 01       	movw	r18, r22
    32f8:	ac 01       	movw	r20, r24
    32fa:	bd 01       	movw	r22, r26
    32fc:	cf 01       	movw	r24, r30
    32fe:	08 95       	ret

00003300 <__umulhisi3>:
    3300:	a2 9f       	mul	r26, r18
    3302:	b0 01       	movw	r22, r0
    3304:	b3 9f       	mul	r27, r19
    3306:	c0 01       	movw	r24, r0
    3308:	a3 9f       	mul	r26, r19
    330a:	70 0d       	add	r23, r0
    330c:	81 1d       	adc	r24, r1
    330e:	11 24       	eor	r1, r1
    3310:	91 1d       	adc	r25, r1
    3312:	b2 9f       	mul	r27, r18
    3314:	70 0d       	add	r23, r0
    3316:	81 1d       	adc	r24, r1
    3318:	11 24       	eor	r1, r1
    331a:	91 1d       	adc	r25, r1
    331c:	08 95       	ret

0000331e <__udivmodhi4>:
    331e:	aa 1b       	sub	r26, r26
    3320:	bb 1b       	sub	r27, r27
    3322:	51 e1       	ldi	r21, 0x11	; 17
    3324:	07 c0       	rjmp	.+14     	; 0x3334 <__udivmodhi4_ep>

00003326 <__udivmodhi4_loop>:
    3326:	aa 1f       	adc	r26, r26
    3328:	bb 1f       	adc	r27, r27
    332a:	a6 17       	cp	r26, r22
    332c:	b7 07       	cpc	r27, r23
    332e:	10 f0       	brcs	.+4      	; 0x3334 <__udivmodhi4_ep>
    3330:	a6 1b       	sub	r26, r22
    3332:	b7 0b       	sbc	r27, r23

00003334 <__udivmodhi4_ep>:
    3334:	88 1f       	adc	r24, r24
    3336:	99 1f       	adc	r25, r25
    3338:	5a 95       	dec	r21
    333a:	a9 f7       	brne	.-22     	; 0x3326 <__udivmodhi4_loop>
    333c:	80 95       	com	r24
    333e:	90 95       	com	r25
    3340:	bc 01       	movw	r22, r24
    3342:	cd 01       	movw	r24, r26
    3344:	08 95       	ret

00003346 <malloc>:
    3346:	0f 93       	push	r16
    3348:	1f 93       	push	r17
    334a:	cf 93       	push	r28
    334c:	df 93       	push	r29
    334e:	82 30       	cpi	r24, 0x02	; 2
    3350:	91 05       	cpc	r25, r1
    3352:	10 f4       	brcc	.+4      	; 0x3358 <malloc+0x12>
    3354:	82 e0       	ldi	r24, 0x02	; 2
    3356:	90 e0       	ldi	r25, 0x00	; 0
    3358:	e0 91 12 22 	lds	r30, 0x2212	; 0x802212 <__flp>
    335c:	f0 91 13 22 	lds	r31, 0x2213	; 0x802213 <__flp+0x1>
    3360:	20 e0       	ldi	r18, 0x00	; 0
    3362:	30 e0       	ldi	r19, 0x00	; 0
    3364:	a0 e0       	ldi	r26, 0x00	; 0
    3366:	b0 e0       	ldi	r27, 0x00	; 0
    3368:	30 97       	sbiw	r30, 0x00	; 0
    336a:	19 f1       	breq	.+70     	; 0x33b2 <malloc+0x6c>
    336c:	40 81       	ld	r20, Z
    336e:	51 81       	ldd	r21, Z+1	; 0x01
    3370:	02 81       	ldd	r16, Z+2	; 0x02
    3372:	13 81       	ldd	r17, Z+3	; 0x03
    3374:	48 17       	cp	r20, r24
    3376:	59 07       	cpc	r21, r25
    3378:	c8 f0       	brcs	.+50     	; 0x33ac <malloc+0x66>
    337a:	84 17       	cp	r24, r20
    337c:	95 07       	cpc	r25, r21
    337e:	69 f4       	brne	.+26     	; 0x339a <malloc+0x54>
    3380:	10 97       	sbiw	r26, 0x00	; 0
    3382:	31 f0       	breq	.+12     	; 0x3390 <malloc+0x4a>
    3384:	12 96       	adiw	r26, 0x02	; 2
    3386:	0c 93       	st	X, r16
    3388:	12 97       	sbiw	r26, 0x02	; 2
    338a:	13 96       	adiw	r26, 0x03	; 3
    338c:	1c 93       	st	X, r17
    338e:	27 c0       	rjmp	.+78     	; 0x33de <malloc+0x98>
    3390:	00 93 12 22 	sts	0x2212, r16	; 0x802212 <__flp>
    3394:	10 93 13 22 	sts	0x2213, r17	; 0x802213 <__flp+0x1>
    3398:	22 c0       	rjmp	.+68     	; 0x33de <malloc+0x98>
    339a:	21 15       	cp	r18, r1
    339c:	31 05       	cpc	r19, r1
    339e:	19 f0       	breq	.+6      	; 0x33a6 <malloc+0x60>
    33a0:	42 17       	cp	r20, r18
    33a2:	53 07       	cpc	r21, r19
    33a4:	18 f4       	brcc	.+6      	; 0x33ac <malloc+0x66>
    33a6:	9a 01       	movw	r18, r20
    33a8:	bd 01       	movw	r22, r26
    33aa:	ef 01       	movw	r28, r30
    33ac:	df 01       	movw	r26, r30
    33ae:	f8 01       	movw	r30, r16
    33b0:	db cf       	rjmp	.-74     	; 0x3368 <malloc+0x22>
    33b2:	21 15       	cp	r18, r1
    33b4:	31 05       	cpc	r19, r1
    33b6:	f9 f0       	breq	.+62     	; 0x33f6 <malloc+0xb0>
    33b8:	28 1b       	sub	r18, r24
    33ba:	39 0b       	sbc	r19, r25
    33bc:	24 30       	cpi	r18, 0x04	; 4
    33be:	31 05       	cpc	r19, r1
    33c0:	80 f4       	brcc	.+32     	; 0x33e2 <malloc+0x9c>
    33c2:	8a 81       	ldd	r24, Y+2	; 0x02
    33c4:	9b 81       	ldd	r25, Y+3	; 0x03
    33c6:	61 15       	cp	r22, r1
    33c8:	71 05       	cpc	r23, r1
    33ca:	21 f0       	breq	.+8      	; 0x33d4 <malloc+0x8e>
    33cc:	fb 01       	movw	r30, r22
    33ce:	82 83       	std	Z+2, r24	; 0x02
    33d0:	93 83       	std	Z+3, r25	; 0x03
    33d2:	04 c0       	rjmp	.+8      	; 0x33dc <malloc+0x96>
    33d4:	80 93 12 22 	sts	0x2212, r24	; 0x802212 <__flp>
    33d8:	90 93 13 22 	sts	0x2213, r25	; 0x802213 <__flp+0x1>
    33dc:	fe 01       	movw	r30, r28
    33de:	32 96       	adiw	r30, 0x02	; 2
    33e0:	44 c0       	rjmp	.+136    	; 0x346a <malloc+0x124>
    33e2:	fe 01       	movw	r30, r28
    33e4:	e2 0f       	add	r30, r18
    33e6:	f3 1f       	adc	r31, r19
    33e8:	81 93       	st	Z+, r24
    33ea:	91 93       	st	Z+, r25
    33ec:	22 50       	subi	r18, 0x02	; 2
    33ee:	31 09       	sbc	r19, r1
    33f0:	28 83       	st	Y, r18
    33f2:	39 83       	std	Y+1, r19	; 0x01
    33f4:	3a c0       	rjmp	.+116    	; 0x346a <malloc+0x124>
    33f6:	20 91 10 22 	lds	r18, 0x2210	; 0x802210 <__brkval>
    33fa:	30 91 11 22 	lds	r19, 0x2211	; 0x802211 <__brkval+0x1>
    33fe:	23 2b       	or	r18, r19
    3400:	41 f4       	brne	.+16     	; 0x3412 <malloc+0xcc>
    3402:	20 91 02 20 	lds	r18, 0x2002	; 0x802002 <__malloc_heap_start>
    3406:	30 91 03 20 	lds	r19, 0x2003	; 0x802003 <__malloc_heap_start+0x1>
    340a:	20 93 10 22 	sts	0x2210, r18	; 0x802210 <__brkval>
    340e:	30 93 11 22 	sts	0x2211, r19	; 0x802211 <__brkval+0x1>
    3412:	20 91 00 20 	lds	r18, 0x2000	; 0x802000 <__data_start>
    3416:	30 91 01 20 	lds	r19, 0x2001	; 0x802001 <__data_start+0x1>
    341a:	21 15       	cp	r18, r1
    341c:	31 05       	cpc	r19, r1
    341e:	41 f4       	brne	.+16     	; 0x3430 <malloc+0xea>
    3420:	2d b7       	in	r18, 0x3d	; 61
    3422:	3e b7       	in	r19, 0x3e	; 62
    3424:	40 91 04 20 	lds	r20, 0x2004	; 0x802004 <__malloc_margin>
    3428:	50 91 05 20 	lds	r21, 0x2005	; 0x802005 <__malloc_margin+0x1>
    342c:	24 1b       	sub	r18, r20
    342e:	35 0b       	sbc	r19, r21
    3430:	e0 91 10 22 	lds	r30, 0x2210	; 0x802210 <__brkval>
    3434:	f0 91 11 22 	lds	r31, 0x2211	; 0x802211 <__brkval+0x1>
    3438:	e2 17       	cp	r30, r18
    343a:	f3 07       	cpc	r31, r19
    343c:	a0 f4       	brcc	.+40     	; 0x3466 <malloc+0x120>
    343e:	2e 1b       	sub	r18, r30
    3440:	3f 0b       	sbc	r19, r31
    3442:	28 17       	cp	r18, r24
    3444:	39 07       	cpc	r19, r25
    3446:	78 f0       	brcs	.+30     	; 0x3466 <malloc+0x120>
    3448:	ac 01       	movw	r20, r24
    344a:	4e 5f       	subi	r20, 0xFE	; 254
    344c:	5f 4f       	sbci	r21, 0xFF	; 255
    344e:	24 17       	cp	r18, r20
    3450:	35 07       	cpc	r19, r21
    3452:	48 f0       	brcs	.+18     	; 0x3466 <malloc+0x120>
    3454:	4e 0f       	add	r20, r30
    3456:	5f 1f       	adc	r21, r31
    3458:	40 93 10 22 	sts	0x2210, r20	; 0x802210 <__brkval>
    345c:	50 93 11 22 	sts	0x2211, r21	; 0x802211 <__brkval+0x1>
    3460:	81 93       	st	Z+, r24
    3462:	91 93       	st	Z+, r25
    3464:	02 c0       	rjmp	.+4      	; 0x346a <malloc+0x124>
    3466:	e0 e0       	ldi	r30, 0x00	; 0
    3468:	f0 e0       	ldi	r31, 0x00	; 0
    346a:	cf 01       	movw	r24, r30
    346c:	df 91       	pop	r29
    346e:	cf 91       	pop	r28
    3470:	1f 91       	pop	r17
    3472:	0f 91       	pop	r16
    3474:	08 95       	ret

00003476 <free>:
    3476:	cf 93       	push	r28
    3478:	df 93       	push	r29
    347a:	00 97       	sbiw	r24, 0x00	; 0
    347c:	09 f4       	brne	.+2      	; 0x3480 <free+0xa>
    347e:	81 c0       	rjmp	.+258    	; 0x3582 <free+0x10c>
    3480:	fc 01       	movw	r30, r24
    3482:	32 97       	sbiw	r30, 0x02	; 2
    3484:	12 82       	std	Z+2, r1	; 0x02
    3486:	13 82       	std	Z+3, r1	; 0x03
    3488:	a0 91 12 22 	lds	r26, 0x2212	; 0x802212 <__flp>
    348c:	b0 91 13 22 	lds	r27, 0x2213	; 0x802213 <__flp+0x1>
    3490:	10 97       	sbiw	r26, 0x00	; 0
    3492:	81 f4       	brne	.+32     	; 0x34b4 <free+0x3e>
    3494:	20 81       	ld	r18, Z
    3496:	31 81       	ldd	r19, Z+1	; 0x01
    3498:	82 0f       	add	r24, r18
    349a:	93 1f       	adc	r25, r19
    349c:	20 91 10 22 	lds	r18, 0x2210	; 0x802210 <__brkval>
    34a0:	30 91 11 22 	lds	r19, 0x2211	; 0x802211 <__brkval+0x1>
    34a4:	28 17       	cp	r18, r24
    34a6:	39 07       	cpc	r19, r25
    34a8:	51 f5       	brne	.+84     	; 0x34fe <free+0x88>
    34aa:	e0 93 10 22 	sts	0x2210, r30	; 0x802210 <__brkval>
    34ae:	f0 93 11 22 	sts	0x2211, r31	; 0x802211 <__brkval+0x1>
    34b2:	67 c0       	rjmp	.+206    	; 0x3582 <free+0x10c>
    34b4:	ed 01       	movw	r28, r26
    34b6:	20 e0       	ldi	r18, 0x00	; 0
    34b8:	30 e0       	ldi	r19, 0x00	; 0
    34ba:	ce 17       	cp	r28, r30
    34bc:	df 07       	cpc	r29, r31
    34be:	40 f4       	brcc	.+16     	; 0x34d0 <free+0x5a>
    34c0:	4a 81       	ldd	r20, Y+2	; 0x02
    34c2:	5b 81       	ldd	r21, Y+3	; 0x03
    34c4:	9e 01       	movw	r18, r28
    34c6:	41 15       	cp	r20, r1
    34c8:	51 05       	cpc	r21, r1
    34ca:	f1 f0       	breq	.+60     	; 0x3508 <free+0x92>
    34cc:	ea 01       	movw	r28, r20
    34ce:	f5 cf       	rjmp	.-22     	; 0x34ba <free+0x44>
    34d0:	c2 83       	std	Z+2, r28	; 0x02
    34d2:	d3 83       	std	Z+3, r29	; 0x03
    34d4:	40 81       	ld	r20, Z
    34d6:	51 81       	ldd	r21, Z+1	; 0x01
    34d8:	84 0f       	add	r24, r20
    34da:	95 1f       	adc	r25, r21
    34dc:	c8 17       	cp	r28, r24
    34de:	d9 07       	cpc	r29, r25
    34e0:	59 f4       	brne	.+22     	; 0x34f8 <free+0x82>
    34e2:	88 81       	ld	r24, Y
    34e4:	99 81       	ldd	r25, Y+1	; 0x01
    34e6:	84 0f       	add	r24, r20
    34e8:	95 1f       	adc	r25, r21
    34ea:	02 96       	adiw	r24, 0x02	; 2
    34ec:	80 83       	st	Z, r24
    34ee:	91 83       	std	Z+1, r25	; 0x01
    34f0:	8a 81       	ldd	r24, Y+2	; 0x02
    34f2:	9b 81       	ldd	r25, Y+3	; 0x03
    34f4:	82 83       	std	Z+2, r24	; 0x02
    34f6:	93 83       	std	Z+3, r25	; 0x03
    34f8:	21 15       	cp	r18, r1
    34fa:	31 05       	cpc	r19, r1
    34fc:	29 f4       	brne	.+10     	; 0x3508 <free+0x92>
    34fe:	e0 93 12 22 	sts	0x2212, r30	; 0x802212 <__flp>
    3502:	f0 93 13 22 	sts	0x2213, r31	; 0x802213 <__flp+0x1>
    3506:	3d c0       	rjmp	.+122    	; 0x3582 <free+0x10c>
    3508:	e9 01       	movw	r28, r18
    350a:	ea 83       	std	Y+2, r30	; 0x02
    350c:	fb 83       	std	Y+3, r31	; 0x03
    350e:	49 91       	ld	r20, Y+
    3510:	59 91       	ld	r21, Y+
    3512:	c4 0f       	add	r28, r20
    3514:	d5 1f       	adc	r29, r21
    3516:	ec 17       	cp	r30, r28
    3518:	fd 07       	cpc	r31, r29
    351a:	61 f4       	brne	.+24     	; 0x3534 <free+0xbe>
    351c:	80 81       	ld	r24, Z
    351e:	91 81       	ldd	r25, Z+1	; 0x01
    3520:	84 0f       	add	r24, r20
    3522:	95 1f       	adc	r25, r21
    3524:	02 96       	adiw	r24, 0x02	; 2
    3526:	e9 01       	movw	r28, r18
    3528:	88 83       	st	Y, r24
    352a:	99 83       	std	Y+1, r25	; 0x01
    352c:	82 81       	ldd	r24, Z+2	; 0x02
    352e:	93 81       	ldd	r25, Z+3	; 0x03
    3530:	8a 83       	std	Y+2, r24	; 0x02
    3532:	9b 83       	std	Y+3, r25	; 0x03
    3534:	e0 e0       	ldi	r30, 0x00	; 0
    3536:	f0 e0       	ldi	r31, 0x00	; 0
    3538:	12 96       	adiw	r26, 0x02	; 2
    353a:	8d 91       	ld	r24, X+
    353c:	9c 91       	ld	r25, X
    353e:	13 97       	sbiw	r26, 0x03	; 3
    3540:	00 97       	sbiw	r24, 0x00	; 0
    3542:	19 f0       	breq	.+6      	; 0x354a <free+0xd4>
    3544:	fd 01       	movw	r30, r26
    3546:	dc 01       	movw	r26, r24
    3548:	f7 cf       	rjmp	.-18     	; 0x3538 <free+0xc2>
    354a:	8d 91       	ld	r24, X+
    354c:	9c 91       	ld	r25, X
    354e:	11 97       	sbiw	r26, 0x01	; 1
    3550:	9d 01       	movw	r18, r26
    3552:	2e 5f       	subi	r18, 0xFE	; 254
    3554:	3f 4f       	sbci	r19, 0xFF	; 255
    3556:	82 0f       	add	r24, r18
    3558:	93 1f       	adc	r25, r19
    355a:	20 91 10 22 	lds	r18, 0x2210	; 0x802210 <__brkval>
    355e:	30 91 11 22 	lds	r19, 0x2211	; 0x802211 <__brkval+0x1>
    3562:	28 17       	cp	r18, r24
    3564:	39 07       	cpc	r19, r25
    3566:	69 f4       	brne	.+26     	; 0x3582 <free+0x10c>
    3568:	30 97       	sbiw	r30, 0x00	; 0
    356a:	29 f4       	brne	.+10     	; 0x3576 <free+0x100>
    356c:	10 92 12 22 	sts	0x2212, r1	; 0x802212 <__flp>
    3570:	10 92 13 22 	sts	0x2213, r1	; 0x802213 <__flp+0x1>
    3574:	02 c0       	rjmp	.+4      	; 0x357a <free+0x104>
    3576:	12 82       	std	Z+2, r1	; 0x02
    3578:	13 82       	std	Z+3, r1	; 0x03
    357a:	a0 93 10 22 	sts	0x2210, r26	; 0x802210 <__brkval>
    357e:	b0 93 11 22 	sts	0x2211, r27	; 0x802211 <__brkval+0x1>
    3582:	df 91       	pop	r29
    3584:	cf 91       	pop	r28
    3586:	08 95       	ret

00003588 <_exit>:
    3588:	f8 94       	cli

0000358a <__stop_program>:
    358a:	ff cf       	rjmp	.-2      	; 0x358a <__stop_program>
