
CWMaskAndRandChaotic.elf:     file format elf32-avr

Sections:
Idx Name          Size      VMA       LMA       File off  Algn
  0 .text         000020dc  00000000  00000000  00000094  2**1
                  CONTENTS, ALLOC, LOAD, READONLY, CODE
  1 .data         00000218  00802000  000020dc  00002170  2**0
                  CONTENTS, ALLOC, LOAD, DATA
  2 .bss          0000022a  00802218  00802218  00002388  2**0
                  ALLOC
  3 .comment      00000030  00000000  00000000  00002388  2**0
                  CONTENTS, READONLY
  4 .note.gnu.avr.deviceinfo 00000040  00000000  00000000  000023b8  2**2
                  CONTENTS, READONLY
  5 .debug_aranges 000002a8  00000000  00000000  000023f8  2**3
                  CONTENTS, READONLY, DEBUGGING
  6 .debug_info   00008c0d  00000000  00000000  000026a0  2**0
                  CONTENTS, READONLY, DEBUGGING
  7 .debug_abbrev 00002f6e  00000000  00000000  0000b2ad  2**0
                  CONTENTS, READONLY, DEBUGGING
  8 .debug_line   00003ccd  00000000  00000000  0000e21b  2**0
                  CONTENTS, READONLY, DEBUGGING
  9 .debug_frame  00000db4  00000000  00000000  00011ee8  2**2
                  CONTENTS, READONLY, DEBUGGING
 10 .debug_str    00026fcd  00000000  00000000  00012c9c  2**0
                  CONTENTS, READONLY, DEBUGGING
 11 .debug_loc    00003db4  00000000  00000000  00039c69  2**0
                  CONTENTS, READONLY, DEBUGGING
 12 .debug_ranges 00000260  00000000  00000000  0003da1d  2**0
                  CONTENTS, READONLY, DEBUGGING
 13 .debug_macro  00008872  00000000  00000000  0003dc7d  2**0
                  CONTENTS, READONLY, DEBUGGING

Disassembly of section .text:

00000000 <__vectors>:
       0:	c5 c0       	rjmp	.+394    	; 0x18c <__ctors_end>
       2:	00 00       	nop
       4:	e3 c0       	rjmp	.+454    	; 0x1cc <__bad_interrupt>
       6:	00 00       	nop
       8:	e1 c0       	rjmp	.+450    	; 0x1cc <__bad_interrupt>
       a:	00 00       	nop
       c:	df c0       	rjmp	.+446    	; 0x1cc <__bad_interrupt>
       e:	00 00       	nop
      10:	dd c0       	rjmp	.+442    	; 0x1cc <__bad_interrupt>
      12:	00 00       	nop
      14:	db c0       	rjmp	.+438    	; 0x1cc <__bad_interrupt>
      16:	00 00       	nop
      18:	d9 c0       	rjmp	.+434    	; 0x1cc <__bad_interrupt>
      1a:	00 00       	nop
      1c:	d7 c0       	rjmp	.+430    	; 0x1cc <__bad_interrupt>
      1e:	00 00       	nop
      20:	d5 c0       	rjmp	.+426    	; 0x1cc <__bad_interrupt>
      22:	00 00       	nop
      24:	d3 c0       	rjmp	.+422    	; 0x1cc <__bad_interrupt>
      26:	00 00       	nop
      28:	d1 c0       	rjmp	.+418    	; 0x1cc <__bad_interrupt>
      2a:	00 00       	nop
      2c:	cf c0       	rjmp	.+414    	; 0x1cc <__bad_interrupt>
      2e:	00 00       	nop
      30:	cd c0       	rjmp	.+410    	; 0x1cc <__bad_interrupt>
      32:	00 00       	nop
      34:	cb c0       	rjmp	.+406    	; 0x1cc <__bad_interrupt>
      36:	00 00       	nop
      38:	0c 94 e9 09 	jmp	0x13d2	; 0x13d2 <__vector_14>
      3c:	0c 94 16 0a 	jmp	0x142c	; 0x142c <__vector_15>
      40:	0c 94 43 0a 	jmp	0x1486	; 0x1486 <__vector_16>
      44:	0c 94 70 0a 	jmp	0x14e0	; 0x14e0 <__vector_17>
      48:	0c 94 9d 0a 	jmp	0x153a	; 0x153a <__vector_18>
      4c:	0c 94 ca 0a 	jmp	0x1594	; 0x1594 <__vector_19>
      50:	0c 94 f7 0a 	jmp	0x15ee	; 0x15ee <__vector_20>
      54:	0c 94 24 0b 	jmp	0x1648	; 0x1648 <__vector_21>
      58:	0c 94 51 0b 	jmp	0x16a2	; 0x16a2 <__vector_22>
      5c:	0c 94 7e 0b 	jmp	0x16fc	; 0x16fc <__vector_23>
      60:	b5 c0       	rjmp	.+362    	; 0x1cc <__bad_interrupt>
      62:	00 00       	nop
      64:	b3 c0       	rjmp	.+358    	; 0x1cc <__bad_interrupt>
      66:	00 00       	nop
      68:	b1 c0       	rjmp	.+354    	; 0x1cc <__bad_interrupt>
      6a:	00 00       	nop
      6c:	af c0       	rjmp	.+350    	; 0x1cc <__bad_interrupt>
      6e:	00 00       	nop
      70:	ad c0       	rjmp	.+346    	; 0x1cc <__bad_interrupt>
      72:	00 00       	nop
      74:	ab c0       	rjmp	.+342    	; 0x1cc <__bad_interrupt>
      76:	00 00       	nop
      78:	a9 c0       	rjmp	.+338    	; 0x1cc <__bad_interrupt>
      7a:	00 00       	nop
      7c:	a7 c0       	rjmp	.+334    	; 0x1cc <__bad_interrupt>
      7e:	00 00       	nop
      80:	a5 c0       	rjmp	.+330    	; 0x1cc <__bad_interrupt>
      82:	00 00       	nop
      84:	a3 c0       	rjmp	.+326    	; 0x1cc <__bad_interrupt>
      86:	00 00       	nop
      88:	a1 c0       	rjmp	.+322    	; 0x1cc <__bad_interrupt>
      8a:	00 00       	nop
      8c:	9f c0       	rjmp	.+318    	; 0x1cc <__bad_interrupt>
      8e:	00 00       	nop
      90:	9d c0       	rjmp	.+314    	; 0x1cc <__bad_interrupt>
      92:	00 00       	nop
      94:	9b c0       	rjmp	.+310    	; 0x1cc <__bad_interrupt>
      96:	00 00       	nop
      98:	99 c0       	rjmp	.+306    	; 0x1cc <__bad_interrupt>
      9a:	00 00       	nop
      9c:	97 c0       	rjmp	.+302    	; 0x1cc <__bad_interrupt>
      9e:	00 00       	nop
      a0:	95 c0       	rjmp	.+298    	; 0x1cc <__bad_interrupt>
      a2:	00 00       	nop
      a4:	93 c0       	rjmp	.+294    	; 0x1cc <__bad_interrupt>
      a6:	00 00       	nop
      a8:	91 c0       	rjmp	.+290    	; 0x1cc <__bad_interrupt>
      aa:	00 00       	nop
      ac:	8f c0       	rjmp	.+286    	; 0x1cc <__bad_interrupt>
      ae:	00 00       	nop
      b0:	8d c0       	rjmp	.+282    	; 0x1cc <__bad_interrupt>
      b2:	00 00       	nop
      b4:	8b c0       	rjmp	.+278    	; 0x1cc <__bad_interrupt>
      b6:	00 00       	nop
      b8:	89 c0       	rjmp	.+274    	; 0x1cc <__bad_interrupt>
      ba:	00 00       	nop
      bc:	0c 94 b9 0c 	jmp	0x1972	; 0x1972 <__vector_47>
      c0:	0c 94 e6 0c 	jmp	0x19cc	; 0x19cc <__vector_48>
      c4:	0c 94 13 0d 	jmp	0x1a26	; 0x1a26 <__vector_49>
      c8:	0c 94 40 0d 	jmp	0x1a80	; 0x1a80 <__vector_50>
      cc:	0c 94 6d 0d 	jmp	0x1ada	; 0x1ada <__vector_51>
      d0:	0c 94 9a 0d 	jmp	0x1b34	; 0x1b34 <__vector_52>
      d4:	7b c0       	rjmp	.+246    	; 0x1cc <__bad_interrupt>
      d6:	00 00       	nop
      d8:	79 c0       	rjmp	.+242    	; 0x1cc <__bad_interrupt>
      da:	00 00       	nop
      dc:	77 c0       	rjmp	.+238    	; 0x1cc <__bad_interrupt>
      de:	00 00       	nop
      e0:	75 c0       	rjmp	.+234    	; 0x1cc <__bad_interrupt>
      e2:	00 00       	nop
      e4:	73 c0       	rjmp	.+230    	; 0x1cc <__bad_interrupt>
      e6:	00 00       	nop
      e8:	71 c0       	rjmp	.+226    	; 0x1cc <__bad_interrupt>
      ea:	00 00       	nop
      ec:	6f c0       	rjmp	.+222    	; 0x1cc <__bad_interrupt>
      ee:	00 00       	nop
      f0:	6d c0       	rjmp	.+218    	; 0x1cc <__bad_interrupt>
      f2:	00 00       	nop
      f4:	6b c0       	rjmp	.+214    	; 0x1cc <__bad_interrupt>
      f6:	00 00       	nop
      f8:	69 c0       	rjmp	.+210    	; 0x1cc <__bad_interrupt>
      fa:	00 00       	nop
      fc:	67 c0       	rjmp	.+206    	; 0x1cc <__bad_interrupt>
      fe:	00 00       	nop
     100:	65 c0       	rjmp	.+202    	; 0x1cc <__bad_interrupt>
     102:	00 00       	nop
     104:	63 c0       	rjmp	.+198    	; 0x1cc <__bad_interrupt>
     106:	00 00       	nop
     108:	61 c0       	rjmp	.+194    	; 0x1cc <__bad_interrupt>
     10a:	00 00       	nop
     10c:	5f c0       	rjmp	.+190    	; 0x1cc <__bad_interrupt>
     10e:	00 00       	nop
     110:	5d c0       	rjmp	.+186    	; 0x1cc <__bad_interrupt>
     112:	00 00       	nop
     114:	5b c0       	rjmp	.+182    	; 0x1cc <__bad_interrupt>
     116:	00 00       	nop
     118:	59 c0       	rjmp	.+178    	; 0x1cc <__bad_interrupt>
     11a:	00 00       	nop
     11c:	57 c0       	rjmp	.+174    	; 0x1cc <__bad_interrupt>
     11e:	00 00       	nop
     120:	55 c0       	rjmp	.+170    	; 0x1cc <__bad_interrupt>
     122:	00 00       	nop
     124:	53 c0       	rjmp	.+166    	; 0x1cc <__bad_interrupt>
     126:	00 00       	nop
     128:	51 c0       	rjmp	.+162    	; 0x1cc <__bad_interrupt>
     12a:	00 00       	nop
     12c:	4f c0       	rjmp	.+158    	; 0x1cc <__bad_interrupt>
     12e:	00 00       	nop
     130:	4d c0       	rjmp	.+154    	; 0x1cc <__bad_interrupt>
     132:	00 00       	nop
     134:	0c 94 ab 0b 	jmp	0x1756	; 0x1756 <__vector_77>
     138:	0c 94 d8 0b 	jmp	0x17b0	; 0x17b0 <__vector_78>
     13c:	0c 94 05 0c 	jmp	0x180a	; 0x180a <__vector_79>
     140:	0c 94 32 0c 	jmp	0x1864	; 0x1864 <__vector_80>
     144:	0c 94 5f 0c 	jmp	0x18be	; 0x18be <__vector_81>
     148:	0c 94 8c 0c 	jmp	0x1918	; 0x1918 <__vector_82>
     14c:	3f c0       	rjmp	.+126    	; 0x1cc <__bad_interrupt>
     14e:	00 00       	nop
     150:	3d c0       	rjmp	.+122    	; 0x1cc <__bad_interrupt>
     152:	00 00       	nop
     154:	3b c0       	rjmp	.+118    	; 0x1cc <__bad_interrupt>
     156:	00 00       	nop
     158:	39 c0       	rjmp	.+114    	; 0x1cc <__bad_interrupt>
     15a:	00 00       	nop
     15c:	37 c0       	rjmp	.+110    	; 0x1cc <__bad_interrupt>
     15e:	00 00       	nop
     160:	35 c0       	rjmp	.+106    	; 0x1cc <__bad_interrupt>
     162:	00 00       	nop
     164:	33 c0       	rjmp	.+102    	; 0x1cc <__bad_interrupt>
     166:	00 00       	nop
     168:	31 c0       	rjmp	.+98     	; 0x1cc <__bad_interrupt>
     16a:	00 00       	nop
     16c:	ac 08       	sbc	r10, r12
     16e:	af 08       	sbc	r10, r15
     170:	b2 08       	sbc	r11, r2
     172:	b5 08       	sbc	r11, r5
     174:	b8 08       	sbc	r11, r8
     176:	bb 08       	sbc	r11, r11
     178:	be 08       	sbc	r11, r14
     17a:	c1 08       	sbc	r12, r1
     17c:	c4 08       	sbc	r12, r4
     17e:	c7 08       	sbc	r12, r7
     180:	ca 08       	sbc	r12, r10
     182:	cd 08       	sbc	r12, r13
     184:	d0 08       	sbc	r13, r0
     186:	d3 08       	sbc	r13, r3
     188:	d6 08       	sbc	r13, r6
     18a:	d9 08       	sbc	r13, r9

0000018c <__ctors_end>:
     18c:	11 24       	eor	r1, r1
     18e:	1f be       	out	0x3f, r1	; 63
     190:	cf ef       	ldi	r28, 0xFF	; 255
     192:	cd bf       	out	0x3d, r28	; 61
     194:	df e3       	ldi	r29, 0x3F	; 63
     196:	de bf       	out	0x3e, r29	; 62
     198:	00 e0       	ldi	r16, 0x00	; 0
     19a:	0c bf       	out	0x3c, r16	; 60

0000019c <__do_copy_data>:
     19c:	12 e2       	ldi	r17, 0x22	; 34
     19e:	a0 e0       	ldi	r26, 0x00	; 0
     1a0:	b0 e2       	ldi	r27, 0x20	; 32
     1a2:	ec ed       	ldi	r30, 0xDC	; 220
     1a4:	f0 e2       	ldi	r31, 0x20	; 32
     1a6:	00 e0       	ldi	r16, 0x00	; 0
     1a8:	0b bf       	out	0x3b, r16	; 59
     1aa:	02 c0       	rjmp	.+4      	; 0x1b0 <__do_copy_data+0x14>
     1ac:	07 90       	elpm	r0, Z+
     1ae:	0d 92       	st	X+, r0
     1b0:	a8 31       	cpi	r26, 0x18	; 24
     1b2:	b1 07       	cpc	r27, r17
     1b4:	d9 f7       	brne	.-10     	; 0x1ac <__do_copy_data+0x10>

000001b6 <__do_clear_bss>:
     1b6:	24 e2       	ldi	r18, 0x24	; 36
     1b8:	a8 e1       	ldi	r26, 0x18	; 24
     1ba:	b2 e2       	ldi	r27, 0x22	; 34
     1bc:	01 c0       	rjmp	.+2      	; 0x1c0 <.do_clear_bss_start>

000001be <.do_clear_bss_loop>:
     1be:	1d 92       	st	X+, r1

000001c0 <.do_clear_bss_start>:
     1c0:	a2 34       	cpi	r26, 0x42	; 66
     1c2:	b2 07       	cpc	r27, r18
     1c4:	e1 f7       	brne	.-8      	; 0x1be <.do_clear_bss_loop>
     1c6:	57 d3       	rcall	.+1710   	; 0x876 <main>
     1c8:	0c 94 6c 10 	jmp	0x20d8	; 0x20d8 <_exit>

000001cc <__bad_interrupt>:
     1cc:	19 cf       	rjmp	.-462    	; 0x0 <__vectors>

000001ce <usart_putchar>:
     1ce:	fc 01       	movw	r30, r24
     1d0:	91 81       	ldd	r25, Z+1	; 0x01
     1d2:	95 ff       	sbrs	r25, 5
     1d4:	fd cf       	rjmp	.-6      	; 0x1d0 <usart_putchar+0x2>
     1d6:	60 83       	st	Z, r22
     1d8:	80 e0       	ldi	r24, 0x00	; 0
     1da:	90 e0       	ldi	r25, 0x00	; 0
     1dc:	08 95       	ret

000001de <usart_getchar>:
     1de:	fc 01       	movw	r30, r24
     1e0:	91 81       	ldd	r25, Z+1	; 0x01
     1e2:	99 23       	and	r25, r25
     1e4:	ec f7       	brge	.-6      	; 0x1e0 <usart_getchar+0x2>
     1e6:	80 81       	ld	r24, Z
     1e8:	08 95       	ret

000001ea <usart_set_baudrate>:
     1ea:	4f 92       	push	r4
     1ec:	5f 92       	push	r5
     1ee:	6f 92       	push	r6
     1f0:	7f 92       	push	r7
     1f2:	8f 92       	push	r8
     1f4:	9f 92       	push	r9
     1f6:	af 92       	push	r10
     1f8:	bf 92       	push	r11
     1fa:	ef 92       	push	r14
     1fc:	ff 92       	push	r15
     1fe:	0f 93       	push	r16
     200:	1f 93       	push	r17
     202:	cf 93       	push	r28
     204:	7c 01       	movw	r14, r24
     206:	4a 01       	movw	r8, r20
     208:	5b 01       	movw	r10, r22
     20a:	28 01       	movw	r4, r16
     20c:	39 01       	movw	r6, r18
     20e:	fc 01       	movw	r30, r24
     210:	84 81       	ldd	r24, Z+4	; 0x04
     212:	82 ff       	sbrs	r24, 2
     214:	16 c0       	rjmp	.+44     	; 0x242 <usart_set_baudrate+0x58>
     216:	d9 01       	movw	r26, r18
     218:	c8 01       	movw	r24, r16
     21a:	68 94       	set
     21c:	12 f8       	bld	r1, 2
     21e:	b6 95       	lsr	r27
     220:	a7 95       	ror	r26
     222:	97 95       	ror	r25
     224:	87 95       	ror	r24
     226:	16 94       	lsr	r1
     228:	d1 f7       	brne	.-12     	; 0x21e <usart_set_baudrate+0x34>
     22a:	b9 01       	movw	r22, r18
     22c:	a8 01       	movw	r20, r16
     22e:	03 2e       	mov	r0, r19
     230:	36 e1       	ldi	r19, 0x16	; 22
     232:	76 95       	lsr	r23
     234:	67 95       	ror	r22
     236:	57 95       	ror	r21
     238:	47 95       	ror	r20
     23a:	3a 95       	dec	r19
     23c:	d1 f7       	brne	.-12     	; 0x232 <usart_set_baudrate+0x48>
     23e:	30 2d       	mov	r19, r0
     240:	15 c0       	rjmp	.+42     	; 0x26c <usart_set_baudrate+0x82>
     242:	d9 01       	movw	r26, r18
     244:	c8 01       	movw	r24, r16
     246:	68 94       	set
     248:	13 f8       	bld	r1, 3
     24a:	b6 95       	lsr	r27
     24c:	a7 95       	ror	r26
     24e:	97 95       	ror	r25
     250:	87 95       	ror	r24
     252:	16 94       	lsr	r1
     254:	d1 f7       	brne	.-12     	; 0x24a <usart_set_baudrate+0x60>
     256:	b9 01       	movw	r22, r18
     258:	a8 01       	movw	r20, r16
     25a:	03 2e       	mov	r0, r19
     25c:	37 e1       	ldi	r19, 0x17	; 23
     25e:	76 95       	lsr	r23
     260:	67 95       	ror	r22
     262:	57 95       	ror	r21
     264:	47 95       	ror	r20
     266:	3a 95       	dec	r19
     268:	d1 f7       	brne	.-12     	; 0x25e <usart_set_baudrate+0x74>
     26a:	30 2d       	mov	r19, r0
     26c:	88 15       	cp	r24, r8
     26e:	99 05       	cpc	r25, r9
     270:	aa 05       	cpc	r26, r10
     272:	bb 05       	cpc	r27, r11
     274:	08 f4       	brcc	.+2      	; 0x278 <usart_set_baudrate+0x8e>
     276:	a6 c0       	rjmp	.+332    	; 0x3c4 <usart_set_baudrate+0x1da>
     278:	84 16       	cp	r8, r20
     27a:	95 06       	cpc	r9, r21
     27c:	a6 06       	cpc	r10, r22
     27e:	b7 06       	cpc	r11, r23
     280:	08 f4       	brcc	.+2      	; 0x284 <usart_set_baudrate+0x9a>
     282:	a2 c0       	rjmp	.+324    	; 0x3c8 <usart_set_baudrate+0x1de>
     284:	f7 01       	movw	r30, r14
     286:	84 81       	ldd	r24, Z+4	; 0x04
     288:	82 fd       	sbrc	r24, 2
     28a:	04 c0       	rjmp	.+8      	; 0x294 <usart_set_baudrate+0xaa>
     28c:	88 0c       	add	r8, r8
     28e:	99 1c       	adc	r9, r9
     290:	aa 1c       	adc	r10, r10
     292:	bb 1c       	adc	r11, r11
     294:	c3 01       	movw	r24, r6
     296:	b2 01       	movw	r22, r4
     298:	a5 01       	movw	r20, r10
     29a:	94 01       	movw	r18, r8
     29c:	0e 94 33 10 	call	0x2066	; 0x2066 <__udivmodsi4>
     2a0:	2f 3f       	cpi	r18, 0xFF	; 255
     2a2:	31 05       	cpc	r19, r1
     2a4:	41 05       	cpc	r20, r1
     2a6:	51 05       	cpc	r21, r1
     2a8:	08 f4       	brcc	.+2      	; 0x2ac <usart_set_baudrate+0xc2>
     2aa:	90 c0       	rjmp	.+288    	; 0x3cc <usart_set_baudrate+0x1e2>
     2ac:	8f ef       	ldi	r24, 0xFF	; 255
     2ae:	90 e0       	ldi	r25, 0x00	; 0
     2b0:	a0 e0       	ldi	r26, 0x00	; 0
     2b2:	b0 e0       	ldi	r27, 0x00	; 0
     2b4:	c9 ef       	ldi	r28, 0xF9	; 249
     2b6:	05 c0       	rjmp	.+10     	; 0x2c2 <usart_set_baudrate+0xd8>
     2b8:	28 17       	cp	r18, r24
     2ba:	39 07       	cpc	r19, r25
     2bc:	4a 07       	cpc	r20, r26
     2be:	5b 07       	cpc	r21, r27
     2c0:	58 f0       	brcs	.+22     	; 0x2d8 <usart_set_baudrate+0xee>
     2c2:	88 0f       	add	r24, r24
     2c4:	99 1f       	adc	r25, r25
     2c6:	aa 1f       	adc	r26, r26
     2c8:	bb 1f       	adc	r27, r27
     2ca:	cd 3f       	cpi	r28, 0xFD	; 253
     2cc:	0c f4       	brge	.+2      	; 0x2d0 <usart_set_baudrate+0xe6>
     2ce:	81 60       	ori	r24, 0x01	; 1
     2d0:	cf 5f       	subi	r28, 0xFF	; 255
     2d2:	c7 30       	cpi	r28, 0x07	; 7
     2d4:	89 f7       	brne	.-30     	; 0x2b8 <usart_set_baudrate+0xce>
     2d6:	4f c0       	rjmp	.+158    	; 0x376 <usart_set_baudrate+0x18c>
     2d8:	cc 23       	and	r28, r28
     2da:	0c f0       	brlt	.+2      	; 0x2de <usart_set_baudrate+0xf4>
     2dc:	4c c0       	rjmp	.+152    	; 0x376 <usart_set_baudrate+0x18c>
     2de:	d5 01       	movw	r26, r10
     2e0:	c4 01       	movw	r24, r8
     2e2:	88 0f       	add	r24, r24
     2e4:	99 1f       	adc	r25, r25
     2e6:	aa 1f       	adc	r26, r26
     2e8:	bb 1f       	adc	r27, r27
     2ea:	88 0f       	add	r24, r24
     2ec:	99 1f       	adc	r25, r25
     2ee:	aa 1f       	adc	r26, r26
     2f0:	bb 1f       	adc	r27, r27
     2f2:	88 0f       	add	r24, r24
     2f4:	99 1f       	adc	r25, r25
     2f6:	aa 1f       	adc	r26, r26
     2f8:	bb 1f       	adc	r27, r27
     2fa:	48 1a       	sub	r4, r24
     2fc:	59 0a       	sbc	r5, r25
     2fe:	6a 0a       	sbc	r6, r26
     300:	7b 0a       	sbc	r7, r27
     302:	ce 3f       	cpi	r28, 0xFE	; 254
     304:	f4 f4       	brge	.+60     	; 0x342 <usart_set_baudrate+0x158>
     306:	8d ef       	ldi	r24, 0xFD	; 253
     308:	9f ef       	ldi	r25, 0xFF	; 255
     30a:	8c 1b       	sub	r24, r28
     30c:	91 09       	sbc	r25, r1
     30e:	c7 fd       	sbrc	r28, 7
     310:	93 95       	inc	r25
     312:	04 c0       	rjmp	.+8      	; 0x31c <usart_set_baudrate+0x132>
     314:	44 0c       	add	r4, r4
     316:	55 1c       	adc	r5, r5
     318:	66 1c       	adc	r6, r6
     31a:	77 1c       	adc	r7, r7
     31c:	8a 95       	dec	r24
     31e:	d2 f7       	brpl	.-12     	; 0x314 <usart_set_baudrate+0x12a>
     320:	d5 01       	movw	r26, r10
     322:	c4 01       	movw	r24, r8
     324:	b6 95       	lsr	r27
     326:	a7 95       	ror	r26
     328:	97 95       	ror	r25
     32a:	87 95       	ror	r24
     32c:	bc 01       	movw	r22, r24
     32e:	cd 01       	movw	r24, r26
     330:	64 0d       	add	r22, r4
     332:	75 1d       	adc	r23, r5
     334:	86 1d       	adc	r24, r6
     336:	97 1d       	adc	r25, r7
     338:	a5 01       	movw	r20, r10
     33a:	94 01       	movw	r18, r8
     33c:	0e 94 33 10 	call	0x2066	; 0x2066 <__udivmodsi4>
     340:	37 c0       	rjmp	.+110    	; 0x3b0 <usart_set_baudrate+0x1c6>
     342:	83 e0       	ldi	r24, 0x03	; 3
     344:	8c 0f       	add	r24, r28
     346:	a5 01       	movw	r20, r10
     348:	94 01       	movw	r18, r8
     34a:	04 c0       	rjmp	.+8      	; 0x354 <usart_set_baudrate+0x16a>
     34c:	22 0f       	add	r18, r18
     34e:	33 1f       	adc	r19, r19
     350:	44 1f       	adc	r20, r20
     352:	55 1f       	adc	r21, r21
     354:	8a 95       	dec	r24
     356:	d2 f7       	brpl	.-12     	; 0x34c <usart_set_baudrate+0x162>
     358:	da 01       	movw	r26, r20
     35a:	c9 01       	movw	r24, r18
     35c:	b6 95       	lsr	r27
     35e:	a7 95       	ror	r26
     360:	97 95       	ror	r25
     362:	87 95       	ror	r24
     364:	bc 01       	movw	r22, r24
     366:	cd 01       	movw	r24, r26
     368:	64 0d       	add	r22, r4
     36a:	75 1d       	adc	r23, r5
     36c:	86 1d       	adc	r24, r6
     36e:	97 1d       	adc	r25, r7
     370:	0e 94 33 10 	call	0x2066	; 0x2066 <__udivmodsi4>
     374:	1d c0       	rjmp	.+58     	; 0x3b0 <usart_set_baudrate+0x1c6>
     376:	83 e0       	ldi	r24, 0x03	; 3
     378:	8c 0f       	add	r24, r28
     37a:	a5 01       	movw	r20, r10
     37c:	94 01       	movw	r18, r8
     37e:	04 c0       	rjmp	.+8      	; 0x388 <usart_set_baudrate+0x19e>
     380:	22 0f       	add	r18, r18
     382:	33 1f       	adc	r19, r19
     384:	44 1f       	adc	r20, r20
     386:	55 1f       	adc	r21, r21
     388:	8a 95       	dec	r24
     38a:	d2 f7       	brpl	.-12     	; 0x380 <usart_set_baudrate+0x196>
     38c:	da 01       	movw	r26, r20
     38e:	c9 01       	movw	r24, r18
     390:	b6 95       	lsr	r27
     392:	a7 95       	ror	r26
     394:	97 95       	ror	r25
     396:	87 95       	ror	r24
     398:	bc 01       	movw	r22, r24
     39a:	cd 01       	movw	r24, r26
     39c:	64 0d       	add	r22, r4
     39e:	75 1d       	adc	r23, r5
     3a0:	86 1d       	adc	r24, r6
     3a2:	97 1d       	adc	r25, r7
     3a4:	0e 94 33 10 	call	0x2066	; 0x2066 <__udivmodsi4>
     3a8:	21 50       	subi	r18, 0x01	; 1
     3aa:	31 09       	sbc	r19, r1
     3ac:	41 09       	sbc	r20, r1
     3ae:	51 09       	sbc	r21, r1
     3b0:	83 2f       	mov	r24, r19
     3b2:	8f 70       	andi	r24, 0x0F	; 15
     3b4:	c2 95       	swap	r28
     3b6:	c0 7f       	andi	r28, 0xF0	; 240
     3b8:	c8 2b       	or	r28, r24
     3ba:	f7 01       	movw	r30, r14
     3bc:	c7 83       	std	Z+7, r28	; 0x07
     3be:	26 83       	std	Z+6, r18	; 0x06
     3c0:	81 e0       	ldi	r24, 0x01	; 1
     3c2:	18 c0       	rjmp	.+48     	; 0x3f4 <usart_set_baudrate+0x20a>
     3c4:	80 e0       	ldi	r24, 0x00	; 0
     3c6:	16 c0       	rjmp	.+44     	; 0x3f4 <usart_set_baudrate+0x20a>
     3c8:	80 e0       	ldi	r24, 0x00	; 0
     3ca:	14 c0       	rjmp	.+40     	; 0x3f4 <usart_set_baudrate+0x20a>
     3cc:	d5 01       	movw	r26, r10
     3ce:	c4 01       	movw	r24, r8
     3d0:	88 0f       	add	r24, r24
     3d2:	99 1f       	adc	r25, r25
     3d4:	aa 1f       	adc	r26, r26
     3d6:	bb 1f       	adc	r27, r27
     3d8:	88 0f       	add	r24, r24
     3da:	99 1f       	adc	r25, r25
     3dc:	aa 1f       	adc	r26, r26
     3de:	bb 1f       	adc	r27, r27
     3e0:	88 0f       	add	r24, r24
     3e2:	99 1f       	adc	r25, r25
     3e4:	aa 1f       	adc	r26, r26
     3e6:	bb 1f       	adc	r27, r27
     3e8:	48 1a       	sub	r4, r24
     3ea:	59 0a       	sbc	r5, r25
     3ec:	6a 0a       	sbc	r6, r26
     3ee:	7b 0a       	sbc	r7, r27
     3f0:	c9 ef       	ldi	r28, 0xF9	; 249
     3f2:	89 cf       	rjmp	.-238    	; 0x306 <usart_set_baudrate+0x11c>
     3f4:	cf 91       	pop	r28
     3f6:	1f 91       	pop	r17
     3f8:	0f 91       	pop	r16
     3fa:	ff 90       	pop	r15
     3fc:	ef 90       	pop	r14
     3fe:	bf 90       	pop	r11
     400:	af 90       	pop	r10
     402:	9f 90       	pop	r9
     404:	8f 90       	pop	r8
     406:	7f 90       	pop	r7
     408:	6f 90       	pop	r6
     40a:	5f 90       	pop	r5
     40c:	4f 90       	pop	r4
     40e:	08 95       	ret

00000410 <usart_init_rs232>:
     410:	0f 93       	push	r16
     412:	1f 93       	push	r17
     414:	cf 93       	push	r28
     416:	df 93       	push	r29
     418:	ec 01       	movw	r28, r24
     41a:	8b 01       	movw	r16, r22
     41c:	89 2b       	or	r24, r25
     41e:	09 f4       	brne	.+2      	; 0x422 <usart_init_rs232+0x12>
     420:	77 c0       	rjmp	.+238    	; 0x510 <usart_init_rs232+0x100>
     422:	c1 15       	cp	r28, r1
     424:	84 e0       	ldi	r24, 0x04	; 4
     426:	d8 07       	cpc	r29, r24
     428:	21 f4       	brne	.+8      	; 0x432 <usart_init_rs232+0x22>
     42a:	64 e0       	ldi	r22, 0x04	; 4
     42c:	80 e0       	ldi	r24, 0x00	; 0
     42e:	bb d7       	rcall	.+3958   	; 0x13a6 <sysclk_enable_module>
     430:	6f c0       	rjmp	.+222    	; 0x510 <usart_init_rs232+0x100>
     432:	c0 38       	cpi	r28, 0x80	; 128
     434:	e1 e0       	ldi	r30, 0x01	; 1
     436:	de 07       	cpc	r29, r30
     438:	21 f4       	brne	.+8      	; 0x442 <usart_init_rs232+0x32>
     43a:	62 e0       	ldi	r22, 0x02	; 2
     43c:	80 e0       	ldi	r24, 0x00	; 0
     43e:	b3 d7       	rcall	.+3942   	; 0x13a6 <sysclk_enable_module>
     440:	67 c0       	rjmp	.+206    	; 0x510 <usart_init_rs232+0x100>
     442:	c0 38       	cpi	r28, 0x80	; 128
     444:	f3 e0       	ldi	r31, 0x03	; 3
     446:	df 07       	cpc	r29, r31
     448:	21 f4       	brne	.+8      	; 0x452 <usart_init_rs232+0x42>
     44a:	61 e0       	ldi	r22, 0x01	; 1
     44c:	81 e0       	ldi	r24, 0x01	; 1
     44e:	ab d7       	rcall	.+3926   	; 0x13a6 <sysclk_enable_module>
     450:	5f c0       	rjmp	.+190    	; 0x510 <usart_init_rs232+0x100>
     452:	c1 15       	cp	r28, r1
     454:	82 e0       	ldi	r24, 0x02	; 2
     456:	d8 07       	cpc	r29, r24
     458:	21 f4       	brne	.+8      	; 0x462 <usart_init_rs232+0x52>
     45a:	62 e0       	ldi	r22, 0x02	; 2
     45c:	81 e0       	ldi	r24, 0x01	; 1
     45e:	a3 d7       	rcall	.+3910   	; 0x13a6 <sysclk_enable_module>
     460:	57 c0       	rjmp	.+174    	; 0x510 <usart_init_rs232+0x100>
     462:	c1 15       	cp	r28, r1
     464:	e8 e0       	ldi	r30, 0x08	; 8
     466:	de 07       	cpc	r29, r30
     468:	21 f4       	brne	.+8      	; 0x472 <usart_init_rs232+0x62>
     46a:	61 e0       	ldi	r22, 0x01	; 1
     46c:	83 e0       	ldi	r24, 0x03	; 3
     46e:	9b d7       	rcall	.+3894   	; 0x13a6 <sysclk_enable_module>
     470:	4f c0       	rjmp	.+158    	; 0x510 <usart_init_rs232+0x100>
     472:	c1 15       	cp	r28, r1
     474:	f9 e0       	ldi	r31, 0x09	; 9
     476:	df 07       	cpc	r29, r31
     478:	21 f4       	brne	.+8      	; 0x482 <usart_init_rs232+0x72>
     47a:	61 e0       	ldi	r22, 0x01	; 1
     47c:	84 e0       	ldi	r24, 0x04	; 4
     47e:	93 d7       	rcall	.+3878   	; 0x13a6 <sysclk_enable_module>
     480:	47 c0       	rjmp	.+142    	; 0x510 <usart_init_rs232+0x100>
     482:	c1 15       	cp	r28, r1
     484:	8a e0       	ldi	r24, 0x0A	; 10
     486:	d8 07       	cpc	r29, r24
     488:	21 f4       	brne	.+8      	; 0x492 <usart_init_rs232+0x82>
     48a:	61 e0       	ldi	r22, 0x01	; 1
     48c:	85 e0       	ldi	r24, 0x05	; 5
     48e:	8b d7       	rcall	.+3862   	; 0x13a6 <sysclk_enable_module>
     490:	3f c0       	rjmp	.+126    	; 0x510 <usart_init_rs232+0x100>
     492:	c0 34       	cpi	r28, 0x40	; 64
     494:	e8 e0       	ldi	r30, 0x08	; 8
     496:	de 07       	cpc	r29, r30
     498:	21 f4       	brne	.+8      	; 0x4a2 <usart_init_rs232+0x92>
     49a:	62 e0       	ldi	r22, 0x02	; 2
     49c:	83 e0       	ldi	r24, 0x03	; 3
     49e:	83 d7       	rcall	.+3846   	; 0x13a6 <sysclk_enable_module>
     4a0:	37 c0       	rjmp	.+110    	; 0x510 <usart_init_rs232+0x100>
     4a2:	c0 39       	cpi	r28, 0x90	; 144
     4a4:	f8 e0       	ldi	r31, 0x08	; 8
     4a6:	df 07       	cpc	r29, r31
     4a8:	21 f4       	brne	.+8      	; 0x4b2 <usart_init_rs232+0xa2>
     4aa:	64 e0       	ldi	r22, 0x04	; 4
     4ac:	83 e0       	ldi	r24, 0x03	; 3
     4ae:	7b d7       	rcall	.+3830   	; 0x13a6 <sysclk_enable_module>
     4b0:	2f c0       	rjmp	.+94     	; 0x510 <usart_init_rs232+0x100>
     4b2:	c0 3c       	cpi	r28, 0xC0	; 192
     4b4:	88 e0       	ldi	r24, 0x08	; 8
     4b6:	d8 07       	cpc	r29, r24
     4b8:	21 f4       	brne	.+8      	; 0x4c2 <usart_init_rs232+0xb2>
     4ba:	68 e0       	ldi	r22, 0x08	; 8
     4bc:	83 e0       	ldi	r24, 0x03	; 3
     4be:	73 d7       	rcall	.+3814   	; 0x13a6 <sysclk_enable_module>
     4c0:	27 c0       	rjmp	.+78     	; 0x510 <usart_init_rs232+0x100>
     4c2:	c0 3c       	cpi	r28, 0xC0	; 192
     4c4:	e9 e0       	ldi	r30, 0x09	; 9
     4c6:	de 07       	cpc	r29, r30
     4c8:	21 f4       	brne	.+8      	; 0x4d2 <usart_init_rs232+0xc2>
     4ca:	68 e0       	ldi	r22, 0x08	; 8
     4cc:	84 e0       	ldi	r24, 0x04	; 4
     4ce:	6b d7       	rcall	.+3798   	; 0x13a6 <sysclk_enable_module>
     4d0:	1f c0       	rjmp	.+62     	; 0x510 <usart_init_rs232+0x100>
     4d2:	c0 3a       	cpi	r28, 0xA0	; 160
     4d4:	f8 e0       	ldi	r31, 0x08	; 8
     4d6:	df 07       	cpc	r29, r31
     4d8:	21 f4       	brne	.+8      	; 0x4e2 <usart_init_rs232+0xd2>
     4da:	60 e1       	ldi	r22, 0x10	; 16
     4dc:	83 e0       	ldi	r24, 0x03	; 3
     4de:	63 d7       	rcall	.+3782   	; 0x13a6 <sysclk_enable_module>
     4e0:	17 c0       	rjmp	.+46     	; 0x510 <usart_init_rs232+0x100>
     4e2:	c0 3a       	cpi	r28, 0xA0	; 160
     4e4:	89 e0       	ldi	r24, 0x09	; 9
     4e6:	d8 07       	cpc	r29, r24
     4e8:	21 f4       	brne	.+8      	; 0x4f2 <usart_init_rs232+0xe2>
     4ea:	60 e1       	ldi	r22, 0x10	; 16
     4ec:	84 e0       	ldi	r24, 0x04	; 4
     4ee:	5b d7       	rcall	.+3766   	; 0x13a6 <sysclk_enable_module>
     4f0:	0f c0       	rjmp	.+30     	; 0x510 <usart_init_rs232+0x100>
     4f2:	c0 38       	cpi	r28, 0x80	; 128
     4f4:	e4 e0       	ldi	r30, 0x04	; 4
     4f6:	de 07       	cpc	r29, r30
     4f8:	21 f4       	brne	.+8      	; 0x502 <usart_init_rs232+0xf2>
     4fa:	60 e4       	ldi	r22, 0x40	; 64
     4fc:	83 e0       	ldi	r24, 0x03	; 3
     4fe:	53 d7       	rcall	.+3750   	; 0x13a6 <sysclk_enable_module>
     500:	07 c0       	rjmp	.+14     	; 0x510 <usart_init_rs232+0x100>
     502:	c0 3a       	cpi	r28, 0xA0	; 160
     504:	f4 e0       	ldi	r31, 0x04	; 4
     506:	df 07       	cpc	r29, r31
     508:	19 f4       	brne	.+6      	; 0x510 <usart_init_rs232+0x100>
     50a:	60 e4       	ldi	r22, 0x40	; 64
     50c:	85 e0       	ldi	r24, 0x05	; 5
     50e:	4b d7       	rcall	.+3734   	; 0x13a6 <sysclk_enable_module>
     510:	8d 81       	ldd	r24, Y+5	; 0x05
     512:	8f 73       	andi	r24, 0x3F	; 63
     514:	8d 83       	std	Y+5, r24	; 0x05
     516:	f8 01       	movw	r30, r16
     518:	95 81       	ldd	r25, Z+5	; 0x05
     51a:	84 81       	ldd	r24, Z+4	; 0x04
     51c:	89 2b       	or	r24, r25
     51e:	96 81       	ldd	r25, Z+6	; 0x06
     520:	91 11       	cpse	r25, r1
     522:	98 e0       	ldi	r25, 0x08	; 8
     524:	89 2b       	or	r24, r25
     526:	8d 83       	std	Y+5, r24	; 0x05
     528:	f8 01       	movw	r30, r16
     52a:	40 81       	ld	r20, Z
     52c:	51 81       	ldd	r21, Z+1	; 0x01
     52e:	62 81       	ldd	r22, Z+2	; 0x02
     530:	73 81       	ldd	r23, Z+3	; 0x03
     532:	00 e1       	ldi	r16, 0x10	; 16
     534:	15 e7       	ldi	r17, 0x75	; 117
     536:	20 e7       	ldi	r18, 0x70	; 112
     538:	30 e0       	ldi	r19, 0x00	; 0
     53a:	ce 01       	movw	r24, r28
     53c:	56 de       	rcall	.-852    	; 0x1ea <usart_set_baudrate>
     53e:	9c 81       	ldd	r25, Y+4	; 0x04
     540:	98 60       	ori	r25, 0x08	; 8
     542:	9c 83       	std	Y+4, r25	; 0x04
     544:	9c 81       	ldd	r25, Y+4	; 0x04
     546:	90 61       	ori	r25, 0x10	; 16
     548:	9c 83       	std	Y+4, r25	; 0x04
     54a:	df 91       	pop	r29
     54c:	cf 91       	pop	r28
     54e:	1f 91       	pop	r17
     550:	0f 91       	pop	r16
     552:	08 95       	ret

00000554 <hex_decode>:
     554:	ef 92       	push	r14
     556:	ff 92       	push	r15
     558:	0f 93       	push	r16
     55a:	1f 93       	push	r17
     55c:	cf 93       	push	r28
     55e:	df 93       	push	r29
     560:	06 2f       	mov	r16, r22
     562:	17 2f       	mov	r17, r23
     564:	01 15       	cp	r16, r1
     566:	11 05       	cpc	r17, r1
     568:	89 f1       	breq	.+98     	; 0x5cc <hex_decode+0x78>
     56a:	e8 2f       	mov	r30, r24
     56c:	f9 2f       	mov	r31, r25
     56e:	e4 2e       	mov	r14, r20
     570:	f5 2e       	mov	r15, r21
     572:	a0 e0       	ldi	r26, 0x00	; 0
     574:	b0 e0       	ldi	r27, 0x00	; 0
     576:	bf 01       	movw	r22, r30
     578:	20 81       	ld	r18, Z
     57a:	2a 33       	cpi	r18, 0x3A	; 58
     57c:	3c f0       	brlt	.+14     	; 0x58c <hex_decode+0x38>
     57e:	20 62       	ori	r18, 0x20	; 32
     580:	02 2e       	mov	r0, r18
     582:	00 0c       	add	r0, r0
     584:	33 0b       	sbc	r19, r19
     586:	27 55       	subi	r18, 0x57	; 87
     588:	31 09       	sbc	r19, r1
     58a:	05 c0       	rjmp	.+10     	; 0x596 <hex_decode+0x42>
     58c:	02 2e       	mov	r0, r18
     58e:	00 0c       	add	r0, r0
     590:	33 0b       	sbc	r19, r19
     592:	20 53       	subi	r18, 0x30	; 48
     594:	31 09       	sbc	r19, r1
     596:	eb 01       	movw	r28, r22
     598:	69 81       	ldd	r22, Y+1	; 0x01
     59a:	6a 33       	cpi	r22, 0x3A	; 58
     59c:	3c f0       	brlt	.+14     	; 0x5ac <hex_decode+0x58>
     59e:	60 62       	ori	r22, 0x20	; 32
     5a0:	06 2e       	mov	r0, r22
     5a2:	00 0c       	add	r0, r0
     5a4:	77 0b       	sbc	r23, r23
     5a6:	67 55       	subi	r22, 0x57	; 87
     5a8:	71 09       	sbc	r23, r1
     5aa:	05 c0       	rjmp	.+10     	; 0x5b6 <hex_decode+0x62>
     5ac:	06 2e       	mov	r0, r22
     5ae:	00 0c       	add	r0, r0
     5b0:	77 0b       	sbc	r23, r23
     5b2:	60 53       	subi	r22, 0x30	; 48
     5b4:	71 09       	sbc	r23, r1
     5b6:	22 95       	swap	r18
     5b8:	20 7f       	andi	r18, 0xF0	; 240
     5ba:	62 2b       	or	r22, r18
     5bc:	e7 01       	movw	r28, r14
     5be:	69 93       	st	Y+, r22
     5c0:	7e 01       	movw	r14, r28
     5c2:	12 96       	adiw	r26, 0x02	; 2
     5c4:	32 96       	adiw	r30, 0x02	; 2
     5c6:	a0 17       	cp	r26, r16
     5c8:	b1 07       	cpc	r27, r17
     5ca:	a8 f2       	brcs	.-86     	; 0x576 <hex_decode+0x22>
     5cc:	84 2f       	mov	r24, r20
     5ce:	95 2f       	mov	r25, r21
     5d0:	df 91       	pop	r29
     5d2:	cf 91       	pop	r28
     5d4:	1f 91       	pop	r17
     5d6:	0f 91       	pop	r16
     5d8:	ff 90       	pop	r15
     5da:	ef 90       	pop	r14
     5dc:	08 95       	ret

000005de <hex_print>:
     5de:	cf 93       	push	r28
     5e0:	df 93       	push	r29
     5e2:	61 15       	cp	r22, r1
     5e4:	71 05       	cpc	r23, r1
     5e6:	e9 f0       	breq	.+58     	; 0x622 <hex_print+0x44>
     5e8:	ea 01       	movw	r28, r20
     5ea:	dc 01       	movw	r26, r24
     5ec:	86 0f       	add	r24, r22
     5ee:	97 1f       	adc	r25, r23
     5f0:	9d 01       	movw	r18, r26
     5f2:	ed 91       	ld	r30, X+
     5f4:	e2 95       	swap	r30
     5f6:	ef 70       	andi	r30, 0x0F	; 15
     5f8:	f0 e0       	ldi	r31, 0x00	; 0
     5fa:	e0 50       	subi	r30, 0x00	; 0
     5fc:	f0 4e       	sbci	r31, 0xE0	; 224
     5fe:	e0 81       	ld	r30, Z
     600:	e8 83       	st	Y, r30
     602:	f9 01       	movw	r30, r18
     604:	20 81       	ld	r18, Z
     606:	e2 2f       	mov	r30, r18
     608:	ef 70       	andi	r30, 0x0F	; 15
     60a:	f0 e0       	ldi	r31, 0x00	; 0
     60c:	e0 50       	subi	r30, 0x00	; 0
     60e:	f0 4e       	sbci	r31, 0xE0	; 224
     610:	20 81       	ld	r18, Z
     612:	29 83       	std	Y+1, r18	; 0x01
     614:	22 96       	adiw	r28, 0x02	; 2
     616:	a8 17       	cp	r26, r24
     618:	b9 07       	cpc	r27, r25
     61a:	51 f7       	brne	.-44     	; 0x5f0 <hex_print+0x12>
     61c:	66 0f       	add	r22, r22
     61e:	77 1f       	adc	r23, r23
     620:	02 c0       	rjmp	.+4      	; 0x626 <hex_print+0x48>
     622:	60 e0       	ldi	r22, 0x00	; 0
     624:	70 e0       	ldi	r23, 0x00	; 0
     626:	fa 01       	movw	r30, r20
     628:	e6 0f       	add	r30, r22
     62a:	f7 1f       	adc	r31, r23
     62c:	10 82       	st	Z, r1
     62e:	df 91       	pop	r29
     630:	cf 91       	pop	r28
     632:	08 95       	ret

00000634 <CWPlatInit>:
	}
	return 1;
}

void CWPlatInit( void )
{
     634:	cf 93       	push	r28
     636:	df 93       	push	r29
     638:	cd b7       	in	r28, 0x3d	; 61
     63a:	de b7       	in	r29, 0x3e	; 62
     63c:	27 97       	sbiw	r28, 0x07	; 7
     63e:	cd bf       	out	0x3d, r28	; 61
     640:	de bf       	out	0x3e, r29	; 62
	//时钟初始化,使用外部时钟，7370000 hz
	sysclk_init();
     642:	7b d6       	rcall	.+3318   	; 0x133a <sysclk_init>
		enum ioport_direction dir)
{
	PORT_t *base = arch_ioport_pin_to_base(pin);

	if (dir == IOPORT_DIR_OUTPUT) {
		base->DIRSET = arch_ioport_pin_to_mask(pin);
     644:	e0 e4       	ldi	r30, 0x40	; 64
     646:	f6 e0       	ldi	r31, 0x06	; 6
     648:	88 e0       	ldi	r24, 0x08	; 8
     64a:	81 83       	std	Z+1, r24	; 0x01
	} else if (dir == IOPORT_DIR_INPUT) {
		base->DIRCLR = arch_ioport_pin_to_mask(pin);
     64c:	84 e0       	ldi	r24, 0x04	; 4
     64e:	82 83       	std	Z+2, r24	; 0x02
		enum ioport_direction dir)
{
	PORT_t *base = arch_ioport_pin_to_base(pin);

	if (dir == IOPORT_DIR_OUTPUT) {
		base->DIRSET = arch_ioport_pin_to_mask(pin);
     650:	e0 e0       	ldi	r30, 0x00	; 0
     652:	f6 e0       	ldi	r31, 0x06	; 6
     654:	81 e0       	ldi	r24, 0x01	; 1
     656:	81 83       	std	Z+1, r24	; 0x01
     658:	80 e2       	ldi	r24, 0x20	; 32
     65a:	81 83       	std	Z+1, r24	; 0x01
	PORT_t *base = arch_ioport_pin_to_base(pin);

	if (level) {
		base->OUTSET = arch_ioport_pin_to_mask(pin);
	} else {
		base->OUTCLR = arch_ioport_pin_to_mask(pin);
     65c:	86 83       	std	Z+6, r24	; 0x06
		enum ioport_direction dir)
{
	PORT_t *base = arch_ioport_pin_to_base(pin);

	if (dir == IOPORT_DIR_OUTPUT) {
		base->DIRSET = arch_ioport_pin_to_mask(pin);
     65e:	80 e4       	ldi	r24, 0x40	; 64
     660:	81 83       	std	Z+1, r24	; 0x01
		bool level)
{
	PORT_t *base = arch_ioport_pin_to_base(pin);

	if (level) {
		base->OUTSET = arch_ioport_pin_to_mask(pin);
     662:	85 83       	std	Z+5, r24	; 0x05
static inline bool usart_serial_init(usart_if usart, const
		usart_serial_options_t *options)
{
	// USART options.
	usart_rs232_options_t usart_rs232_options;
	usart_rs232_options.charlength   = options->charlength;
     664:	e0 e1       	ldi	r30, 0x10	; 16
     666:	f0 e2       	ldi	r31, 0x20	; 32
     668:	84 81       	ldd	r24, Z+4	; 0x04
     66a:	8d 83       	std	Y+5, r24	; 0x05
	usart_rs232_options.paritytype   = options->paritytype;
     66c:	85 81       	ldd	r24, Z+5	; 0x05
     66e:	8e 83       	std	Y+6, r24	; 0x06
	usart_rs232_options.stopbits     = options->stopbits;
     670:	86 81       	ldd	r24, Z+6	; 0x06
     672:	8f 83       	std	Y+7, r24	; 0x07
	usart_rs232_options.baudrate     = options->baudrate;
     674:	80 81       	ld	r24, Z
     676:	91 81       	ldd	r25, Z+1	; 0x01
     678:	a2 81       	ldd	r26, Z+2	; 0x02
     67a:	b3 81       	ldd	r27, Z+3	; 0x03
     67c:	89 83       	std	Y+1, r24	; 0x01
     67e:	9a 83       	std	Y+2, r25	; 0x02
     680:	ab 83       	std	Y+3, r26	; 0x03
     682:	bc 83       	std	Y+4, r27	; 0x04

#ifdef USARTC0
	if((uint16_t)usart == (uint16_t)&USARTC0) {
		sysclk_enable_module(SYSCLK_PORT_C,PR_USART0_bm);
     684:	60 e1       	ldi	r22, 0x10	; 16
     686:	83 e0       	ldi	r24, 0x03	; 3
     688:	8e d6       	rcall	.+3356   	; 0x13a6 <sysclk_enable_module>
#ifdef USARTF1
	if((uint16_t)usart == (uint16_t)&USARTF1) {
		sysclk_enable_module(SYSCLK_PORT_F,PR_USART1_bm);
	}
#endif
	if (usart_init_rs232(usart, &usart_rs232_options)) {
     68a:	be 01       	movw	r22, r28
     68c:	6f 5f       	subi	r22, 0xFF	; 255
     68e:	7f 4f       	sbci	r23, 0xFF	; 255
     690:	80 ea       	ldi	r24, 0xA0	; 160
     692:	98 e0       	ldi	r25, 0x08	; 8
     694:	bd de       	rcall	.-646    	; 0x410 <usart_init_rs232>
		.paritytype = USART_SERIAL_PARITY,
		.stopbits = USART_SERIAL_STOP_BIT
	};
	usart_serial_init(USART_SERIAL, &usart_options);
	//定时器初始化设置
	tc_enable(&TCC0);
     696:	80 e0       	ldi	r24, 0x00	; 0
     698:	98 e0       	ldi	r25, 0x08	; 8
     69a:	0e 94 c7 0d 	call	0x1b8e	; 0x1b8e <tc_enable>
 * \param tc Pointer to TC module.
 * \param wgm : waveform generator
 */
static inline void tc_set_wgm(volatile void *tc, enum tc_wg_mode_t wgm)
{
	((TC0_t *)tc)->CTRLB = (((TC0_t *)tc)->CTRLB & ~TC0_WGMODE_gm) | wgm;
     69e:	e0 e0       	ldi	r30, 0x00	; 0
     6a0:	f8 e0       	ldi	r31, 0x08	; 8
     6a2:	81 81       	ldd	r24, Z+1	; 0x01
     6a4:	88 7f       	andi	r24, 0xF8	; 248
     6a6:	81 83       	std	Z+1, r24	; 0x01
 * \param dir Timer direction :
 */
static inline void tc_set_direction(volatile void *tc, enum tc_dir_t dir)
{
	if (dir == TC_UP) {
		((TC0_t *)tc)->CTRLFCLR |= ~TC0_DIR_bm;
     6a8:	80 85       	ldd	r24, Z+8	; 0x08
     6aa:	8e 6f       	ori	r24, 0xFE	; 254
     6ac:	80 87       	std	Z+8, r24	; 0x08
 */
static inline void tc_write_clock_source(volatile void *tc,
		TC_CLKSEL_t TC_CLKSEL_enum)
{
	((TC0_t *)tc)->CTRLA =
			(((TC0_t *)tc)->CTRLA & ~TC0_CLKSEL_gm) |
     6ae:	80 81       	ld	r24, Z
 * \note Configuring the clock also starts the timer
 */
static inline void tc_write_clock_source(volatile void *tc,
		TC_CLKSEL_t TC_CLKSEL_enum)
{
	((TC0_t *)tc)->CTRLA =
     6b0:	80 7f       	andi	r24, 0xF0	; 240
     6b2:	83 60       	ori	r24, 0x03	; 3
     6b4:	80 83       	st	Z, r24
	tc_set_wgm(&TCC0,TC_WG_NORMAL);
	tc_set_direction(&TCC0,TC_UP);
	tc_write_clock_source(&TCC0,TC_CLKSEL_DIV4_gc);//开始计时
}
     6b6:	27 96       	adiw	r28, 0x07	; 7
     6b8:	cd bf       	out	0x3d, r28	; 61
     6ba:	de bf       	out	0x3e, r29	; 62
     6bc:	df 91       	pop	r29
     6be:	cf 91       	pop	r28
     6c0:	08 95       	ret

000006c2 <sendUint16>:
void sendUint16(uint16_t value16)//通过串口返回一个uint16类型的数据
{
     6c2:	ef 92       	push	r14
     6c4:	ff 92       	push	r15
     6c6:	0f 93       	push	r16
     6c8:	1f 93       	push	r17
     6ca:	cf 93       	push	r28
     6cc:	df 93       	push	r29
     6ce:	cd b7       	in	r28, 0x3d	; 61
     6d0:	de b7       	in	r29, 0x3e	; 62
     6d2:	25 97       	sbiw	r28, 0x05	; 5
     6d4:	cd bf       	out	0x3d, r28	; 61
     6d6:	de bf       	out	0x3e, r29	; 62
     6d8:	fc 01       	movw	r30, r24
	uint8_t valueBuff[5];
	valueBuff[0]=value16/10000;valueBuff[1]=(value16/1000)%10;valueBuff[2]=(value16/100)%10;valueBuff[3]=(value16/10)%10;valueBuff[4]=(value16)%10;
     6da:	9c 01       	movw	r18, r24
     6dc:	32 95       	swap	r19
     6de:	22 95       	swap	r18
     6e0:	2f 70       	andi	r18, 0x0F	; 15
     6e2:	23 27       	eor	r18, r19
     6e4:	3f 70       	andi	r19, 0x0F	; 15
     6e6:	23 27       	eor	r18, r19
     6e8:	a7 e4       	ldi	r26, 0x47	; 71
     6ea:	b3 e0       	ldi	r27, 0x03	; 3
     6ec:	0e 94 5d 10 	call	0x20ba	; 0x20ba <__umulhisi3>
     6f0:	96 95       	lsr	r25
     6f2:	87 95       	ror	r24
     6f4:	96 95       	lsr	r25
     6f6:	87 95       	ror	r24
     6f8:	96 95       	lsr	r25
     6fa:	87 95       	ror	r24
     6fc:	89 83       	std	Y+1, r24	; 0x01
     6fe:	9f 01       	movw	r18, r30
     700:	36 95       	lsr	r19
     702:	27 95       	ror	r18
     704:	36 95       	lsr	r19
     706:	27 95       	ror	r18
     708:	36 95       	lsr	r19
     70a:	27 95       	ror	r18
     70c:	a5 ec       	ldi	r26, 0xC5	; 197
     70e:	b0 e2       	ldi	r27, 0x20	; 32
     710:	0e 94 5d 10 	call	0x20ba	; 0x20ba <__umulhisi3>
     714:	ac 01       	movw	r20, r24
     716:	52 95       	swap	r21
     718:	42 95       	swap	r20
     71a:	4f 70       	andi	r20, 0x0F	; 15
     71c:	45 27       	eor	r20, r21
     71e:	5f 70       	andi	r21, 0x0F	; 15
     720:	45 27       	eor	r20, r21
     722:	9a 01       	movw	r18, r20
     724:	ad ec       	ldi	r26, 0xCD	; 205
     726:	bc ec       	ldi	r27, 0xCC	; 204
     728:	0e 94 5d 10 	call	0x20ba	; 0x20ba <__umulhisi3>
     72c:	96 95       	lsr	r25
     72e:	87 95       	ror	r24
     730:	96 95       	lsr	r25
     732:	87 95       	ror	r24
     734:	96 95       	lsr	r25
     736:	87 95       	ror	r24
     738:	9c 01       	movw	r18, r24
     73a:	22 0f       	add	r18, r18
     73c:	33 1f       	adc	r19, r19
     73e:	88 0f       	add	r24, r24
     740:	99 1f       	adc	r25, r25
     742:	88 0f       	add	r24, r24
     744:	99 1f       	adc	r25, r25
     746:	88 0f       	add	r24, r24
     748:	99 1f       	adc	r25, r25
     74a:	82 0f       	add	r24, r18
     74c:	93 1f       	adc	r25, r19
     74e:	48 1b       	sub	r20, r24
     750:	59 0b       	sbc	r21, r25
     752:	4a 83       	std	Y+2, r20	; 0x02
     754:	9f 01       	movw	r18, r30
     756:	36 95       	lsr	r19
     758:	27 95       	ror	r18
     75a:	36 95       	lsr	r19
     75c:	27 95       	ror	r18
     75e:	ab e7       	ldi	r26, 0x7B	; 123
     760:	b4 e1       	ldi	r27, 0x14	; 20
     762:	0e 94 5d 10 	call	0x20ba	; 0x20ba <__umulhisi3>
     766:	ac 01       	movw	r20, r24
     768:	56 95       	lsr	r21
     76a:	47 95       	ror	r20
     76c:	9a 01       	movw	r18, r20
     76e:	ad ec       	ldi	r26, 0xCD	; 205
     770:	bc ec       	ldi	r27, 0xCC	; 204
     772:	0e 94 5d 10 	call	0x20ba	; 0x20ba <__umulhisi3>
     776:	96 95       	lsr	r25
     778:	87 95       	ror	r24
     77a:	96 95       	lsr	r25
     77c:	87 95       	ror	r24
     77e:	96 95       	lsr	r25
     780:	87 95       	ror	r24
     782:	9c 01       	movw	r18, r24
     784:	22 0f       	add	r18, r18
     786:	33 1f       	adc	r19, r19
     788:	88 0f       	add	r24, r24
     78a:	99 1f       	adc	r25, r25
     78c:	88 0f       	add	r24, r24
     78e:	99 1f       	adc	r25, r25
     790:	88 0f       	add	r24, r24
     792:	99 1f       	adc	r25, r25
     794:	82 0f       	add	r24, r18
     796:	93 1f       	adc	r25, r19
     798:	48 1b       	sub	r20, r24
     79a:	59 0b       	sbc	r21, r25
     79c:	4b 83       	std	Y+3, r20	; 0x03
     79e:	9f 01       	movw	r18, r30
     7a0:	0e 94 5d 10 	call	0x20ba	; 0x20ba <__umulhisi3>
     7a4:	ac 01       	movw	r20, r24
     7a6:	56 95       	lsr	r21
     7a8:	47 95       	ror	r20
     7aa:	56 95       	lsr	r21
     7ac:	47 95       	ror	r20
     7ae:	56 95       	lsr	r21
     7b0:	47 95       	ror	r20
     7b2:	9a 01       	movw	r18, r20
     7b4:	0e 94 5d 10 	call	0x20ba	; 0x20ba <__umulhisi3>
     7b8:	96 95       	lsr	r25
     7ba:	87 95       	ror	r24
     7bc:	96 95       	lsr	r25
     7be:	87 95       	ror	r24
     7c0:	96 95       	lsr	r25
     7c2:	87 95       	ror	r24
     7c4:	9c 01       	movw	r18, r24
     7c6:	22 0f       	add	r18, r18
     7c8:	33 1f       	adc	r19, r19
     7ca:	88 0f       	add	r24, r24
     7cc:	99 1f       	adc	r25, r25
     7ce:	88 0f       	add	r24, r24
     7d0:	99 1f       	adc	r25, r25
     7d2:	88 0f       	add	r24, r24
     7d4:	99 1f       	adc	r25, r25
     7d6:	82 0f       	add	r24, r18
     7d8:	93 1f       	adc	r25, r19
     7da:	9a 01       	movw	r18, r20
     7dc:	28 1b       	sub	r18, r24
     7de:	39 0b       	sbc	r19, r25
     7e0:	2c 83       	std	Y+4, r18	; 0x04
     7e2:	ca 01       	movw	r24, r20
     7e4:	88 0f       	add	r24, r24
     7e6:	99 1f       	adc	r25, r25
     7e8:	44 0f       	add	r20, r20
     7ea:	55 1f       	adc	r21, r21
     7ec:	44 0f       	add	r20, r20
     7ee:	55 1f       	adc	r21, r21
     7f0:	44 0f       	add	r20, r20
     7f2:	55 1f       	adc	r21, r21
     7f4:	48 0f       	add	r20, r24
     7f6:	59 1f       	adc	r21, r25
     7f8:	e4 1b       	sub	r30, r20
     7fa:	f5 0b       	sbc	r31, r21
     7fc:	ed 83       	std	Y+5, r30	; 0x05
     7fe:	8e 01       	movw	r16, r28
     800:	0f 5f       	subi	r16, 0xFF	; 255
     802:	1f 4f       	sbci	r17, 0xFF	; 255
     804:	7e 01       	movw	r14, r28
     806:	36 e0       	ldi	r19, 0x06	; 6
     808:	e3 0e       	add	r14, r19
     80a:	f1 1c       	adc	r15, r1
	for (uint8_t i=0;i<5;i++)
	{
		usart_serial_putchar(USART_SERIAL,48+valueBuff[i]);//
     80c:	f8 01       	movw	r30, r16
     80e:	61 91       	ld	r22, Z+
     810:	8f 01       	movw	r16, r30
 *
 * \return Status code
 */
static inline enum status_code usart_serial_putchar(usart_if usart, uint8_t c)
{
	return usart_putchar(usart, c);
     812:	60 5d       	subi	r22, 0xD0	; 208
     814:	80 ea       	ldi	r24, 0xA0	; 160
     816:	98 e0       	ldi	r25, 0x08	; 8
     818:	da dc       	rcall	.-1612   	; 0x1ce <usart_putchar>
}
void sendUint16(uint16_t value16)//通过串口返回一个uint16类型的数据
{
	uint8_t valueBuff[5];
	valueBuff[0]=value16/10000;valueBuff[1]=(value16/1000)%10;valueBuff[2]=(value16/100)%10;valueBuff[3]=(value16/10)%10;valueBuff[4]=(value16)%10;
	for (uint8_t i=0;i<5;i++)
     81a:	0e 15       	cp	r16, r14
     81c:	1f 05       	cpc	r17, r15
     81e:	b1 f7       	brne	.-20     	; 0x80c <sendUint16+0x14a>
     820:	6a e0       	ldi	r22, 0x0A	; 10
     822:	80 ea       	ldi	r24, 0xA0	; 160
     824:	98 e0       	ldi	r25, 0x08	; 8
     826:	d3 dc       	rcall	.-1626   	; 0x1ce <usart_putchar>
	{
		usart_serial_putchar(USART_SERIAL,48+valueBuff[i]);//
	}
	usart_serial_putchar(USART_SERIAL,'\n');
}
     828:	25 96       	adiw	r28, 0x05	; 5
     82a:	cd bf       	out	0x3d, r28	; 61
     82c:	de bf       	out	0x3e, r29	; 62
     82e:	df 91       	pop	r29
     830:	cf 91       	pop	r28
     832:	1f 91       	pop	r17
     834:	0f 91       	pop	r16
     836:	ff 90       	pop	r15
     838:	ef 90       	pop	r14
     83a:	08 95       	ret

0000083c <sendUint8>:
void sendUint8(uint8_t value8)//通过串口返回一个8bit寄存器的状态
{
     83c:	1f 93       	push	r17
     83e:	cf 93       	push	r28
     840:	df 93       	push	r29
     842:	18 2f       	mov	r17, r24
     844:	c8 e0       	ldi	r28, 0x08	; 8
	uint8_t bitMask=128;
     846:	d0 e8       	ldi	r29, 0x80	; 128
	for (uint8_t i=0;i<8;i++)
	{
		(value8 & bitMask)?usart_serial_putchar(USART_SERIAL,49):usart_serial_putchar(USART_SERIAL,48);
     848:	81 2f       	mov	r24, r17
     84a:	8d 23       	and	r24, r29
     84c:	29 f0       	breq	.+10     	; 0x858 <sendUint8+0x1c>
     84e:	61 e3       	ldi	r22, 0x31	; 49
     850:	80 ea       	ldi	r24, 0xA0	; 160
     852:	98 e0       	ldi	r25, 0x08	; 8
     854:	bc dc       	rcall	.-1672   	; 0x1ce <usart_putchar>
     856:	04 c0       	rjmp	.+8      	; 0x860 <sendUint8+0x24>
     858:	60 e3       	ldi	r22, 0x30	; 48
     85a:	80 ea       	ldi	r24, 0xA0	; 160
     85c:	98 e0       	ldi	r25, 0x08	; 8
     85e:	b7 dc       	rcall	.-1682   	; 0x1ce <usart_putchar>
		bitMask=bitMask>>1;
     860:	d6 95       	lsr	r29
     862:	c1 50       	subi	r28, 0x01	; 1
	usart_serial_putchar(USART_SERIAL,'\n');
}
void sendUint8(uint8_t value8)//通过串口返回一个8bit寄存器的状态
{
	uint8_t bitMask=128;
	for (uint8_t i=0;i<8;i++)
     864:	89 f7       	brne	.-30     	; 0x848 <sendUint8+0xc>
     866:	6a e0       	ldi	r22, 0x0A	; 10
     868:	80 ea       	ldi	r24, 0xA0	; 160
     86a:	98 e0       	ldi	r25, 0x08	; 8
     86c:	b0 dc       	rcall	.-1696   	; 0x1ce <usart_putchar>
	{
		(value8 & bitMask)?usart_serial_putchar(USART_SERIAL,49):usart_serial_putchar(USART_SERIAL,48);
		bitMask=bitMask>>1;
	}
	usart_serial_putchar(USART_SERIAL,'\n');
}
     86e:	df 91       	pop	r29
     870:	cf 91       	pop	r28
     872:	1f 91       	pop	r17
     874:	08 95       	ret

00000876 <main>:

int main (void)
{
	uint16_t timeCost=0;
	//初始化平台
	CWPlatInit();
     876:	de de       	rcall	.-580    	; 0x634 <CWPlatInit>
	
	//加密程序
	uint8_t received_byte; 
	uint8_t ptr=0;
	enum statesel{IDLE,KEY,PLAIN}state;
	state=IDLE;
     878:	c0 e0       	ldi	r28, 0x00	; 0
	//初始化平台
	CWPlatInit();
	
	//加密程序
	uint8_t received_byte; 
	uint8_t ptr=0;
     87a:	91 2c       	mov	r9, r1
 * \param tc Pointer to TC module.
 * \param cnt_value Counter value :
 */
static inline void tc_write_count(volatile void *tc, uint16_t cnt_value)
{
	((TC0_t *)tc)->CNT = cnt_value;
     87c:	e1 2c       	mov	r14, r1
     87e:	68 94       	set
     880:	ff 24       	eor	r15, r15
     882:	f3 f8       	bld	r15, 3
     884:	08 e6       	ldi	r16, 0x68	; 104
     886:	12 e2       	ldi	r17, 0x22	; 34
					usart_serial_putchar(USART_SERIAL,asciibuf[i]);
				}
				usart_serial_putchar(USART_SERIAL,'\n');
				
				sendUint16(timeCost);//返回时间消耗
				sendUint8(CLK.CTRL);
     888:	68 94       	set
     88a:	cc 24       	eor	r12, r12
     88c:	c6 f8       	bld	r12, 6
     88e:	d1 2c       	mov	r13, r1
     890:	0a c0       	rjmp	.+20     	; 0x8a6 <main+0x30>
	{
		usart_serial_getchar(USART_SERIAL, &received_byte);
		if (received_byte=='x')
		{
			ptr=0;
			state=IDLE;
     892:	c0 e0       	ldi	r28, 0x00	; 0
	while(1)
	{
		usart_serial_getchar(USART_SERIAL, &received_byte);
		if (received_byte=='x')
		{
			ptr=0;
     894:	91 2c       	mov	r9, r1
     896:	07 c0       	rjmp	.+14     	; 0x8a6 <main+0x30>
			continue;
		}
		else if (received_byte=='k')
		{
			ptr=0;
			state=KEY;
     898:	c1 e0       	ldi	r28, 0x01	; 1
			state=IDLE;
			continue;
		}
		else if (received_byte=='k')
		{
			ptr=0;
     89a:	91 2c       	mov	r9, r1
     89c:	04 c0       	rjmp	.+8      	; 0x8a6 <main+0x30>
			continue;
		}
		else if (received_byte=='p')
		{
			ptr=0;
			state=PLAIN;
     89e:	c2 e0       	ldi	r28, 0x02	; 2
			state=KEY;
			continue;
		}
		else if (received_byte=='p')
		{
			ptr=0;
     8a0:	91 2c       	mov	r9, r1
     8a2:	01 c0       	rjmp	.+2      	; 0x8a6 <main+0x30>
			}
			else
			{
				if (ptr>=BUFLEN)
				{
					state=IDLE;
     8a4:	c0 e0       	ldi	r28, 0x00	; 0
 * \param data   Data to read
 *
 */
static inline void usart_serial_getchar(usart_if usart, uint8_t *data)
{
	*data = usart_getchar(usart);
     8a6:	80 ea       	ldi	r24, 0xA0	; 160
     8a8:	98 e0       	ldi	r25, 0x08	; 8
     8aa:	99 dc       	rcall	.-1742   	; 0x1de <usart_getchar>
	state=IDLE;
	
	while(1)
	{
		usart_serial_getchar(USART_SERIAL, &received_byte);
		if (received_byte=='x')
     8ac:	88 37       	cpi	r24, 0x78	; 120
     8ae:	89 f3       	breq	.-30     	; 0x892 <main+0x1c>
		{
			ptr=0;
			state=IDLE;
			continue;
		}
		else if (received_byte=='k')
     8b0:	8b 36       	cpi	r24, 0x6B	; 107
     8b2:	91 f3       	breq	.-28     	; 0x898 <main+0x22>
		{
			ptr=0;
			state=KEY;
			continue;
		}
		else if (received_byte=='p')
     8b4:	80 37       	cpi	r24, 0x70	; 112
     8b6:	99 f3       	breq	.-26     	; 0x89e <main+0x28>
		{
			ptr=0;
			state=PLAIN;
			continue;
		}
		else if (state==KEY)
     8b8:	c1 30       	cpi	r28, 0x01	; 1
     8ba:	c1 f4       	brne	.+48     	; 0x8ec <main+0x76>
		{
			if ((received_byte=='\n')||(received_byte=='\r'))
     8bc:	8a 30       	cpi	r24, 0x0A	; 10
     8be:	11 f0       	breq	.+4      	; 0x8c4 <main+0x4e>
     8c0:	8d 30       	cpi	r24, 0x0D	; 13
     8c2:	69 f4       	brne	.+26     	; 0x8de <main+0x68>
			{
				asciibuf[ptr]=0;
     8c4:	69 2d       	mov	r22, r9
     8c6:	70 e0       	ldi	r23, 0x00	; 0
     8c8:	fb 01       	movw	r30, r22
     8ca:	e8 5b       	subi	r30, 0xB8	; 184
     8cc:	fd 4d       	sbci	r31, 0xDD	; 221
     8ce:	10 82       	st	Z, r1
				hex_decode(asciibuf,ptr,key);
     8d0:	48 ed       	ldi	r20, 0xD8	; 216
     8d2:	52 e2       	ldi	r21, 0x22	; 34
     8d4:	88 e4       	ldi	r24, 0x48	; 72
     8d6:	92 e2       	ldi	r25, 0x22	; 34
     8d8:	3d de       	rcall	.-902    	; 0x554 <hex_decode>
				state=IDLE;
     8da:	c0 e0       	ldi	r28, 0x00	; 0
     8dc:	e4 cf       	rjmp	.-56     	; 0x8a6 <main+0x30>
			}
			else
			{
				asciibuf[ptr++]=received_byte;
     8de:	e9 2d       	mov	r30, r9
     8e0:	f0 e0       	ldi	r31, 0x00	; 0
     8e2:	e8 5b       	subi	r30, 0xB8	; 184
     8e4:	fd 4d       	sbci	r31, 0xDD	; 221
     8e6:	80 83       	st	Z, r24
     8e8:	93 94       	inc	r9
     8ea:	dd cf       	rjmp	.-70     	; 0x8a6 <main+0x30>
			}
		}
		else if (state==PLAIN)
     8ec:	c2 30       	cpi	r28, 0x02	; 2
     8ee:	d9 f6       	brne	.-74     	; 0x8a6 <main+0x30>
		{
			if ((received_byte=='\n')||(received_byte=='\r'))
     8f0:	8a 30       	cpi	r24, 0x0A	; 10
     8f2:	11 f0       	breq	.+4      	; 0x8f8 <main+0x82>
     8f4:	8d 30       	cpi	r24, 0x0D	; 13
     8f6:	a9 f5       	brne	.+106    	; 0x962 <main+0xec>
			{
				asciibuf[ptr]=0;
     8f8:	69 2d       	mov	r22, r9
     8fa:	70 e0       	ldi	r23, 0x00	; 0
     8fc:	fb 01       	movw	r30, r22
     8fe:	e8 5b       	subi	r30, 0xB8	; 184
     900:	fd 4d       	sbci	r31, 0xDD	; 221
     902:	10 82       	st	Z, r1
				hex_decode(asciibuf,ptr,pt);
     904:	48 e8       	ldi	r20, 0x88	; 136
     906:	52 e2       	ldi	r21, 0x22	; 34
     908:	88 e4       	ldi	r24, 0x48	; 72
     90a:	92 e2       	ldi	r25, 0x22	; 34
     90c:	23 de       	rcall	.-954    	; 0x554 <hex_decode>
     90e:	f7 01       	movw	r30, r14
     910:	10 a2       	std	Z+32, r1	; 0x20
     912:	11 a2       	std	Z+33, r1	; 0x21
				//**************进行加密**************//
				tc_write_count(&TCC0,0);//清零计数器
				
				encryptionInit();//加密准备工作
     914:	0d d1       	rcall	.+538    	; 0xb30 <encryptionInit>
				//ioport_set_pin_high(TRIGGER);//置高 PA0，触发能耗统计，
				
				encryption(pt,pt);
     916:	68 e8       	ldi	r22, 0x88	; 136
     918:	72 e2       	ldi	r23, 0x22	; 34
     91a:	cb 01       	movw	r24, r22
     91c:	a3 d4       	rcall	.+2374   	; 0x1264 <encryption>
     91e:	f7 01       	movw	r30, r14
 * \param tc Pointer to TC module.
 * \note Output the Counter value CNT
 */
static inline uint16_t tc_read_count(volatile void *tc)
{
	return (((TC0_t *)tc)->CNT);
     920:	a0 a0       	ldd	r10, Z+32	; 0x20
     922:	b1 a0       	ldd	r11, Z+33	; 0x21
     924:	48 e4       	ldi	r20, 0x48	; 72
				
				timeCost=tc_read_count(&TCC0);//定时结束
				//ioport_set_pin_low(TRIGGER);//置零 PA0，结束能耗统计
				
				//***********将密文转化为字符*********//
				hex_print(pt,16,asciibuf);
     926:	52 e2       	ldi	r21, 0x22	; 34
     928:	60 e1       	ldi	r22, 0x10	; 16
     92a:	70 e0       	ldi	r23, 0x00	; 0
     92c:	88 e8       	ldi	r24, 0x88	; 136
     92e:	92 e2       	ldi	r25, 0x22	; 34
     930:	56 de       	rcall	.-852    	; 0x5de <hex_print>
 *
 * \return Status code
 */
static inline enum status_code usart_serial_putchar(usart_if usart, uint8_t c)
{
	return usart_putchar(usart, c);
     932:	62 e7       	ldi	r22, 0x72	; 114
     934:	80 ea       	ldi	r24, 0xA0	; 160
     936:	98 e0       	ldi	r25, 0x08	; 8
     938:	4a dc       	rcall	.-1900   	; 0x1ce <usart_putchar>
     93a:	c8 e4       	ldi	r28, 0x48	; 72
     93c:	d2 e2       	ldi	r29, 0x22	; 34
				//*************串口发送密文***********//
				usart_serial_putchar(USART_SERIAL,'r');
				for(uint8_t i=0;i<32;i++)
				{
					usart_serial_putchar(USART_SERIAL,asciibuf[i]);
     93e:	69 91       	ld	r22, Y+
     940:	80 ea       	ldi	r24, 0xA0	; 160
     942:	98 e0       	ldi	r25, 0x08	; 8
     944:	44 dc       	rcall	.-1912   	; 0x1ce <usart_putchar>
				
				//***********将密文转化为字符*********//
				hex_print(pt,16,asciibuf);
				//*************串口发送密文***********//
				usart_serial_putchar(USART_SERIAL,'r');
				for(uint8_t i=0;i<32;i++)
     946:	c0 17       	cp	r28, r16
     948:	d1 07       	cpc	r29, r17
     94a:	c9 f7       	brne	.-14     	; 0x93e <main+0xc8>
     94c:	6a e0       	ldi	r22, 0x0A	; 10
     94e:	80 ea       	ldi	r24, 0xA0	; 160
     950:	98 e0       	ldi	r25, 0x08	; 8
     952:	3d dc       	rcall	.-1926   	; 0x1ce <usart_putchar>
				{
					usart_serial_putchar(USART_SERIAL,asciibuf[i]);
				}
				usart_serial_putchar(USART_SERIAL,'\n');
				
				sendUint16(timeCost);//返回时间消耗
     954:	c5 01       	movw	r24, r10
     956:	b5 de       	rcall	.-662    	; 0x6c2 <sendUint16>
     958:	f6 01       	movw	r30, r12
				sendUint8(CLK.CTRL);
     95a:	80 81       	ld	r24, Z
     95c:	6f df       	rcall	.-290    	; 0x83c <sendUint8>
     95e:	c0 e0       	ldi	r28, 0x00	; 0
     960:	a2 cf       	rjmp	.-188    	; 0x8a6 <main+0x30>
				state=IDLE;
     962:	ff e3       	ldi	r31, 0x3F	; 63
     964:	f9 15       	cp	r31, r9
			}
			else
			{
				if (ptr>=BUFLEN)
     966:	08 f4       	brcc	.+2      	; 0x96a <main+0xf4>
     968:	9d cf       	rjmp	.-198    	; 0x8a4 <main+0x2e>
     96a:	e9 2d       	mov	r30, r9
     96c:	f0 e0       	ldi	r31, 0x00	; 0
				{
					state=IDLE;
				}
				else
				{
					asciibuf[ptr++]=received_byte;
     96e:	e8 5b       	subi	r30, 0xB8	; 184
     970:	fd 4d       	sbci	r31, 0xDD	; 221
     972:	80 83       	st	Z, r24
     974:	93 94       	inc	r9
     976:	97 cf       	rjmp	.-210    	; 0x8a6 <main+0x30>

00000978 <roundKeyGen>:
     978:	5f 92       	push	r5
     97a:	6f 92       	push	r6
		ciphertext[i] = intermediate[i];
}

//**************************Round Key Gen*****************************//
void roundKeyGen(float x0, uint8_t randnum[])//num指丢弃前多少个值
{
     97c:	7f 92       	push	r7
     97e:	8f 92       	push	r8
     980:	9f 92       	push	r9
     982:	af 92       	push	r10
     984:	bf 92       	push	r11
     986:	cf 92       	push	r12
     988:	df 92       	push	r13
     98a:	ef 92       	push	r14
     98c:	ff 92       	push	r15
     98e:	0f 93       	push	r16
     990:	1f 93       	push	r17
     992:	cf 93       	push	r28
     994:	df 93       	push	r29
     996:	6b 01       	movw	r12, r22
     998:	7c 01       	movw	r14, r24
     99a:	3a 01       	movw	r6, r20
     99c:	c8 ed       	ldi	r28, 0xD8	; 216
     99e:	d2 e2       	ldi	r29, 0x22	; 34
     9a0:	08 ee       	ldi	r16, 0xE8	; 232
     9a2:	12 e2       	ldi	r17, 0x22	; 34
	float xn = x0; float a;
	for (uint8_t i = 0; i < 16; i++)
	{
		a = (float)0.51 + (float)key[i] / 1000;
     9a4:	69 91       	ld	r22, Y+
     9a6:	70 e0       	ldi	r23, 0x00	; 0
     9a8:	80 e0       	ldi	r24, 0x00	; 0
     9aa:	90 e0       	ldi	r25, 0x00	; 0
     9ac:	0e 94 1a 0f 	call	0x1e34	; 0x1e34 <__floatunsisf>
     9b0:	20 e0       	ldi	r18, 0x00	; 0
     9b2:	30 e0       	ldi	r19, 0x00	; 0
     9b4:	4a e7       	ldi	r20, 0x7A	; 122
     9b6:	54 e4       	ldi	r21, 0x44	; 68
     9b8:	0e 94 86 0e 	call	0x1d0c	; 0x1d0c <__divsf3>
     9bc:	2c e5       	ldi	r18, 0x5C	; 92
     9be:	3f e8       	ldi	r19, 0x8F	; 143
     9c0:	42 e0       	ldi	r20, 0x02	; 2
     9c2:	5f e3       	ldi	r21, 0x3F	; 63
     9c4:	0e 94 1e 0e 	call	0x1c3c	; 0x1c3c <__addsf3>
     9c8:	4b 01       	movw	r8, r22
     9ca:	5c 01       	movw	r10, r24
     9cc:	0f 2e       	mov	r0, r31
     9ce:	f4 e1       	ldi	r31, 0x14	; 20
     9d0:	5f 2e       	mov	r5, r31
     9d2:	f0 2d       	mov	r31, r0
}

//**************************帐篷映射模块********************************//
float tentn(float xn, float a)
{
	if (xn < a)
     9d4:	a7 01       	movw	r20, r14
     9d6:	96 01       	movw	r18, r12
     9d8:	c5 01       	movw	r24, r10
     9da:	b4 01       	movw	r22, r8
     9dc:	0e 94 cc 0f 	call	0x1f98	; 0x1f98 <__gesf2>
     9e0:	18 16       	cp	r1, r24
     9e2:	4c f4       	brge	.+18     	; 0x9f6 <roundKeyGen+0x7e>
	xn = xn / a;
     9e4:	a5 01       	movw	r20, r10
     9e6:	94 01       	movw	r18, r8
     9e8:	c7 01       	movw	r24, r14
     9ea:	b6 01       	movw	r22, r12
     9ec:	0e 94 86 0e 	call	0x1d0c	; 0x1d0c <__divsf3>
     9f0:	6b 01       	movw	r12, r22
     9f2:	7c 01       	movw	r14, r24
     9f4:	1a c0       	rjmp	.+52     	; 0xa2a <roundKeyGen+0xb2>
	else
	xn = (1 - xn) / (1 - a);
     9f6:	a7 01       	movw	r20, r14
     9f8:	96 01       	movw	r18, r12
     9fa:	60 e0       	ldi	r22, 0x00	; 0
     9fc:	70 e0       	ldi	r23, 0x00	; 0
     9fe:	80 e8       	ldi	r24, 0x80	; 128
     a00:	9f e3       	ldi	r25, 0x3F	; 63
     a02:	0e 94 1d 0e 	call	0x1c3a	; 0x1c3a <__subsf3>
     a06:	6b 01       	movw	r12, r22
     a08:	7c 01       	movw	r14, r24
     a0a:	a5 01       	movw	r20, r10
     a0c:	94 01       	movw	r18, r8
     a0e:	60 e0       	ldi	r22, 0x00	; 0
     a10:	70 e0       	ldi	r23, 0x00	; 0
     a12:	80 e8       	ldi	r24, 0x80	; 128
     a14:	9f e3       	ldi	r25, 0x3F	; 63
     a16:	0e 94 1d 0e 	call	0x1c3a	; 0x1c3a <__subsf3>
     a1a:	9b 01       	movw	r18, r22
     a1c:	ac 01       	movw	r20, r24
     a1e:	c7 01       	movw	r24, r14
     a20:	b6 01       	movw	r22, r12
     a22:	0e 94 86 0e 	call	0x1d0c	; 0x1d0c <__divsf3>
     a26:	6b 01       	movw	r12, r22
     a28:	7c 01       	movw	r14, r24
     a2a:	5a 94       	dec	r5
{
	float xn = x0; float a;
	for (uint8_t i = 0; i < 16; i++)
	{
		a = (float)0.51 + (float)key[i] / 1000;
		for (uint8_t j = 0; j < 20; j++)
     a2c:	51 10       	cpse	r5, r1
     a2e:	d2 cf       	rjmp	.-92     	; 0x9d4 <roundKeyGen+0x5c>

//**************************Round Key Gen*****************************//
void roundKeyGen(float x0, uint8_t randnum[])//num指丢弃前多少个值
{
	float xn = x0; float a;
	for (uint8_t i = 0; i < 16; i++)
     a30:	c0 17       	cp	r28, r16
     a32:	d1 07       	cpc	r29, r17
     a34:	09 f0       	breq	.+2      	; 0xa38 <roundKeyGen+0xc0>
     a36:	b6 cf       	rjmp	.-148    	; 0x9a4 <roundKeyGen+0x2c>
     a38:	e3 01       	movw	r28, r6
     a3a:	83 01       	movw	r16, r6
     a3c:	00 5d       	subi	r16, 0xD0	; 208
     a3e:	1f 4f       	sbci	r17, 0xFF	; 255
}

//**************************帐篷映射模块********************************//
float tentn(float xn, float a)
{
	if (xn < a)
     a40:	a7 01       	movw	r20, r14
     a42:	96 01       	movw	r18, r12
     a44:	c5 01       	movw	r24, r10
     a46:	b4 01       	movw	r22, r8
     a48:	0e 94 cc 0f 	call	0x1f98	; 0x1f98 <__gesf2>
     a4c:	18 16       	cp	r1, r24
     a4e:	4c f4       	brge	.+18     	; 0xa62 <roundKeyGen+0xea>
	xn = xn / a;
     a50:	a5 01       	movw	r20, r10
     a52:	94 01       	movw	r18, r8
     a54:	c7 01       	movw	r24, r14
     a56:	b6 01       	movw	r22, r12
     a58:	0e 94 86 0e 	call	0x1d0c	; 0x1d0c <__divsf3>
     a5c:	6b 01       	movw	r12, r22
     a5e:	7c 01       	movw	r14, r24
     a60:	1a c0       	rjmp	.+52     	; 0xa96 <roundKeyGen+0x11e>
	else
	xn = (1 - xn) / (1 - a);
     a62:	a7 01       	movw	r20, r14
     a64:	96 01       	movw	r18, r12
     a66:	60 e0       	ldi	r22, 0x00	; 0
     a68:	70 e0       	ldi	r23, 0x00	; 0
     a6a:	80 e8       	ldi	r24, 0x80	; 128
     a6c:	9f e3       	ldi	r25, 0x3F	; 63
     a6e:	0e 94 1d 0e 	call	0x1c3a	; 0x1c3a <__subsf3>
     a72:	6b 01       	movw	r12, r22
     a74:	7c 01       	movw	r14, r24
     a76:	a5 01       	movw	r20, r10
     a78:	94 01       	movw	r18, r8
     a7a:	60 e0       	ldi	r22, 0x00	; 0
     a7c:	70 e0       	ldi	r23, 0x00	; 0
     a7e:	80 e8       	ldi	r24, 0x80	; 128
     a80:	9f e3       	ldi	r25, 0x3F	; 63
     a82:	0e 94 1d 0e 	call	0x1c3a	; 0x1c3a <__subsf3>
     a86:	9b 01       	movw	r18, r22
     a88:	ac 01       	movw	r20, r24
     a8a:	c7 01       	movw	r24, r14
     a8c:	b6 01       	movw	r22, r12
     a8e:	0e 94 86 0e 	call	0x1d0c	; 0x1d0c <__divsf3>
     a92:	6b 01       	movw	r12, r22
     a94:	7c 01       	movw	r14, r24
		}
	}
	for (uint8_t i = 0; i < 16 * ROUND; i++)
	{
		xn = tentn(xn, a);
		randnum[i] = (uint8_t)(xn * 256);
     a96:	20 e0       	ldi	r18, 0x00	; 0
     a98:	30 e0       	ldi	r19, 0x00	; 0
     a9a:	40 e8       	ldi	r20, 0x80	; 128
     a9c:	53 e4       	ldi	r21, 0x43	; 67
     a9e:	c7 01       	movw	r24, r14
     aa0:	b6 01       	movw	r22, r12
     aa2:	0e 94 d0 0f 	call	0x1fa0	; 0x1fa0 <__mulsf3>
     aa6:	0e 94 ee 0e 	call	0x1ddc	; 0x1ddc <__fixunssfsi>
     aaa:	69 93       	st	Y+, r22
		for (uint8_t j = 0; j < 20; j++)
		{
			xn = tentn(xn, a);
		}
	}
	for (uint8_t i = 0; i < 16 * ROUND; i++)
     aac:	0c 17       	cp	r16, r28
     aae:	1d 07       	cpc	r17, r29
     ab0:	39 f6       	brne	.-114    	; 0xa40 <roundKeyGen+0xc8>
}

//**************************帐篷映射模块********************************//
float tentn(float xn, float a)
{
	if (xn < a)
     ab2:	a7 01       	movw	r20, r14
     ab4:	96 01       	movw	r18, r12
     ab6:	c5 01       	movw	r24, r10
     ab8:	b4 01       	movw	r22, r8
     aba:	0e 94 cc 0f 	call	0x1f98	; 0x1f98 <__gesf2>
     abe:	18 16       	cp	r1, r24
     ac0:	3c f4       	brge	.+14     	; 0xad0 <roundKeyGen+0x158>
	xn = xn / a;
     ac2:	a5 01       	movw	r20, r10
     ac4:	94 01       	movw	r18, r8
     ac6:	c7 01       	movw	r24, r14
     ac8:	b6 01       	movw	r22, r12
     aca:	0e 94 86 0e 	call	0x1d0c	; 0x1d0c <__divsf3>
     ace:	18 c0       	rjmp	.+48     	; 0xb00 <roundKeyGen+0x188>
	else
	xn = (1 - xn) / (1 - a);
     ad0:	a7 01       	movw	r20, r14
     ad2:	96 01       	movw	r18, r12
     ad4:	60 e0       	ldi	r22, 0x00	; 0
     ad6:	70 e0       	ldi	r23, 0x00	; 0
     ad8:	80 e8       	ldi	r24, 0x80	; 128
     ada:	9f e3       	ldi	r25, 0x3F	; 63
     adc:	0e 94 1d 0e 	call	0x1c3a	; 0x1c3a <__subsf3>
     ae0:	6b 01       	movw	r12, r22
     ae2:	7c 01       	movw	r14, r24
     ae4:	a5 01       	movw	r20, r10
     ae6:	94 01       	movw	r18, r8
     ae8:	60 e0       	ldi	r22, 0x00	; 0
     aea:	70 e0       	ldi	r23, 0x00	; 0
     aec:	80 e8       	ldi	r24, 0x80	; 128
     aee:	9f e3       	ldi	r25, 0x3F	; 63
     af0:	0e 94 1d 0e 	call	0x1c3a	; 0x1c3a <__subsf3>
     af4:	9b 01       	movw	r18, r22
     af6:	ac 01       	movw	r20, r24
     af8:	c7 01       	movw	r24, r14
     afa:	b6 01       	movw	r22, r12
     afc:	0e 94 86 0e 	call	0x1d0c	; 0x1d0c <__divsf3>
	for (uint8_t i = 0; i < 16 * ROUND; i++)
	{
		xn = tentn(xn, a);
		randnum[i] = (uint8_t)(xn * 256);
	}
	seed = tentn(xn, a);
     b00:	60 93 18 22 	sts	0x2218, r22	; 0x802218 <__data_end>
     b04:	70 93 19 22 	sts	0x2219, r23	; 0x802219 <__data_end+0x1>
     b08:	80 93 1a 22 	sts	0x221A, r24	; 0x80221a <__data_end+0x2>
     b0c:	90 93 1b 22 	sts	0x221B, r25	; 0x80221b <__data_end+0x3>
}
     b10:	df 91       	pop	r29
     b12:	cf 91       	pop	r28
     b14:	1f 91       	pop	r17
     b16:	0f 91       	pop	r16
     b18:	ff 90       	pop	r15
     b1a:	ef 90       	pop	r14
     b1c:	df 90       	pop	r13
     b1e:	cf 90       	pop	r12
     b20:	bf 90       	pop	r11
     b22:	af 90       	pop	r10
     b24:	9f 90       	pop	r9
     b26:	8f 90       	pop	r8
     b28:	7f 90       	pop	r7
     b2a:	6f 90       	pop	r6
     b2c:	5f 90       	pop	r5
     b2e:	08 95       	ret

00000b30 <encryptionInit>:

uint8_t intermediate[16];

void encryptionInit( void )
{
	roundKeyGen((float)0.5987, RDKey);
     b30:	48 ee       	ldi	r20, 0xE8	; 232
     b32:	52 e2       	ldi	r21, 0x22	; 34
     b34:	67 e6       	ldi	r22, 0x67	; 103
     b36:	74 e4       	ldi	r23, 0x44	; 68
     b38:	89 e1       	ldi	r24, 0x19	; 25
     b3a:	9f e3       	ldi	r25, 0x3F	; 63
     b3c:	1d cf       	rjmp	.-454    	; 0x978 <roundKeyGen>
     b3e:	08 95       	ret

00000b40 <mask_gen>:
	seed = tentn(xn, a);
}

//通过Hash函数生成掩码，x0为Hash函数的初始值，a为参数//
void mask_gen(float x0)//生成掩码
{
     b40:	4f 92       	push	r4
     b42:	5f 92       	push	r5
     b44:	6f 92       	push	r6
     b46:	7f 92       	push	r7
     b48:	af 92       	push	r10
     b4a:	bf 92       	push	r11
     b4c:	cf 92       	push	r12
     b4e:	df 92       	push	r13
     b50:	ef 92       	push	r14
     b52:	ff 92       	push	r15
     b54:	0f 93       	push	r16
     b56:	1f 93       	push	r17
     b58:	cf 93       	push	r28
     b5a:	df 93       	push	r29
     b5c:	6b 01       	movw	r12, r22
     b5e:	7c 01       	movw	r14, r24
     b60:	08 e1       	ldi	r16, 0x18	; 24
     b62:	13 e2       	ldi	r17, 0x23	; 35
     b64:	0f 2e       	mov	r0, r31
     b66:	f8 e2       	ldi	r31, 0x28	; 40
     b68:	af 2e       	mov	r10, r31
     b6a:	f3 e2       	ldi	r31, 0x23	; 35
     b6c:	bf 2e       	mov	r11, r31
     b6e:	f0 2d       	mov	r31, r0
	float a;
	float xn = x0;
	for (uint8_t i = 0; i < 16; i++)
	{
		a = (float)0.51 + (float)0.001*intermediate[i];
     b70:	f8 01       	movw	r30, r16
     b72:	61 91       	ld	r22, Z+
     b74:	8f 01       	movw	r16, r30
     b76:	70 e0       	ldi	r23, 0x00	; 0
     b78:	80 e0       	ldi	r24, 0x00	; 0
     b7a:	90 e0       	ldi	r25, 0x00	; 0
     b7c:	0e 94 1c 0f 	call	0x1e38	; 0x1e38 <__floatsisf>
     b80:	2f e6       	ldi	r18, 0x6F	; 111
     b82:	32 e1       	ldi	r19, 0x12	; 18
     b84:	43 e8       	ldi	r20, 0x83	; 131
     b86:	5a e3       	ldi	r21, 0x3A	; 58
     b88:	0e 94 d0 0f 	call	0x1fa0	; 0x1fa0 <__mulsf3>
     b8c:	2c e5       	ldi	r18, 0x5C	; 92
     b8e:	3f e8       	ldi	r19, 0x8F	; 143
     b90:	42 e0       	ldi	r20, 0x02	; 2
     b92:	5f e3       	ldi	r21, 0x3F	; 63
     b94:	0e 94 1e 0e 	call	0x1c3c	; 0x1c3c <__addsf3>
     b98:	2b 01       	movw	r4, r22
     b9a:	3c 01       	movw	r6, r24
     b9c:	c5 e0       	ldi	r28, 0x05	; 5
}

//**************************帐篷映射模块********************************//
float tentn(float xn, float a)
{
	if (xn < a)
     b9e:	a7 01       	movw	r20, r14
     ba0:	96 01       	movw	r18, r12
     ba2:	c3 01       	movw	r24, r6
     ba4:	b2 01       	movw	r22, r4
     ba6:	0e 94 cc 0f 	call	0x1f98	; 0x1f98 <__gesf2>
     baa:	18 16       	cp	r1, r24
     bac:	4c f4       	brge	.+18     	; 0xbc0 <mask_gen+0x80>
	xn = xn / a;
     bae:	a3 01       	movw	r20, r6
     bb0:	92 01       	movw	r18, r4
     bb2:	c7 01       	movw	r24, r14
     bb4:	b6 01       	movw	r22, r12
     bb6:	0e 94 86 0e 	call	0x1d0c	; 0x1d0c <__divsf3>
     bba:	6b 01       	movw	r12, r22
     bbc:	7c 01       	movw	r14, r24
     bbe:	1a c0       	rjmp	.+52     	; 0xbf4 <mask_gen+0xb4>
	else
	xn = (1 - xn) / (1 - a);
     bc0:	a7 01       	movw	r20, r14
     bc2:	96 01       	movw	r18, r12
     bc4:	60 e0       	ldi	r22, 0x00	; 0
     bc6:	70 e0       	ldi	r23, 0x00	; 0
     bc8:	80 e8       	ldi	r24, 0x80	; 128
     bca:	9f e3       	ldi	r25, 0x3F	; 63
     bcc:	0e 94 1d 0e 	call	0x1c3a	; 0x1c3a <__subsf3>
     bd0:	6b 01       	movw	r12, r22
     bd2:	7c 01       	movw	r14, r24
     bd4:	a3 01       	movw	r20, r6
     bd6:	92 01       	movw	r18, r4
     bd8:	60 e0       	ldi	r22, 0x00	; 0
     bda:	70 e0       	ldi	r23, 0x00	; 0
     bdc:	80 e8       	ldi	r24, 0x80	; 128
     bde:	9f e3       	ldi	r25, 0x3F	; 63
     be0:	0e 94 1d 0e 	call	0x1c3a	; 0x1c3a <__subsf3>
     be4:	9b 01       	movw	r18, r22
     be6:	ac 01       	movw	r20, r24
     be8:	c7 01       	movw	r24, r14
     bea:	b6 01       	movw	r22, r12
     bec:	0e 94 86 0e 	call	0x1d0c	; 0x1d0c <__divsf3>
     bf0:	6b 01       	movw	r12, r22
     bf2:	7c 01       	movw	r14, r24
     bf4:	c1 50       	subi	r28, 0x01	; 1
	float a;
	float xn = x0;
	for (uint8_t i = 0; i < 16; i++)
	{
		a = (float)0.51 + (float)0.001*intermediate[i];
		for (uint8_t j = 0; j < 5; j++)
     bf6:	99 f6       	brne	.-90     	; 0xb9e <mask_gen+0x5e>
//通过Hash函数生成掩码，x0为Hash函数的初始值，a为参数//
void mask_gen(float x0)//生成掩码
{
	float a;
	float xn = x0;
	for (uint8_t i = 0; i < 16; i++)
     bf8:	0a 15       	cp	r16, r10
     bfa:	1b 05       	cpc	r17, r11
     bfc:	09 f0       	breq	.+2      	; 0xc00 <mask_gen+0xc0>
     bfe:	b8 cf       	rjmp	.-144    	; 0xb70 <mask_gen+0x30>
}

//**************************帐篷映射模块********************************//
float tentn(float xn, float a)
{
	if (xn < a)
     c00:	a7 01       	movw	r20, r14
     c02:	96 01       	movw	r18, r12
     c04:	c3 01       	movw	r24, r6
     c06:	b2 01       	movw	r22, r4
     c08:	0e 94 cc 0f 	call	0x1f98	; 0x1f98 <__gesf2>
     c0c:	18 16       	cp	r1, r24
     c0e:	4c f4       	brge	.+18     	; 0xc22 <mask_gen+0xe2>
	xn = xn / a;
     c10:	a3 01       	movw	r20, r6
     c12:	92 01       	movw	r18, r4
     c14:	c7 01       	movw	r24, r14
     c16:	b6 01       	movw	r22, r12
     c18:	0e 94 86 0e 	call	0x1d0c	; 0x1d0c <__divsf3>
     c1c:	6b 01       	movw	r12, r22
     c1e:	7c 01       	movw	r14, r24
     c20:	19 c0       	rjmp	.+50     	; 0xc54 <mask_gen+0x114>
	else
	xn = (1 - xn) / (1 - a);
     c22:	a7 01       	movw	r20, r14
     c24:	96 01       	movw	r18, r12
     c26:	60 e0       	ldi	r22, 0x00	; 0
     c28:	70 e0       	ldi	r23, 0x00	; 0
     c2a:	80 e8       	ldi	r24, 0x80	; 128
     c2c:	9f e3       	ldi	r25, 0x3F	; 63
     c2e:	0e 94 1d 0e 	call	0x1c3a	; 0x1c3a <__subsf3>
     c32:	6b 01       	movw	r12, r22
     c34:	7c 01       	movw	r14, r24
     c36:	a3 01       	movw	r20, r6
     c38:	92 01       	movw	r18, r4
     c3a:	60 e0       	ldi	r22, 0x00	; 0
     c3c:	70 e0       	ldi	r23, 0x00	; 0
     c3e:	80 e8       	ldi	r24, 0x80	; 128
     c40:	9f e3       	ldi	r25, 0x3F	; 63
     c42:	fb d7       	rcall	.+4086   	; 0x1c3a <__subsf3>
     c44:	9b 01       	movw	r18, r22
     c46:	ac 01       	movw	r20, r24
     c48:	c7 01       	movw	r24, r14
     c4a:	b6 01       	movw	r22, r12
     c4c:	0e 94 86 0e 	call	0x1d0c	; 0x1d0c <__divsf3>
     c50:	6b 01       	movw	r12, r22
     c52:	7c 01       	movw	r14, r24
		{
			xn = tentn(xn, a);
		}
	}
	xn = tentn(xn, a);
	s_mask_1 = (uint8_t)(255 * xn);
     c54:	20 e0       	ldi	r18, 0x00	; 0
     c56:	30 e0       	ldi	r19, 0x00	; 0
     c58:	4f e7       	ldi	r20, 0x7F	; 127
     c5a:	53 e4       	ldi	r21, 0x43	; 67
     c5c:	c7 01       	movw	r24, r14
     c5e:	b6 01       	movw	r22, r12
     c60:	0e 94 d0 0f 	call	0x1fa0	; 0x1fa0 <__mulsf3>
     c64:	0e 94 ee 0e 	call	0x1ddc	; 0x1ddc <__fixunssfsi>
     c68:	60 93 28 23 	sts	0x2328, r22	; 0x802328 <s_mask_1>
}

//**************************帐篷映射模块********************************//
float tentn(float xn, float a)
{
	if (xn < a)
     c6c:	a7 01       	movw	r20, r14
     c6e:	96 01       	movw	r18, r12
     c70:	c3 01       	movw	r24, r6
     c72:	b2 01       	movw	r22, r4
     c74:	0e 94 cc 0f 	call	0x1f98	; 0x1f98 <__gesf2>
     c78:	18 16       	cp	r1, r24
     c7a:	4c f4       	brge	.+18     	; 0xc8e <mask_gen+0x14e>
	xn = xn / a;
     c7c:	a3 01       	movw	r20, r6
     c7e:	92 01       	movw	r18, r4
     c80:	c7 01       	movw	r24, r14
     c82:	b6 01       	movw	r22, r12
     c84:	0e 94 86 0e 	call	0x1d0c	; 0x1d0c <__divsf3>
     c88:	6b 01       	movw	r12, r22
     c8a:	7c 01       	movw	r14, r24
     c8c:	18 c0       	rjmp	.+48     	; 0xcbe <mask_gen+0x17e>
	else
	xn = (1 - xn) / (1 - a);
     c8e:	a7 01       	movw	r20, r14
     c90:	96 01       	movw	r18, r12
     c92:	60 e0       	ldi	r22, 0x00	; 0
     c94:	70 e0       	ldi	r23, 0x00	; 0
     c96:	80 e8       	ldi	r24, 0x80	; 128
     c98:	9f e3       	ldi	r25, 0x3F	; 63
     c9a:	cf d7       	rcall	.+3998   	; 0x1c3a <__subsf3>
     c9c:	6b 01       	movw	r12, r22
     c9e:	7c 01       	movw	r14, r24
     ca0:	a3 01       	movw	r20, r6
     ca2:	92 01       	movw	r18, r4
     ca4:	60 e0       	ldi	r22, 0x00	; 0
     ca6:	70 e0       	ldi	r23, 0x00	; 0
     ca8:	80 e8       	ldi	r24, 0x80	; 128
     caa:	9f e3       	ldi	r25, 0x3F	; 63
     cac:	c6 d7       	rcall	.+3980   	; 0x1c3a <__subsf3>
     cae:	9b 01       	movw	r18, r22
     cb0:	ac 01       	movw	r20, r24
     cb2:	c7 01       	movw	r24, r14
     cb4:	b6 01       	movw	r22, r12
     cb6:	0e 94 86 0e 	call	0x1d0c	; 0x1d0c <__divsf3>
     cba:	6b 01       	movw	r12, r22
     cbc:	7c 01       	movw	r14, r24
		}
	}
	xn = tentn(xn, a);
	s_mask_1 = (uint8_t)(255 * xn);
	xn = tentn(xn, a);
	s_mask_2 = (uint8_t)(255 * xn);
     cbe:	20 e0       	ldi	r18, 0x00	; 0
     cc0:	30 e0       	ldi	r19, 0x00	; 0
     cc2:	4f e7       	ldi	r20, 0x7F	; 127
     cc4:	53 e4       	ldi	r21, 0x43	; 67
     cc6:	c7 01       	movw	r24, r14
     cc8:	b6 01       	movw	r22, r12
     cca:	0e 94 d0 0f 	call	0x1fa0	; 0x1fa0 <__mulsf3>
     cce:	0e 94 ee 0e 	call	0x1ddc	; 0x1ddc <__fixunssfsi>
     cd2:	60 93 3a 24 	sts	0x243A, r22	; 0x80243a <s_mask_2>
     cd6:	c9 e2       	ldi	r28, 0x29	; 41
     cd8:	d3 e2       	ldi	r29, 0x23	; 35
     cda:	09 e3       	ldi	r16, 0x39	; 57
     cdc:	13 e2       	ldi	r17, 0x23	; 35
}

//**************************帐篷映射模块********************************//
float tentn(float xn, float a)
{
	if (xn < a)
     cde:	a7 01       	movw	r20, r14
     ce0:	96 01       	movw	r18, r12
     ce2:	c3 01       	movw	r24, r6
     ce4:	b2 01       	movw	r22, r4
     ce6:	0e 94 cc 0f 	call	0x1f98	; 0x1f98 <__gesf2>
     cea:	18 16       	cp	r1, r24
     cec:	4c f4       	brge	.+18     	; 0xd00 <mask_gen+0x1c0>
	xn = xn / a;
     cee:	a3 01       	movw	r20, r6
     cf0:	92 01       	movw	r18, r4
     cf2:	c7 01       	movw	r24, r14
     cf4:	b6 01       	movw	r22, r12
     cf6:	0e 94 86 0e 	call	0x1d0c	; 0x1d0c <__divsf3>
     cfa:	6b 01       	movw	r12, r22
     cfc:	7c 01       	movw	r14, r24
     cfe:	17 c0       	rjmp	.+46     	; 0xd2e <mask_gen+0x1ee>
	else
	xn = (1 - xn) / (1 - a);
     d00:	a7 01       	movw	r20, r14
     d02:	96 01       	movw	r18, r12
     d04:	60 e0       	ldi	r22, 0x00	; 0
     d06:	70 e0       	ldi	r23, 0x00	; 0
     d08:	80 e8       	ldi	r24, 0x80	; 128
     d0a:	9f e3       	ldi	r25, 0x3F	; 63
     d0c:	96 d7       	rcall	.+3884   	; 0x1c3a <__subsf3>
     d0e:	6b 01       	movw	r12, r22
     d10:	7c 01       	movw	r14, r24
     d12:	a3 01       	movw	r20, r6
     d14:	92 01       	movw	r18, r4
     d16:	60 e0       	ldi	r22, 0x00	; 0
     d18:	70 e0       	ldi	r23, 0x00	; 0
     d1a:	80 e8       	ldi	r24, 0x80	; 128
     d1c:	9f e3       	ldi	r25, 0x3F	; 63
     d1e:	8d d7       	rcall	.+3866   	; 0x1c3a <__subsf3>
     d20:	9b 01       	movw	r18, r22
     d22:	ac 01       	movw	r20, r24
     d24:	c7 01       	movw	r24, r14
     d26:	b6 01       	movw	r22, r12
     d28:	f1 d7       	rcall	.+4066   	; 0x1d0c <__divsf3>
     d2a:	6b 01       	movw	r12, r22
     d2c:	7c 01       	movw	r14, r24
	s_mask_2 = (uint8_t)(255 * xn);

	for (uint8_t i = 0; i < 16; i++)
	{
		xn = tentn(xn, a);
		add_mask[i] = (uint8_t)(255*xn) ;
     d2e:	20 e0       	ldi	r18, 0x00	; 0
     d30:	30 e0       	ldi	r19, 0x00	; 0
     d32:	4f e7       	ldi	r20, 0x7F	; 127
     d34:	53 e4       	ldi	r21, 0x43	; 67
     d36:	c7 01       	movw	r24, r14
     d38:	b6 01       	movw	r22, r12
     d3a:	0e 94 d0 0f 	call	0x1fa0	; 0x1fa0 <__mulsf3>
     d3e:	0e 94 ee 0e 	call	0x1ddc	; 0x1ddc <__fixunssfsi>
     d42:	69 93       	st	Y+, r22
	xn = tentn(xn, a);
	s_mask_1 = (uint8_t)(255 * xn);
	xn = tentn(xn, a);
	s_mask_2 = (uint8_t)(255 * xn);

	for (uint8_t i = 0; i < 16; i++)
     d44:	0c 17       	cp	r16, r28
     d46:	1d 07       	cpc	r17, r29
     d48:	51 f6       	brne	.-108    	; 0xcde <mask_gen+0x19e>
}

//**************************帐篷映射模块********************************//
float tentn(float xn, float a)
{
	if (xn < a)
     d4a:	a7 01       	movw	r20, r14
     d4c:	96 01       	movw	r18, r12
     d4e:	c3 01       	movw	r24, r6
     d50:	b2 01       	movw	r22, r4
     d52:	0e 94 cc 0f 	call	0x1f98	; 0x1f98 <__gesf2>
     d56:	18 16       	cp	r1, r24
	xn = xn / a;
     d58:	44 f4       	brge	.+16     	; 0xd6a <mask_gen+0x22a>
     d5a:	a3 01       	movw	r20, r6
     d5c:	92 01       	movw	r18, r4
     d5e:	c7 01       	movw	r24, r14
     d60:	b6 01       	movw	r22, r12
     d62:	d4 d7       	rcall	.+4008   	; 0x1d0c <__divsf3>
     d64:	6b 01       	movw	r12, r22
     d66:	7c 01       	movw	r14, r24
     d68:	17 c0       	rjmp	.+46     	; 0xd98 <mask_gen+0x258>
	else
	xn = (1 - xn) / (1 - a);
     d6a:	a7 01       	movw	r20, r14
     d6c:	96 01       	movw	r18, r12
     d6e:	60 e0       	ldi	r22, 0x00	; 0
     d70:	70 e0       	ldi	r23, 0x00	; 0
     d72:	80 e8       	ldi	r24, 0x80	; 128
     d74:	9f e3       	ldi	r25, 0x3F	; 63
     d76:	61 d7       	rcall	.+3778   	; 0x1c3a <__subsf3>
     d78:	6b 01       	movw	r12, r22
     d7a:	7c 01       	movw	r14, r24
     d7c:	a3 01       	movw	r20, r6
     d7e:	92 01       	movw	r18, r4
     d80:	60 e0       	ldi	r22, 0x00	; 0
     d82:	70 e0       	ldi	r23, 0x00	; 0
     d84:	80 e8       	ldi	r24, 0x80	; 128
     d86:	9f e3       	ldi	r25, 0x3F	; 63
     d88:	58 d7       	rcall	.+3760   	; 0x1c3a <__subsf3>
     d8a:	9b 01       	movw	r18, r22
     d8c:	ac 01       	movw	r20, r24
     d8e:	c7 01       	movw	r24, r14
     d90:	b6 01       	movw	r22, r12
     d92:	bc d7       	rcall	.+3960   	; 0x1d0c <__divsf3>
     d94:	6b 01       	movw	r12, r22
     d96:	7c 01       	movw	r14, r24
	{
		xn = tentn(xn, a);
		add_mask[i] = (uint8_t)(255*xn) ;
	}
	xn = tentn(xn, a);
	mul_mask_1 = (uint8_t)(255*xn);
     d98:	20 e0       	ldi	r18, 0x00	; 0
     d9a:	30 e0       	ldi	r19, 0x00	; 0
     d9c:	4f e7       	ldi	r20, 0x7F	; 127
     d9e:	53 e4       	ldi	r21, 0x43	; 67
     da0:	c7 01       	movw	r24, r14
     da2:	b6 01       	movw	r22, r12
     da4:	0e 94 d0 0f 	call	0x1fa0	; 0x1fa0 <__mulsf3>
     da8:	0e 94 ee 0e 	call	0x1ddc	; 0x1ddc <__fixunssfsi>
     dac:	60 93 3b 24 	sts	0x243B, r22	; 0x80243b <mul_mask_1>
}

//**************************帐篷映射模块********************************//
float tentn(float xn, float a)
{
	if (xn < a)
     db0:	a3 01       	movw	r20, r6
     db2:	92 01       	movw	r18, r4
     db4:	c7 01       	movw	r24, r14
     db6:	b6 01       	movw	r22, r12
     db8:	a5 d7       	rcall	.+3914   	; 0x1d04 <__cmpsf2>
     dba:	88 23       	and	r24, r24
	xn = xn / a;
     dbc:	44 f4       	brge	.+16     	; 0xdce <mask_gen+0x28e>
     dbe:	a3 01       	movw	r20, r6
     dc0:	92 01       	movw	r18, r4
     dc2:	c7 01       	movw	r24, r14
     dc4:	b6 01       	movw	r22, r12
     dc6:	a2 d7       	rcall	.+3908   	; 0x1d0c <__divsf3>
     dc8:	6b 01       	movw	r12, r22
     dca:	7c 01       	movw	r14, r24
	else
	xn = (1 - xn) / (1 - a);
     dcc:	17 c0       	rjmp	.+46     	; 0xdfc <mask_gen+0x2bc>
     dce:	a7 01       	movw	r20, r14
     dd0:	96 01       	movw	r18, r12
     dd2:	60 e0       	ldi	r22, 0x00	; 0
     dd4:	70 e0       	ldi	r23, 0x00	; 0
     dd6:	80 e8       	ldi	r24, 0x80	; 128
     dd8:	9f e3       	ldi	r25, 0x3F	; 63
     dda:	2f d7       	rcall	.+3678   	; 0x1c3a <__subsf3>
     ddc:	6b 01       	movw	r12, r22
     dde:	7c 01       	movw	r14, r24
     de0:	a3 01       	movw	r20, r6
     de2:	92 01       	movw	r18, r4
     de4:	60 e0       	ldi	r22, 0x00	; 0
     de6:	70 e0       	ldi	r23, 0x00	; 0
     de8:	80 e8       	ldi	r24, 0x80	; 128
     dea:	9f e3       	ldi	r25, 0x3F	; 63
     dec:	26 d7       	rcall	.+3660   	; 0x1c3a <__subsf3>
     dee:	9b 01       	movw	r18, r22
     df0:	ac 01       	movw	r20, r24
     df2:	c7 01       	movw	r24, r14
     df4:	b6 01       	movw	r22, r12
     df6:	8a d7       	rcall	.+3860   	; 0x1d0c <__divsf3>
     df8:	6b 01       	movw	r12, r22
	xn = tentn(xn, a);
	mul_mask_1 = (uint8_t)(255*xn);
	do 
	{
		xn = tentn(xn, a);
	} while ((mul_mask_2 = (uint8_t)(255*xn))==0);
     dfa:	7c 01       	movw	r14, r24
     dfc:	20 e0       	ldi	r18, 0x00	; 0
     dfe:	30 e0       	ldi	r19, 0x00	; 0
     e00:	4f e7       	ldi	r20, 0x7F	; 127
     e02:	53 e4       	ldi	r21, 0x43	; 67
     e04:	c7 01       	movw	r24, r14
     e06:	b6 01       	movw	r22, r12
     e08:	0e 94 d0 0f 	call	0x1fa0	; 0x1fa0 <__mulsf3>
     e0c:	e7 d7       	rcall	.+4046   	; 0x1ddc <__fixunssfsi>
     e0e:	66 23       	and	r22, r22
     e10:	79 f2       	breq	.-98     	; 0xdb0 <mask_gen+0x270>
     e12:	60 93 39 24 	sts	0x2439, r22	; 0x802439 <mul_mask_2>
	
	xn = tentn(xn, a);
}
     e16:	df 91       	pop	r29
     e18:	cf 91       	pop	r28
     e1a:	1f 91       	pop	r17
     e1c:	0f 91       	pop	r16
     e1e:	ff 90       	pop	r15
     e20:	ef 90       	pop	r14
     e22:	df 90       	pop	r13
     e24:	cf 90       	pop	r12
     e26:	bf 90       	pop	r11
     e28:	af 90       	pop	r10
     e2a:	7f 90       	pop	r7
     e2c:	6f 90       	pop	r6
     e2e:	5f 90       	pop	r5
     e30:	4f 90       	pop	r4
     e32:	08 95       	ret

00000e34 <cons_sbox>:
//**************************构建新的sbox**************************//
void cons_sbox(uint8_t mask_in, uint8_t mask_out)//construct_sbox构造 S-box
{
     e34:	a7 e1       	ldi	r26, 0x17	; 23
     e36:	b1 e2       	ldi	r27, 0x21	; 33
	for (int i = 0; i < 256; i++)
     e38:	20 e0       	ldi	r18, 0x00	; 0
     e3a:	30 e0       	ldi	r19, 0x00	; 0
	msbox[i^mask_in] = sbox[i] ^ mask_out;
     e3c:	48 2f       	mov	r20, r24
     e3e:	50 e0       	ldi	r21, 0x00	; 0
     e40:	8d 91       	ld	r24, X+
     e42:	fa 01       	movw	r30, r20
     e44:	e2 27       	eor	r30, r18
     e46:	f3 27       	eor	r31, r19
     e48:	e7 5c       	subi	r30, 0xC7	; 199
     e4a:	fc 4d       	sbci	r31, 0xDC	; 220
     e4c:	86 27       	eor	r24, r22
     e4e:	80 83       	st	Z, r24
	xn = tentn(xn, a);
}
//**************************构建新的sbox**************************//
void cons_sbox(uint8_t mask_in, uint8_t mask_out)//construct_sbox构造 S-box
{
	for (int i = 0; i < 256; i++)
     e50:	2f 5f       	subi	r18, 0xFF	; 255
     e52:	3f 4f       	sbci	r19, 0xFF	; 255
     e54:	21 15       	cp	r18, r1
     e56:	81 e0       	ldi	r24, 0x01	; 1
     e58:	38 07       	cpc	r19, r24
     e5a:	91 f7       	brne	.-28     	; 0xe40 <cons_sbox+0xc>
	msbox[i^mask_in] = sbox[i] ^ mask_out;
}
     e5c:	08 95       	ret

00000e5e <mask_all>:
//*************************对数组的全体元素使用mask进行掩码*********//
void mask_all(uint8_t arr[], uint8_t mask)//对数组的全体使用mask进行掩码
{
     e5e:	fc 01       	movw	r30, r24
     e60:	9c 01       	movw	r18, r24
     e62:	20 5f       	subi	r18, 0xF0	; 240
     e64:	3f 4f       	sbci	r19, 0xFF	; 255
	for (uint8_t i = 0; i < 16; i++)
	arr[i] ^= mask;
     e66:	90 81       	ld	r25, Z
     e68:	96 27       	eor	r25, r22
     e6a:	91 93       	st	Z+, r25
	msbox[i^mask_in] = sbox[i] ^ mask_out;
}
//*************************对数组的全体元素使用mask进行掩码*********//
void mask_all(uint8_t arr[], uint8_t mask)//对数组的全体使用mask进行掩码
{
	for (uint8_t i = 0; i < 16; i++)
     e6c:	e2 17       	cp	r30, r18
     e6e:	f3 07       	cpc	r31, r19
     e70:	d1 f7       	brne	.-12     	; 0xe66 <mask_all+0x8>
	arr[i] ^= mask;
}
     e72:	08 95       	ret

00000e74 <addroundkey>:

//**************************Add Round Key*****************************//
void addroundkey(uint8_t	*interarray, uint8_t *roundkey)//
{
     e74:	db 01       	movw	r26, r22
     e76:	fc 01       	movw	r30, r24
     e78:	ac 01       	movw	r20, r24
     e7a:	40 5f       	subi	r20, 0xF0	; 240
     e7c:	5f 4f       	sbci	r21, 0xFF	; 255
	for (uint8_t index = 0; index < 16; index++)
	{
		*(interarray + index) = (*(interarray + index)) ^ (*(roundkey + index));
     e7e:	9d 91       	ld	r25, X+
     e80:	20 81       	ld	r18, Z
     e82:	92 27       	eor	r25, r18
     e84:	91 93       	st	Z+, r25
}

//**************************Add Round Key*****************************//
void addroundkey(uint8_t	*interarray, uint8_t *roundkey)//
{
	for (uint8_t index = 0; index < 16; index++)
     e86:	e4 17       	cp	r30, r20
     e88:	f5 07       	cpc	r31, r21
     e8a:	c9 f7       	brne	.-14     	; 0xe7e <addroundkey+0xa>
	{
		*(interarray + index) = (*(interarray + index)) ^ (*(roundkey + index));
	}
}
     e8c:	08 95       	ret

00000e8e <getboxvalue>:

//**************************S-box变换********************************//
void getboxvalue(uint8_t interarray[], uint8_t box[])//进行S-box正变换或者反变换
{
     e8e:	fc 01       	movw	r30, r24
     e90:	9c 01       	movw	r18, r24
     e92:	20 5f       	subi	r18, 0xF0	; 240
     e94:	3f 4f       	sbci	r19, 0xFF	; 255
	for (uint8_t index = 0; index < 16; index++)
	{
		interarray[index] = box[interarray[index]];
     e96:	90 81       	ld	r25, Z
     e98:	db 01       	movw	r26, r22
     e9a:	a9 0f       	add	r26, r25
     e9c:	b1 1d       	adc	r27, r1
     e9e:	9c 91       	ld	r25, X
     ea0:	91 93       	st	Z+, r25
}

//**************************S-box变换********************************//
void getboxvalue(uint8_t interarray[], uint8_t box[])//进行S-box正变换或者反变换
{
	for (uint8_t index = 0; index < 16; index++)
     ea2:	e2 17       	cp	r30, r18
     ea4:	f3 07       	cpc	r31, r19
     ea6:	b9 f7       	brne	.-18     	; 0xe96 <getboxvalue+0x8>
	{
		interarray[index] = box[interarray[index]];
	}
}
     ea8:	08 95       	ret

00000eaa <XTIME>:
//*************************扩散环节**********************************//
unsigned char XTIME(unsigned char x)
{
	return ((x << 1) ^ ((x & 0x80) ? 0x1b : 0x00));
     eaa:	28 2f       	mov	r18, r24
     eac:	30 e0       	ldi	r19, 0x00	; 0
     eae:	22 0f       	add	r18, r18
     eb0:	33 1f       	adc	r19, r19
     eb2:	88 23       	and	r24, r24
     eb4:	14 f0       	brlt	.+4      	; 0xeba <XTIME+0x10>
     eb6:	80 e0       	ldi	r24, 0x00	; 0
     eb8:	01 c0       	rjmp	.+2      	; 0xebc <XTIME+0x12>
     eba:	8b e1       	ldi	r24, 0x1B	; 27
}
     ebc:	82 27       	eor	r24, r18
     ebe:	08 95       	ret

00000ec0 <multiply>:

unsigned char multiply(unsigned char a, unsigned char b)
{
     ec0:	cf 92       	push	r12
     ec2:	df 92       	push	r13
     ec4:	ef 92       	push	r14
     ec6:	ff 92       	push	r15
     ec8:	0f 93       	push	r16
     eca:	1f 93       	push	r17
     ecc:	cf 93       	push	r28
     ece:	df 93       	push	r29
     ed0:	cd b7       	in	r28, 0x3d	; 61
     ed2:	de b7       	in	r29, 0x3e	; 62
     ed4:	28 97       	sbiw	r28, 0x08	; 8
     ed6:	cd bf       	out	0x3d, r28	; 61
     ed8:	de bf       	out	0x3e, r29	; 62
     eda:	e8 2e       	mov	r14, r24
     edc:	f6 2e       	mov	r15, r22
	unsigned char temp[8] = { a };
     ede:	fe 01       	movw	r30, r28
     ee0:	31 96       	adiw	r30, 0x01	; 1
     ee2:	88 e0       	ldi	r24, 0x08	; 8
     ee4:	df 01       	movw	r26, r30
     ee6:	1d 92       	st	X+, r1
     ee8:	8a 95       	dec	r24
     eea:	e9 f7       	brne	.-6      	; 0xee6 <multiply+0x26>
     eec:	e9 82       	std	Y+1, r14	; 0x01
     eee:	8f 01       	movw	r16, r30
     ef0:	6e 01       	movw	r12, r28
     ef2:	b8 e0       	ldi	r27, 0x08	; 8
     ef4:	cb 0e       	add	r12, r27
     ef6:	d1 1c       	adc	r13, r1
	unsigned char tempmultiply = 0x00;
	for (int i = 1; i < 8; i++)
	{
		temp[i] = XTIME(temp[i - 1]);
     ef8:	f8 01       	movw	r30, r16
     efa:	81 91       	ld	r24, Z+
     efc:	8f 01       	movw	r16, r30
     efe:	d5 df       	rcall	.-86     	; 0xeaa <XTIME>
     f00:	d8 01       	movw	r26, r16
     f02:	8c 93       	st	X, r24

unsigned char multiply(unsigned char a, unsigned char b)
{
	unsigned char temp[8] = { a };
	unsigned char tempmultiply = 0x00;
	for (int i = 1; i < 8; i++)
     f04:	0c 15       	cp	r16, r12
     f06:	1d 05       	cpc	r17, r13
     f08:	b9 f7       	brne	.-18     	; 0xef8 <multiply+0x38>
	{
		temp[i] = XTIME(temp[i - 1]);
	}
	tempmultiply = (b & 0x01)*a;
     f0a:	8f 2d       	mov	r24, r15
     f0c:	81 70       	andi	r24, 0x01	; 1
     f0e:	8e 9d       	mul	r24, r14
     f10:	80 2d       	mov	r24, r0
     f12:	11 24       	eor	r1, r1
     f14:	fe 01       	movw	r30, r28
     f16:	32 96       	adiw	r30, 0x02	; 2
	for (int i = 1; i < 8; i++)
     f18:	41 e0       	ldi	r20, 0x01	; 1
     f1a:	50 e0       	ldi	r21, 0x00	; 0
	{
		tempmultiply ^= (((b >> i) & 0x01)*temp[i]);
     f1c:	6f 2d       	mov	r22, r15
     f1e:	70 e0       	ldi	r23, 0x00	; 0
     f20:	91 91       	ld	r25, Z+
     f22:	9b 01       	movw	r18, r22
     f24:	04 2e       	mov	r0, r20
     f26:	02 c0       	rjmp	.+4      	; 0xf2c <multiply+0x6c>
     f28:	35 95       	asr	r19
     f2a:	27 95       	ror	r18
     f2c:	0a 94       	dec	r0
     f2e:	e2 f7       	brpl	.-8      	; 0xf28 <multiply+0x68>
     f30:	21 70       	andi	r18, 0x01	; 1
     f32:	29 9f       	mul	r18, r25
     f34:	20 2d       	mov	r18, r0
     f36:	11 24       	eor	r1, r1
     f38:	82 27       	eor	r24, r18
	for (int i = 1; i < 8; i++)
	{
		temp[i] = XTIME(temp[i - 1]);
	}
	tempmultiply = (b & 0x01)*a;
	for (int i = 1; i < 8; i++)
     f3a:	4f 5f       	subi	r20, 0xFF	; 255
     f3c:	5f 4f       	sbci	r21, 0xFF	; 255
     f3e:	48 30       	cpi	r20, 0x08	; 8
     f40:	51 05       	cpc	r21, r1
     f42:	71 f7       	brne	.-36     	; 0xf20 <multiply+0x60>
	{
		tempmultiply ^= (((b >> i) & 0x01)*temp[i]);
	}
	return tempmultiply;
}
     f44:	28 96       	adiw	r28, 0x08	; 8
     f46:	cd bf       	out	0x3d, r28	; 61
     f48:	de bf       	out	0x3e, r29	; 62
     f4a:	df 91       	pop	r29
     f4c:	cf 91       	pop	r28
     f4e:	1f 91       	pop	r17
     f50:	0f 91       	pop	r16
     f52:	ff 90       	pop	r15
     f54:	ef 90       	pop	r14
     f56:	df 90       	pop	r13
     f58:	cf 90       	pop	r12
     f5a:	08 95       	ret

00000f5c <diffusionmodule>:

void diffusionmodule(uint8_t interarray[])
{
     f5c:	6f 92       	push	r6
     f5e:	7f 92       	push	r7
     f60:	8f 92       	push	r8
     f62:	9f 92       	push	r9
     f64:	bf 92       	push	r11
     f66:	cf 92       	push	r12
     f68:	df 92       	push	r13
     f6a:	ef 92       	push	r14
     f6c:	ff 92       	push	r15
     f6e:	0f 93       	push	r16
     f70:	1f 93       	push	r17
     f72:	cf 93       	push	r28
     f74:	df 93       	push	r29
     f76:	cd b7       	in	r28, 0x3d	; 61
     f78:	de b7       	in	r29, 0x3e	; 62
     f7a:	a0 97       	sbiw	r28, 0x20	; 32
     f7c:	cd bf       	out	0x3d, r28	; 61
     f7e:	de bf       	out	0x3e, r29	; 62
	uint8_t tem = 0, add_tem[16],mul_inv_tem[16];//去除掩码用
	add_tem[0] = add_mask[0];
     f80:	80 91 29 23 	lds	r24, 0x2329	; 0x802329 <add_mask>
     f84:	89 83       	std	Y+1, r24	; 0x01
	mul_inv_tem[15] = mul_mask_2;
     f86:	b0 90 39 24 	lds	r11, 0x2439	; 0x802439 <mul_mask_2>
     f8a:	b8 a2       	std	Y+32, r11	; 0x20
     f8c:	a9 e2       	ldi	r26, 0x29	; 41
     f8e:	b3 e2       	ldi	r27, 0x23	; 35
     f90:	08 e1       	ldi	r16, 0x18	; 24
     f92:	13 e2       	ldi	r17, 0x23	; 35
     f94:	0f 2e       	mov	r0, r31
     f96:	f8 e2       	ldi	r31, 0x28	; 40
     f98:	ef 2e       	mov	r14, r31
     f9a:	f3 e2       	ldi	r31, 0x23	; 35
     f9c:	ff 2e       	mov	r15, r31
     f9e:	f0 2d       	mov	r31, r0
     fa0:	f8 01       	movw	r30, r16
	for (uint8_t i = 0; i < 16; i++)//为加法增加掩码
	{
		intermediate[i] ^= add_mask[i] ;
     fa2:	8d 91       	ld	r24, X+
     fa4:	90 81       	ld	r25, Z
     fa6:	89 27       	eor	r24, r25
     fa8:	81 93       	st	Z+, r24
void diffusionmodule(uint8_t interarray[])
{
	uint8_t tem = 0, add_tem[16],mul_inv_tem[16];//去除掩码用
	add_tem[0] = add_mask[0];
	mul_inv_tem[15] = mul_mask_2;
	for (uint8_t i = 0; i < 16; i++)//为加法增加掩码
     faa:	ee 15       	cp	r30, r14
     fac:	ff 05       	cpc	r31, r15
     fae:	c9 f7       	brne	.-14     	; 0xfa2 <diffusionmodule+0x46>
	{
		intermediate[i] ^= add_mask[i] ;
	}
	for (uint8_t i=0;i<16;i++)
	{
		intermediate[i]	^= s_mask_2;
     fb0:	90 91 3a 24 	lds	r25, 0x243A	; 0x80243a <s_mask_2>
     fb4:	e8 e1       	ldi	r30, 0x18	; 24
     fb6:	f3 e2       	ldi	r31, 0x23	; 35
     fb8:	80 81       	ld	r24, Z
     fba:	89 27       	eor	r24, r25
     fbc:	81 93       	st	Z+, r24
	mul_inv_tem[15] = mul_mask_2;
	for (uint8_t i = 0; i < 16; i++)//为加法增加掩码
	{
		intermediate[i] ^= add_mask[i] ;
	}
	for (uint8_t i=0;i<16;i++)
     fbe:	ee 15       	cp	r30, r14
     fc0:	ff 05       	cpc	r31, r15
     fc2:	d1 f7       	brne	.-12     	; 0xfb8 <diffusionmodule+0x5c>
     fc4:	0f 2e       	mov	r0, r31
     fc6:	f9 e1       	ldi	r31, 0x19	; 25
     fc8:	cf 2e       	mov	r12, r31
     fca:	f3 e2       	ldi	r31, 0x23	; 35
     fcc:	df 2e       	mov	r13, r31
     fce:	f0 2d       	mov	r31, r0
     fd0:	6a e2       	ldi	r22, 0x2A	; 42
     fd2:	73 e2       	ldi	r23, 0x23	; 35
     fd4:	fe 01       	movw	r30, r28
     fd6:	31 96       	adiw	r30, 0x01	; 1
     fd8:	3f 01       	movw	r6, r30
     fda:	a6 01       	movw	r20, r12
     fdc:	28 e1       	ldi	r18, 0x18	; 24
     fde:	33 e2       	ldi	r19, 0x23	; 35
     fe0:	9f e0       	ldi	r25, 0x0F	; 15
	{
		intermediate[i]	^= s_mask_2;
	}
	for (uint8_t i = 1; i < 16; i++)//加法扩散（正向）
	{
		intermediate[i] ^= intermediate[i - 1];
     fe2:	d6 01       	movw	r26, r12
     fe4:	9d 90       	ld	r9, X+
     fe6:	6d 01       	movw	r12, r26
     fe8:	d9 01       	movw	r26, r18
     fea:	8d 91       	ld	r24, X+
     fec:	9d 01       	movw	r18, r26
     fee:	89 25       	eor	r24, r9
     ff0:	da 01       	movw	r26, r20
     ff2:	8d 93       	st	X+, r24
     ff4:	ad 01       	movw	r20, r26
		add_tem[i] = add_mask[i] ^ add_tem[i - 1];
     ff6:	db 01       	movw	r26, r22
     ff8:	8d 91       	ld	r24, X+
     ffa:	bd 01       	movw	r22, r26
     ffc:	d3 01       	movw	r26, r6
     ffe:	9c 90       	ld	r9, X
    1000:	89 25       	eor	r24, r9
    1002:	11 96       	adiw	r26, 0x01	; 1
    1004:	8c 93       	st	X, r24
    1006:	91 50       	subi	r25, 0x01	; 1
    1008:	bf ef       	ldi	r27, 0xFF	; 255
    100a:	6b 1a       	sub	r6, r27
    100c:	7b 0a       	sbc	r7, r27
	}
	for (uint8_t i=0;i<16;i++)
	{
		intermediate[i]	^= s_mask_2;
	}
	for (uint8_t i = 1; i < 16; i++)//加法扩散（正向）
    100e:	91 11       	cpse	r25, r1
    1010:	e8 cf       	rjmp	.-48     	; 0xfe2 <diffusionmodule+0x86>
		intermediate[i] ^= intermediate[i - 1];
		add_tem[i] = add_mask[i] ^ add_tem[i - 1];
	}
	for (uint8_t i = 0; i < 16; i++)//将加法掩码转化为乘法掩码
	{
		add_tem[i] ^= mul_mask_1;
    1012:	80 91 3b 24 	lds	r24, 0x243B	; 0x80243b <mul_mask_1>
    1016:	ae 01       	movw	r20, r28
    1018:	4f 5e       	subi	r20, 0xEF	; 239
    101a:	5f 4f       	sbci	r21, 0xFF	; 255
    101c:	a8 e1       	ldi	r26, 0x18	; 24
    101e:	b3 e2       	ldi	r27, 0x23	; 35
    1020:	90 81       	ld	r25, Z
    1022:	98 27       	eor	r25, r24
    1024:	91 93       	st	Z+, r25
		intermediate[i] ^= add_tem[i];
    1026:	2c 91       	ld	r18, X
    1028:	92 27       	eor	r25, r18
    102a:	9d 93       	st	X+, r25
	for (uint8_t i = 1; i < 16; i++)//加法扩散（正向）
	{
		intermediate[i] ^= intermediate[i - 1];
		add_tem[i] = add_mask[i] ^ add_tem[i - 1];
	}
	for (uint8_t i = 0; i < 16; i++)//将加法掩码转化为乘法掩码
    102c:	e4 17       	cp	r30, r20
    102e:	f5 07       	cpc	r31, r21
    1030:	b9 f7       	brne	.-18     	; 0x1020 <diffusionmodule+0xc4>
	{
		add_tem[i] ^= mul_mask_1;
		intermediate[i] ^= add_tem[i];
	}
	//对乘法掩码
	uint8_t mul_temp = multiply(mul_mask_1, mul_mask_2);
    1032:	6b 2d       	mov	r22, r11
    1034:	45 df       	rcall	.-374    	; 0xec0 <multiply>
    1036:	98 2e       	mov	r9, r24
    1038:	0f 2e       	mov	r0, r31
    103a:	f8 e1       	ldi	r31, 0x18	; 24
    103c:	cf 2e       	mov	r12, r31
    103e:	f3 e2       	ldi	r31, 0x23	; 35
    1040:	df 2e       	mov	r13, r31
    1042:	f0 2d       	mov	r31, r0
	for (uint8_t i = 0; i < 16; i++)
	{
		intermediate[i] = multiply(intermediate[i], mul_mask_2);
    1044:	6b 2d       	mov	r22, r11
    1046:	f6 01       	movw	r30, r12
    1048:	80 81       	ld	r24, Z
    104a:	3a df       	rcall	.-396    	; 0xec0 <multiply>
		intermediate[i] ^= mul_temp;
    104c:	89 25       	eor	r24, r9
    104e:	d6 01       	movw	r26, r12
    1050:	8d 93       	st	X+, r24
    1052:	6d 01       	movw	r12, r26
		add_tem[i] ^= mul_mask_1;
		intermediate[i] ^= add_tem[i];
	}
	//对乘法掩码
	uint8_t mul_temp = multiply(mul_mask_1, mul_mask_2);
	for (uint8_t i = 0; i < 16; i++)
    1054:	ae 15       	cp	r26, r14
    1056:	bf 05       	cpc	r27, r15
    1058:	a9 f7       	brne	.-22     	; 0x1044 <diffusionmodule+0xe8>
    105a:	6e 01       	movw	r12, r28
    105c:	bf e1       	ldi	r27, 0x1F	; 31
    105e:	cb 0e       	add	r12, r27
    1060:	d1 1c       	adc	r13, r1
    1062:	0f 2e       	mov	r0, r31
    1064:	f6 e2       	ldi	r31, 0x26	; 38
    1066:	6f 2e       	mov	r6, r31
    1068:	f3 e2       	ldi	r31, 0x23	; 35
    106a:	7f 2e       	mov	r7, r31
    106c:	f0 2d       	mov	r31, r0
    106e:	4e 01       	movw	r8, r28
    1070:	e0 e1       	ldi	r30, 0x10	; 16
    1072:	8e 0e       	add	r8, r30
    1074:	91 1c       	adc	r9, r1
		intermediate[i] = multiply(intermediate[i], mul_mask_2);
		intermediate[i] ^= mul_temp;
	}
	for (uint8_t i = 15; i > 0; i--)//乘法扩散（反向）
	{
		if (intermediate[i] == 0)
    1076:	d3 01       	movw	r26, r6
    1078:	11 96       	adiw	r26, 0x01	; 1
    107a:	8c 91       	ld	r24, X
    107c:	81 11       	cpse	r24, r1
    107e:	03 c0       	rjmp	.+6      	; 0x1086 <diffusionmodule+0x12a>
		{
			tem = multiply(intermediate[i - 1], intermediate[i - 1]);
			mul_inv_tem[i - 1] = mul_mask_2;
    1080:	f6 01       	movw	r30, r12
    1082:	b0 82       	st	Z, r11
    1084:	0c c0       	rjmp	.+24     	; 0x109e <diffusionmodule+0x142>
		}
		else
		{
			intermediate[i - 1] = multiply(intermediate[i], intermediate[i - 1]);
    1086:	d3 01       	movw	r26, r6
    1088:	6c 91       	ld	r22, X
    108a:	1a df       	rcall	.-460    	; 0xec0 <multiply>
    108c:	f3 01       	movw	r30, r6
    108e:	80 83       	st	Z, r24
			mul_inv_tem[i - 1] = multiply(mul_mask_2, mul_inv_tem[i]);
    1090:	d6 01       	movw	r26, r12
    1092:	11 96       	adiw	r26, 0x01	; 1
    1094:	6c 91       	ld	r22, X
    1096:	8b 2d       	mov	r24, r11
    1098:	13 df       	rcall	.-474    	; 0xec0 <multiply>
    109a:	f6 01       	movw	r30, r12
    109c:	80 83       	st	Z, r24
    109e:	f1 e0       	ldi	r31, 0x01	; 1
    10a0:	cf 1a       	sub	r12, r31
    10a2:	d1 08       	sbc	r13, r1
    10a4:	81 e0       	ldi	r24, 0x01	; 1
    10a6:	68 1a       	sub	r6, r24
    10a8:	71 08       	sbc	r7, r1
	for (uint8_t i = 0; i < 16; i++)
	{
		intermediate[i] = multiply(intermediate[i], mul_mask_2);
		intermediate[i] ^= mul_temp;
	}
	for (uint8_t i = 15; i > 0; i--)//乘法扩散（反向）
    10aa:	8c 14       	cp	r8, r12
    10ac:	9d 04       	cpc	r9, r13
    10ae:	19 f7       	brne	.-58     	; 0x1076 <diffusionmodule+0x11a>
		}
	}

	for (uint8_t i = 0; i < 16; i++)
	{
		intermediate[i] ^= multiply(s_mask_1, mul_inv_tem[i]);
    10b0:	90 90 28 23 	lds	r9, 0x2328	; 0x802328 <s_mask_1>
    10b4:	6e 01       	movw	r12, r28
    10b6:	a1 e1       	ldi	r26, 0x11	; 17
    10b8:	ca 0e       	add	r12, r26
    10ba:	d1 1c       	adc	r13, r1
    10bc:	f6 01       	movw	r30, r12
    10be:	b1 90       	ld	r11, Z+
    10c0:	6f 01       	movw	r12, r30
    10c2:	6b 2d       	mov	r22, r11
    10c4:	89 2d       	mov	r24, r9
    10c6:	fc de       	rcall	.-520    	; 0xec0 <multiply>
		intermediate[i] = multiply(intermediate[i], inv[mul_inv_tem[i]]);
    10c8:	eb 2d       	mov	r30, r11
    10ca:	f0 e0       	ldi	r31, 0x00	; 0
    10cc:	e9 5e       	subi	r30, 0xE9	; 233
    10ce:	ff 4d       	sbci	r31, 0xDF	; 223
    10d0:	d8 01       	movw	r26, r16
    10d2:	9c 91       	ld	r25, X
    10d4:	60 81       	ld	r22, Z
    10d6:	89 27       	eor	r24, r25
    10d8:	f3 de       	rcall	.-538    	; 0xec0 <multiply>
    10da:	f8 01       	movw	r30, r16
    10dc:	81 93       	st	Z+, r24
    10de:	8f 01       	movw	r16, r30
			intermediate[i - 1] = multiply(intermediate[i], intermediate[i - 1]);
			mul_inv_tem[i - 1] = multiply(mul_mask_2, mul_inv_tem[i]);
		}
	}

	for (uint8_t i = 0; i < 16; i++)
    10e0:	ee 15       	cp	r30, r14
    10e2:	ff 05       	cpc	r31, r15
    10e4:	59 f7       	brne	.-42     	; 0x10bc <diffusionmodule+0x160>
	{
		intermediate[i] ^= multiply(s_mask_1, mul_inv_tem[i]);
		intermediate[i] = multiply(intermediate[i], inv[mul_inv_tem[i]]);
	}
}
    10e6:	a0 96       	adiw	r28, 0x20	; 32
    10e8:	cd bf       	out	0x3d, r28	; 61
    10ea:	de bf       	out	0x3e, r29	; 62
    10ec:	df 91       	pop	r29
    10ee:	cf 91       	pop	r28
    10f0:	1f 91       	pop	r17
    10f2:	0f 91       	pop	r16
    10f4:	ff 90       	pop	r15
    10f6:	ef 90       	pop	r14
    10f8:	df 90       	pop	r13
    10fa:	cf 90       	pop	r12
    10fc:	bf 90       	pop	r11
    10fe:	9f 90       	pop	r9
    1100:	8f 90       	pop	r8
    1102:	7f 90       	pop	r7
    1104:	6f 90       	pop	r6
    1106:	08 95       	ret

00001108 <catmap>:
//****************************猫映射*****************************//
void catmap(uint8_t origin[], uint8_t count, uint8_t a, uint8_t b)//a,b:猫映射系数
{
    1108:	3f 92       	push	r3
    110a:	4f 92       	push	r4
    110c:	5f 92       	push	r5
    110e:	6f 92       	push	r6
    1110:	7f 92       	push	r7
    1112:	8f 92       	push	r8
    1114:	9f 92       	push	r9
    1116:	af 92       	push	r10
    1118:	bf 92       	push	r11
    111a:	cf 92       	push	r12
    111c:	df 92       	push	r13
    111e:	ef 92       	push	r14
    1120:	ff 92       	push	r15
    1122:	0f 93       	push	r16
    1124:	1f 93       	push	r17
    1126:	cf 93       	push	r28
    1128:	df 93       	push	r29
    112a:	cd b7       	in	r28, 0x3d	; 61
    112c:	de b7       	in	r29, 0x3e	; 62
    112e:	60 97       	sbiw	r28, 0x10	; 16
    1130:	cd bf       	out	0x3d, r28	; 61
    1132:	de bf       	out	0x3e, r29	; 62
    1134:	8c 01       	movw	r16, r24
	uint8_t dest[16];//目标数组
	//uint8_t orix = 0, oriy = 0, desx = 0, desy = 0;//origin x,y  dest x,y
	while (count>0)
    1136:	61 11       	cpse	r22, r1
    1138:	6c c0       	rjmp	.+216    	; 0x1212 <catmap+0x10a>
    113a:	7f c0       	rjmp	.+254    	; 0x123a <catmap+0x132>
    113c:	2f 5f       	subi	r18, 0xFF	; 255
	{
		for (uint8_t index = 0; index<16; index++)
		{
			switch (index)
    113e:	8f ef       	ldi	r24, 0xFF	; 255
    1140:	82 0f       	add	r24, r18
    1142:	90 e0       	ldi	r25, 0x00	; 0
    1144:	80 31       	cpi	r24, 0x10	; 16
    1146:	91 05       	cpc	r25, r1
    1148:	08 f0       	brcs	.+2      	; 0x114c <catmap+0x44>
    114a:	46 c0       	rjmp	.+140    	; 0x11d8 <catmap+0xd0>
    114c:	fc 01       	movw	r30, r24
    114e:	88 27       	eor	r24, r24
    1150:	ea 54       	subi	r30, 0x4A	; 74
    1152:	ff 4f       	sbci	r31, 0xFF	; 255
    1154:	8f 4f       	sbci	r24, 0xFF	; 255
    1156:	a9 c7       	rjmp	.+3922   	; 0x20aa <__tablejump2__>
			{
				case 0:dest[index] = origin[0]; break;
    1158:	f8 01       	movw	r30, r16
    115a:	30 81       	ld	r19, Z
    115c:	ef cf       	rjmp	.-34     	; 0x113c <catmap+0x34>
				case 1:dest[index] = origin[14]; break;
    115e:	f8 01       	movw	r30, r16
    1160:	76 85       	ldd	r23, Z+14	; 0x0e
    1162:	ec cf       	rjmp	.-40     	; 0x113c <catmap+0x34>
				case 2:dest[index] = origin[8]; break;
    1164:	f8 01       	movw	r30, r16
    1166:	f0 84       	ldd	r15, Z+8	; 0x08
    1168:	e9 cf       	rjmp	.-46     	; 0x113c <catmap+0x34>
				case 3:dest[index] = origin[6]; break;
    116a:	f8 01       	movw	r30, r16
    116c:	e6 80       	ldd	r14, Z+6	; 0x06
    116e:	e6 cf       	rjmp	.-52     	; 0x113c <catmap+0x34>
				case 4:dest[index] = origin[7]; break;
    1170:	f8 01       	movw	r30, r16
    1172:	d7 80       	ldd	r13, Z+7	; 0x07
    1174:	e3 cf       	rjmp	.-58     	; 0x113c <catmap+0x34>
				case 5:dest[index] = origin[1]; break;
    1176:	f8 01       	movw	r30, r16
    1178:	c1 80       	ldd	r12, Z+1	; 0x01
    117a:	e0 cf       	rjmp	.-64     	; 0x113c <catmap+0x34>
				case 6:dest[index] = origin[15]; break;
    117c:	f8 01       	movw	r30, r16
    117e:	b7 84       	ldd	r11, Z+15	; 0x0f
    1180:	dd cf       	rjmp	.-70     	; 0x113c <catmap+0x34>
				case 7:dest[index] = origin[9]; break;
    1182:	f8 01       	movw	r30, r16
    1184:	a1 84       	ldd	r10, Z+9	; 0x09
    1186:	da cf       	rjmp	.-76     	; 0x113c <catmap+0x34>
				case 8:dest[index] = origin[10]; break;
    1188:	f8 01       	movw	r30, r16
    118a:	92 84       	ldd	r9, Z+10	; 0x0a
    118c:	d7 cf       	rjmp	.-82     	; 0x113c <catmap+0x34>
				case 9:dest[index] = origin[4]; break;
    118e:	f8 01       	movw	r30, r16
    1190:	84 80       	ldd	r8, Z+4	; 0x04
    1192:	d4 cf       	rjmp	.-88     	; 0x113c <catmap+0x34>
				case 10:dest[index] = origin[2]; break;
    1194:	f8 01       	movw	r30, r16
    1196:	72 80       	ldd	r7, Z+2	; 0x02
    1198:	d1 cf       	rjmp	.-94     	; 0x113c <catmap+0x34>
				case 11:dest[index] = origin[12]; break;
    119a:	f8 01       	movw	r30, r16
    119c:	64 84       	ldd	r6, Z+12	; 0x0c
    119e:	ce cf       	rjmp	.-100    	; 0x113c <catmap+0x34>
				case 12:dest[index] = origin[13]; break;
    11a0:	f8 01       	movw	r30, r16
    11a2:	55 84       	ldd	r5, Z+13	; 0x0d
    11a4:	cb cf       	rjmp	.-106    	; 0x113c <catmap+0x34>
				case 13:dest[index] = origin[11]; break;
    11a6:	f8 01       	movw	r30, r16
    11a8:	43 84       	ldd	r4, Z+11	; 0x0b
    11aa:	c8 cf       	rjmp	.-112    	; 0x113c <catmap+0x34>
				case 14:dest[index] = origin[5]; break;
    11ac:	f8 01       	movw	r30, r16
    11ae:	35 80       	ldd	r3, Z+5	; 0x05
    11b0:	c5 cf       	rjmp	.-118    	; 0x113c <catmap+0x34>
    11b2:	39 83       	std	Y+1, r19	; 0x01
    11b4:	7a 83       	std	Y+2, r23	; 0x02
    11b6:	fb 82       	std	Y+3, r15	; 0x03
    11b8:	ec 82       	std	Y+4, r14	; 0x04
    11ba:	dd 82       	std	Y+5, r13	; 0x05
    11bc:	ce 82       	std	Y+6, r12	; 0x06
    11be:	a8 86       	std	Y+8, r10	; 0x08
    11c0:	99 86       	std	Y+9, r9	; 0x09
    11c2:	8a 86       	std	Y+10, r8	; 0x0a
    11c4:	7b 86       	std	Y+11, r7	; 0x0b
    11c6:	6c 86       	std	Y+12, r6	; 0x0c
    11c8:	5d 86       	std	Y+13, r5	; 0x0d
    11ca:	4e 86       	std	Y+14, r4	; 0x0e
    11cc:	3f 86       	std	Y+15, r3	; 0x0f
    11ce:	bf 82       	std	Y+7, r11	; 0x07
				case 15:dest[index] = origin[3]; break;
    11d0:	f8 01       	movw	r30, r16
    11d2:	83 81       	ldd	r24, Z+3	; 0x03
    11d4:	88 8b       	std	Y+16, r24	; 0x10
    11d6:	12 c0       	rjmp	.+36     	; 0x11fc <catmap+0xf4>
{
	uint8_t dest[16];//目标数组
	//uint8_t orix = 0, oriy = 0, desx = 0, desy = 0;//origin x,y  dest x,y
	while (count>0)
	{
		for (uint8_t index = 0; index<16; index++)
    11d8:	20 31       	cpi	r18, 0x10	; 16
    11da:	08 f4       	brcc	.+2      	; 0x11de <catmap+0xd6>
    11dc:	af cf       	rjmp	.-162    	; 0x113c <catmap+0x34>
    11de:	39 83       	std	Y+1, r19	; 0x01
    11e0:	7a 83       	std	Y+2, r23	; 0x02
    11e2:	fb 82       	std	Y+3, r15	; 0x03
    11e4:	ec 82       	std	Y+4, r14	; 0x04
    11e6:	dd 82       	std	Y+5, r13	; 0x05
    11e8:	ce 82       	std	Y+6, r12	; 0x06
    11ea:	a8 86       	std	Y+8, r10	; 0x08
    11ec:	99 86       	std	Y+9, r9	; 0x09
    11ee:	8a 86       	std	Y+10, r8	; 0x0a
    11f0:	7b 86       	std	Y+11, r7	; 0x0b
    11f2:	6c 86       	std	Y+12, r6	; 0x0c
    11f4:	5d 86       	std	Y+13, r5	; 0x0d
    11f6:	4e 86       	std	Y+14, r4	; 0x0e
    11f8:	3f 86       	std	Y+15, r3	; 0x0f
    11fa:	bf 82       	std	Y+7, r11	; 0x07
    11fc:	fe 01       	movw	r30, r28
    11fe:	31 96       	adiw	r30, 0x01	; 1
    1200:	d8 01       	movw	r26, r16
				case 15:dest[index] = origin[3]; break;
			}
		}
		for (uint8_t index = 0; index < 16; index++)
		{
			origin[index] = dest[index];
    1202:	81 91       	ld	r24, Z+
    1204:	8d 93       	st	X+, r24
				case 13:dest[index] = origin[11]; break;
				case 14:dest[index] = origin[5]; break;
				case 15:dest[index] = origin[3]; break;
			}
		}
		for (uint8_t index = 0; index < 16; index++)
    1206:	e4 17       	cp	r30, r20
    1208:	f5 07       	cpc	r31, r21
    120a:	d9 f7       	brne	.-10     	; 0x1202 <catmap+0xfa>
		{
			origin[index] = dest[index];
		}
		count--;
    120c:	61 50       	subi	r22, 0x01	; 1
//****************************猫映射*****************************//
void catmap(uint8_t origin[], uint8_t count, uint8_t a, uint8_t b)//a,b:猫映射系数
{
	uint8_t dest[16];//目标数组
	//uint8_t orix = 0, oriy = 0, desx = 0, desy = 0;//origin x,y  dest x,y
	while (count>0)
    120e:	21 f4       	brne	.+8      	; 0x1218 <catmap+0x110>
    1210:	14 c0       	rjmp	.+40     	; 0x123a <catmap+0x132>
    1212:	ae 01       	movw	r20, r28
    1214:	4f 5e       	subi	r20, 0xEF	; 239
    1216:	5f 4f       	sbci	r21, 0xFF	; 255
    1218:	3f 84       	ldd	r3, Y+15	; 0x0f
    121a:	4e 84       	ldd	r4, Y+14	; 0x0e
    121c:	5d 84       	ldd	r5, Y+13	; 0x0d
    121e:	6c 84       	ldd	r6, Y+12	; 0x0c
    1220:	7b 84       	ldd	r7, Y+11	; 0x0b
    1222:	8a 84       	ldd	r8, Y+10	; 0x0a
    1224:	99 84       	ldd	r9, Y+9	; 0x09
    1226:	a8 84       	ldd	r10, Y+8	; 0x08
    1228:	bf 80       	ldd	r11, Y+7	; 0x07
    122a:	ce 80       	ldd	r12, Y+6	; 0x06
    122c:	dd 80       	ldd	r13, Y+5	; 0x05
    122e:	ec 80       	ldd	r14, Y+4	; 0x04
    1230:	fb 80       	ldd	r15, Y+3	; 0x03
    1232:	7a 81       	ldd	r23, Y+2	; 0x02
    1234:	39 81       	ldd	r19, Y+1	; 0x01
		intermediate[i] = multiply(intermediate[i], inv[mul_inv_tem[i]]);
	}
}
//****************************猫映射*****************************//
void catmap(uint8_t origin[], uint8_t count, uint8_t a, uint8_t b)//a,b:猫映射系数
{
    1236:	21 e0       	ldi	r18, 0x01	; 1
    1238:	82 cf       	rjmp	.-252    	; 0x113e <catmap+0x36>
		{
			origin[index] = dest[index];
		}
		count--;
	}
}
    123a:	60 96       	adiw	r28, 0x10	; 16
    123c:	cd bf       	out	0x3d, r28	; 61
    123e:	de bf       	out	0x3e, r29	; 62
    1240:	df 91       	pop	r29
    1242:	cf 91       	pop	r28
    1244:	1f 91       	pop	r17
    1246:	0f 91       	pop	r16
    1248:	ff 90       	pop	r15
    124a:	ef 90       	pop	r14
    124c:	df 90       	pop	r13
    124e:	cf 90       	pop	r12
    1250:	bf 90       	pop	r11
    1252:	af 90       	pop	r10
    1254:	9f 90       	pop	r9
    1256:	8f 90       	pop	r8
    1258:	7f 90       	pop	r7
    125a:	6f 90       	pop	r6
    125c:	5f 90       	pop	r5
    125e:	4f 90       	pop	r4
    1260:	3f 90       	pop	r3
    1262:	08 95       	ret

00001264 <encryption>:
void encryptionInit( void )
{
	roundKeyGen((float)0.5987, RDKey);
}
void encryption(uint8_t ciphertext[], uint8_t plaintext[])
{
    1264:	af 92       	push	r10
    1266:	bf 92       	push	r11
    1268:	cf 92       	push	r12
    126a:	df 92       	push	r13
    126c:	ef 92       	push	r14
    126e:	ff 92       	push	r15
    1270:	0f 93       	push	r16
    1272:	1f 93       	push	r17
    1274:	cf 93       	push	r28
    1276:	df 93       	push	r29
    1278:	a8 2e       	mov	r10, r24
    127a:	b9 2e       	mov	r11, r25
    127c:	db 01       	movw	r26, r22
    127e:	c8 e1       	ldi	r28, 0x18	; 24
    1280:	d3 e2       	ldi	r29, 0x23	; 35
    1282:	08 e2       	ldi	r16, 0x28	; 40
    1284:	13 e2       	ldi	r17, 0x23	; 35
    1286:	fe 01       	movw	r30, r28
	for (uint8_t i = 0; i < 16; i++)
		intermediate[i] = plaintext[i];
    1288:	8d 91       	ld	r24, X+
    128a:	81 93       	st	Z+, r24
{
	roundKeyGen((float)0.5987, RDKey);
}
void encryption(uint8_t ciphertext[], uint8_t plaintext[])
{
	for (uint8_t i = 0; i < 16; i++)
    128c:	e0 17       	cp	r30, r16
    128e:	f1 07       	cpc	r31, r17
    1290:	d9 f7       	brne	.-10     	; 0x1288 <encryption+0x24>
		intermediate[i] = plaintext[i];

	////////////////////////////////////////////////////////////////////////////////////
	mask_gen(seed);//掩码生成
    1292:	60 91 18 22 	lds	r22, 0x2218	; 0x802218 <__data_end>
    1296:	70 91 19 22 	lds	r23, 0x2219	; 0x802219 <__data_end+0x1>
    129a:	80 91 1a 22 	lds	r24, 0x221A	; 0x80221a <__data_end+0x2>
    129e:	90 91 1b 22 	lds	r25, 0x221B	; 0x80221b <__data_end+0x3>
    12a2:	4e dc       	rcall	.-1892   	; 0xb40 <mask_gen>
	cons_sbox(s_mask_1, s_mask_2);//生成新sbox
    12a4:	60 91 3a 24 	lds	r22, 0x243A	; 0x80243a <s_mask_2>
    12a8:	80 91 28 23 	lds	r24, 0x2328	; 0x802328 <s_mask_1>
    12ac:	c3 dd       	rcall	.-1146   	; 0xe34 <cons_sbox>
    12ae:	81 e0       	ldi	r24, 0x01	; 1
    12b0:	80 93 05 06 	sts	0x0605, r24	; 0x800605 <__TEXT_REGION_LENGTH__+0x700605>
	ioport_set_pin_high(TRIGGER);//置高 PA0，触发能耗统计
	mask_all(intermediate, s_mask_1);//
    12b4:	60 91 28 23 	lds	r22, 0x2328	; 0x802328 <s_mask_1>
    12b8:	88 e1       	ldi	r24, 0x18	; 24
    12ba:	93 e2       	ldi	r25, 0x23	; 35
    12bc:	d0 dd       	rcall	.-1120   	; 0xe5e <mask_all>
    12be:	0f 2e       	mov	r0, r31
    12c0:	f8 ee       	ldi	r31, 0xE8	; 232
    12c2:	ef 2e       	mov	r14, r31
    12c4:	f2 e2       	ldi	r31, 0x22	; 34
    12c6:	ff 2e       	mov	r15, r31
    12c8:	f0 2d       	mov	r31, r0
    12ca:	0f 2e       	mov	r0, r31
    12cc:	f8 e1       	ldi	r31, 0x18	; 24
    12ce:	cf 2e       	mov	r12, r31
    12d0:	f3 e2       	ldi	r31, 0x23	; 35
    12d2:	df 2e       	mov	r13, r31
    12d4:	f0 2d       	mov	r31, r0
	
	for (uint8_t i = 0; i < ROUND; i++)
	{
		addroundkey(intermediate, RDKey + 16 * i);//i是指轮数，RDKey+16*i是指选择哪一轮轮密钥//
    12d6:	b7 01       	movw	r22, r14
    12d8:	88 e1       	ldi	r24, 0x18	; 24
    12da:	93 e2       	ldi	r25, 0x23	; 35
    12dc:	cb dd       	rcall	.-1130   	; 0xe74 <addroundkey>
		getboxvalue(intermediate, msbox);//
    12de:	69 e3       	ldi	r22, 0x39	; 57
    12e0:	73 e2       	ldi	r23, 0x23	; 35
    12e2:	88 e1       	ldi	r24, 0x18	; 24
    12e4:	93 e2       	ldi	r25, 0x23	; 35
		diffusionmodule(intermediate);
    12e6:	d3 dd       	rcall	.-1114   	; 0xe8e <getboxvalue>
    12e8:	88 e1       	ldi	r24, 0x18	; 24
    12ea:	93 e2       	ldi	r25, 0x23	; 35
		catmap(intermediate, 1, 1, 1);
    12ec:	37 de       	rcall	.-914    	; 0xf5c <diffusionmodule>
    12ee:	21 e0       	ldi	r18, 0x01	; 1
    12f0:	41 e0       	ldi	r20, 0x01	; 1
    12f2:	61 e0       	ldi	r22, 0x01	; 1
    12f4:	88 e1       	ldi	r24, 0x18	; 24
    12f6:	93 e2       	ldi	r25, 0x23	; 35
    12f8:	07 df       	rcall	.-498    	; 0x1108 <catmap>
    12fa:	80 e1       	ldi	r24, 0x10	; 16
    12fc:	e8 0e       	add	r14, r24
    12fe:	f1 1c       	adc	r15, r1
	mask_gen(seed);//掩码生成
	cons_sbox(s_mask_1, s_mask_2);//生成新sbox
	ioport_set_pin_high(TRIGGER);//置高 PA0，触发能耗统计
	mask_all(intermediate, s_mask_1);//
	
	for (uint8_t i = 0; i < ROUND; i++)
    1300:	ec 14       	cp	r14, r12
    1302:	fd 04       	cpc	r15, r13
		addroundkey(intermediate, RDKey + 16 * i);//i是指轮数，RDKey+16*i是指选择哪一轮轮密钥//
		getboxvalue(intermediate, msbox);//
		diffusionmodule(intermediate);
		catmap(intermediate, 1, 1, 1);
	}
	mask_all(intermediate,s_mask_1);
    1304:	41 f7       	brne	.-48     	; 0x12d6 <encryption+0x72>
    1306:	60 91 28 23 	lds	r22, 0x2328	; 0x802328 <s_mask_1>
    130a:	88 e1       	ldi	r24, 0x18	; 24
    130c:	93 e2       	ldi	r25, 0x23	; 35
    130e:	a7 dd       	rcall	.-1202   	; 0xe5e <mask_all>
	} else {
		base->OUTCLR = arch_ioport_pin_to_mask(pin);
    1310:	81 e0       	ldi	r24, 0x01	; 1
    1312:	80 93 06 06 	sts	0x0606, r24	; 0x800606 <__TEXT_REGION_LENGTH__+0x700606>
    1316:	ea 2d       	mov	r30, r10
    1318:	fb 2d       	mov	r31, r11
	
	ioport_set_pin_low(TRIGGER);//置零 PA0，触发能耗统计停止
	
	for (uint8_t i = 0; i < 16; i++)
		ciphertext[i] = intermediate[i];
    131a:	89 91       	ld	r24, Y+
    131c:	81 93       	st	Z+, r24
	}
	mask_all(intermediate,s_mask_1);
	
	ioport_set_pin_low(TRIGGER);//置零 PA0，触发能耗统计停止
	
	for (uint8_t i = 0; i < 16; i++)
    131e:	c0 17       	cp	r28, r16
    1320:	d1 07       	cpc	r29, r17
    1322:	d9 f7       	brne	.-10     	; 0x131a <encryption+0xb6>
		ciphertext[i] = intermediate[i];
}
    1324:	df 91       	pop	r29
    1326:	cf 91       	pop	r28
    1328:	1f 91       	pop	r17
    132a:	0f 91       	pop	r16
    132c:	ff 90       	pop	r15
    132e:	ef 90       	pop	r14
    1330:	df 90       	pop	r13
    1332:	cf 90       	pop	r12
    1334:	bf 90       	pop	r11
    1336:	af 90       	pop	r10
    1338:	08 95       	ret

0000133a <sysclk_init>:
    133a:	cf 93       	push	r28
    133c:	df 93       	push	r29
    133e:	1f 92       	push	r1
    1340:	1f 92       	push	r1
    1342:	cd b7       	in	r28, 0x3d	; 61
    1344:	de b7       	in	r29, 0x3e	; 62
    1346:	8f ef       	ldi	r24, 0xFF	; 255
    1348:	80 93 70 00 	sts	0x0070, r24	; 0x800070 <__TEXT_REGION_LENGTH__+0x700070>
    134c:	80 93 71 00 	sts	0x0071, r24	; 0x800071 <__TEXT_REGION_LENGTH__+0x700071>
    1350:	80 93 72 00 	sts	0x0072, r24	; 0x800072 <__TEXT_REGION_LENGTH__+0x700072>
    1354:	80 93 73 00 	sts	0x0073, r24	; 0x800073 <__TEXT_REGION_LENGTH__+0x700073>
    1358:	80 93 74 00 	sts	0x0074, r24	; 0x800074 <__TEXT_REGION_LENGTH__+0x700074>
    135c:	80 93 75 00 	sts	0x0075, r24	; 0x800075 <__TEXT_REGION_LENGTH__+0x700075>
    1360:	80 93 76 00 	sts	0x0076, r24	; 0x800076 <__TEXT_REGION_LENGTH__+0x700076>
    1364:	e0 e5       	ldi	r30, 0x50	; 80
    1366:	f0 e0       	ldi	r31, 0x00	; 0
    1368:	12 82       	std	Z+2, r1	; 0x02
    136a:	8f b7       	in	r24, 0x3f	; 63
    136c:	8a 83       	std	Y+2, r24	; 0x02
    136e:	f8 94       	cli
    1370:	9a 81       	ldd	r25, Y+2	; 0x02
    1372:	80 81       	ld	r24, Z
    1374:	88 60       	ori	r24, 0x08	; 8
    1376:	80 83       	st	Z, r24
    1378:	9f bf       	out	0x3f, r25	; 63
    137a:	81 81       	ldd	r24, Z+1	; 0x01
    137c:	83 ff       	sbrs	r24, 3
    137e:	fd cf       	rjmp	.-6      	; 0x137a <sysclk_init+0x40>
    1380:	63 e0       	ldi	r22, 0x03	; 3
    1382:	80 e4       	ldi	r24, 0x40	; 64
    1384:	90 e0       	ldi	r25, 0x00	; 0
    1386:	53 d4       	rcall	.+2214   	; 0x1c2e <ccp_write_io>
    1388:	8f b7       	in	r24, 0x3f	; 63
    138a:	89 83       	std	Y+1, r24	; 0x01
    138c:	f8 94       	cli
    138e:	99 81       	ldd	r25, Y+1	; 0x01
    1390:	e0 e5       	ldi	r30, 0x50	; 80
    1392:	f0 e0       	ldi	r31, 0x00	; 0
    1394:	80 81       	ld	r24, Z
    1396:	8e 7f       	andi	r24, 0xFE	; 254
    1398:	80 83       	st	Z, r24
    139a:	9f bf       	out	0x3f, r25	; 63
    139c:	0f 90       	pop	r0
    139e:	0f 90       	pop	r0
    13a0:	df 91       	pop	r29
    13a2:	cf 91       	pop	r28
    13a4:	08 95       	ret

000013a6 <sysclk_enable_module>:
    13a6:	cf 93       	push	r28
    13a8:	df 93       	push	r29
    13aa:	1f 92       	push	r1
    13ac:	cd b7       	in	r28, 0x3d	; 61
    13ae:	de b7       	in	r29, 0x3e	; 62
    13b0:	9f b7       	in	r25, 0x3f	; 63
    13b2:	99 83       	std	Y+1, r25	; 0x01
    13b4:	f8 94       	cli
    13b6:	99 81       	ldd	r25, Y+1	; 0x01
    13b8:	e8 2f       	mov	r30, r24
    13ba:	f0 e0       	ldi	r31, 0x00	; 0
    13bc:	e0 59       	subi	r30, 0x90	; 144
    13be:	ff 4f       	sbci	r31, 0xFF	; 255
    13c0:	60 95       	com	r22
    13c2:	80 81       	ld	r24, Z
    13c4:	68 23       	and	r22, r24
    13c6:	60 83       	st	Z, r22
    13c8:	9f bf       	out	0x3f, r25	; 63
    13ca:	0f 90       	pop	r0
    13cc:	df 91       	pop	r29
    13ce:	cf 91       	pop	r28
    13d0:	08 95       	ret

000013d2 <__vector_14>:
    13d2:	1f 92       	push	r1
    13d4:	0f 92       	push	r0
    13d6:	0f b6       	in	r0, 0x3f	; 63
    13d8:	0f 92       	push	r0
    13da:	11 24       	eor	r1, r1
    13dc:	0b b6       	in	r0, 0x3b	; 59
    13de:	0f 92       	push	r0
    13e0:	2f 93       	push	r18
    13e2:	3f 93       	push	r19
    13e4:	4f 93       	push	r20
    13e6:	5f 93       	push	r21
    13e8:	6f 93       	push	r22
    13ea:	7f 93       	push	r23
    13ec:	8f 93       	push	r24
    13ee:	9f 93       	push	r25
    13f0:	af 93       	push	r26
    13f2:	bf 93       	push	r27
    13f4:	ef 93       	push	r30
    13f6:	ff 93       	push	r31
    13f8:	e0 91 46 22 	lds	r30, 0x2246	; 0x802246 <tc_tcc0_ovf_callback>
    13fc:	f0 91 47 22 	lds	r31, 0x2247	; 0x802247 <tc_tcc0_ovf_callback+0x1>
    1400:	30 97       	sbiw	r30, 0x00	; 0
    1402:	09 f0       	breq	.+2      	; 0x1406 <__vector_14+0x34>
    1404:	19 95       	eicall
    1406:	ff 91       	pop	r31
    1408:	ef 91       	pop	r30
    140a:	bf 91       	pop	r27
    140c:	af 91       	pop	r26
    140e:	9f 91       	pop	r25
    1410:	8f 91       	pop	r24
    1412:	7f 91       	pop	r23
    1414:	6f 91       	pop	r22
    1416:	5f 91       	pop	r21
    1418:	4f 91       	pop	r20
    141a:	3f 91       	pop	r19
    141c:	2f 91       	pop	r18
    141e:	0f 90       	pop	r0
    1420:	0b be       	out	0x3b, r0	; 59
    1422:	0f 90       	pop	r0
    1424:	0f be       	out	0x3f, r0	; 63
    1426:	0f 90       	pop	r0
    1428:	1f 90       	pop	r1
    142a:	18 95       	reti

0000142c <__vector_15>:
    142c:	1f 92       	push	r1
    142e:	0f 92       	push	r0
    1430:	0f b6       	in	r0, 0x3f	; 63
    1432:	0f 92       	push	r0
    1434:	11 24       	eor	r1, r1
    1436:	0b b6       	in	r0, 0x3b	; 59
    1438:	0f 92       	push	r0
    143a:	2f 93       	push	r18
    143c:	3f 93       	push	r19
    143e:	4f 93       	push	r20
    1440:	5f 93       	push	r21
    1442:	6f 93       	push	r22
    1444:	7f 93       	push	r23
    1446:	8f 93       	push	r24
    1448:	9f 93       	push	r25
    144a:	af 93       	push	r26
    144c:	bf 93       	push	r27
    144e:	ef 93       	push	r30
    1450:	ff 93       	push	r31
    1452:	e0 91 44 22 	lds	r30, 0x2244	; 0x802244 <tc_tcc0_err_callback>
    1456:	f0 91 45 22 	lds	r31, 0x2245	; 0x802245 <tc_tcc0_err_callback+0x1>
    145a:	30 97       	sbiw	r30, 0x00	; 0
    145c:	09 f0       	breq	.+2      	; 0x1460 <__vector_15+0x34>
    145e:	19 95       	eicall
    1460:	ff 91       	pop	r31
    1462:	ef 91       	pop	r30
    1464:	bf 91       	pop	r27
    1466:	af 91       	pop	r26
    1468:	9f 91       	pop	r25
    146a:	8f 91       	pop	r24
    146c:	7f 91       	pop	r23
    146e:	6f 91       	pop	r22
    1470:	5f 91       	pop	r21
    1472:	4f 91       	pop	r20
    1474:	3f 91       	pop	r19
    1476:	2f 91       	pop	r18
    1478:	0f 90       	pop	r0
    147a:	0b be       	out	0x3b, r0	; 59
    147c:	0f 90       	pop	r0
    147e:	0f be       	out	0x3f, r0	; 63
    1480:	0f 90       	pop	r0
    1482:	1f 90       	pop	r1
    1484:	18 95       	reti

00001486 <__vector_16>:
    1486:	1f 92       	push	r1
    1488:	0f 92       	push	r0
    148a:	0f b6       	in	r0, 0x3f	; 63
    148c:	0f 92       	push	r0
    148e:	11 24       	eor	r1, r1
    1490:	0b b6       	in	r0, 0x3b	; 59
    1492:	0f 92       	push	r0
    1494:	2f 93       	push	r18
    1496:	3f 93       	push	r19
    1498:	4f 93       	push	r20
    149a:	5f 93       	push	r21
    149c:	6f 93       	push	r22
    149e:	7f 93       	push	r23
    14a0:	8f 93       	push	r24
    14a2:	9f 93       	push	r25
    14a4:	af 93       	push	r26
    14a6:	bf 93       	push	r27
    14a8:	ef 93       	push	r30
    14aa:	ff 93       	push	r31
    14ac:	e0 91 42 22 	lds	r30, 0x2242	; 0x802242 <tc_tcc0_cca_callback>
    14b0:	f0 91 43 22 	lds	r31, 0x2243	; 0x802243 <tc_tcc0_cca_callback+0x1>
    14b4:	30 97       	sbiw	r30, 0x00	; 0
    14b6:	09 f0       	breq	.+2      	; 0x14ba <__vector_16+0x34>
    14b8:	19 95       	eicall
    14ba:	ff 91       	pop	r31
    14bc:	ef 91       	pop	r30
    14be:	bf 91       	pop	r27
    14c0:	af 91       	pop	r26
    14c2:	9f 91       	pop	r25
    14c4:	8f 91       	pop	r24
    14c6:	7f 91       	pop	r23
    14c8:	6f 91       	pop	r22
    14ca:	5f 91       	pop	r21
    14cc:	4f 91       	pop	r20
    14ce:	3f 91       	pop	r19
    14d0:	2f 91       	pop	r18
    14d2:	0f 90       	pop	r0
    14d4:	0b be       	out	0x3b, r0	; 59
    14d6:	0f 90       	pop	r0
    14d8:	0f be       	out	0x3f, r0	; 63
    14da:	0f 90       	pop	r0
    14dc:	1f 90       	pop	r1
    14de:	18 95       	reti

000014e0 <__vector_17>:
    14e0:	1f 92       	push	r1
    14e2:	0f 92       	push	r0
    14e4:	0f b6       	in	r0, 0x3f	; 63
    14e6:	0f 92       	push	r0
    14e8:	11 24       	eor	r1, r1
    14ea:	0b b6       	in	r0, 0x3b	; 59
    14ec:	0f 92       	push	r0
    14ee:	2f 93       	push	r18
    14f0:	3f 93       	push	r19
    14f2:	4f 93       	push	r20
    14f4:	5f 93       	push	r21
    14f6:	6f 93       	push	r22
    14f8:	7f 93       	push	r23
    14fa:	8f 93       	push	r24
    14fc:	9f 93       	push	r25
    14fe:	af 93       	push	r26
    1500:	bf 93       	push	r27
    1502:	ef 93       	push	r30
    1504:	ff 93       	push	r31
    1506:	e0 91 40 22 	lds	r30, 0x2240	; 0x802240 <tc_tcc0_ccb_callback>
    150a:	f0 91 41 22 	lds	r31, 0x2241	; 0x802241 <tc_tcc0_ccb_callback+0x1>
    150e:	30 97       	sbiw	r30, 0x00	; 0
    1510:	09 f0       	breq	.+2      	; 0x1514 <__vector_17+0x34>
    1512:	19 95       	eicall
    1514:	ff 91       	pop	r31
    1516:	ef 91       	pop	r30
    1518:	bf 91       	pop	r27
    151a:	af 91       	pop	r26
    151c:	9f 91       	pop	r25
    151e:	8f 91       	pop	r24
    1520:	7f 91       	pop	r23
    1522:	6f 91       	pop	r22
    1524:	5f 91       	pop	r21
    1526:	4f 91       	pop	r20
    1528:	3f 91       	pop	r19
    152a:	2f 91       	pop	r18
    152c:	0f 90       	pop	r0
    152e:	0b be       	out	0x3b, r0	; 59
    1530:	0f 90       	pop	r0
    1532:	0f be       	out	0x3f, r0	; 63
    1534:	0f 90       	pop	r0
    1536:	1f 90       	pop	r1
    1538:	18 95       	reti

0000153a <__vector_18>:
    153a:	1f 92       	push	r1
    153c:	0f 92       	push	r0
    153e:	0f b6       	in	r0, 0x3f	; 63
    1540:	0f 92       	push	r0
    1542:	11 24       	eor	r1, r1
    1544:	0b b6       	in	r0, 0x3b	; 59
    1546:	0f 92       	push	r0
    1548:	2f 93       	push	r18
    154a:	3f 93       	push	r19
    154c:	4f 93       	push	r20
    154e:	5f 93       	push	r21
    1550:	6f 93       	push	r22
    1552:	7f 93       	push	r23
    1554:	8f 93       	push	r24
    1556:	9f 93       	push	r25
    1558:	af 93       	push	r26
    155a:	bf 93       	push	r27
    155c:	ef 93       	push	r30
    155e:	ff 93       	push	r31
    1560:	e0 91 3e 22 	lds	r30, 0x223E	; 0x80223e <tc_tcc0_ccc_callback>
    1564:	f0 91 3f 22 	lds	r31, 0x223F	; 0x80223f <tc_tcc0_ccc_callback+0x1>
    1568:	30 97       	sbiw	r30, 0x00	; 0
    156a:	09 f0       	breq	.+2      	; 0x156e <__vector_18+0x34>
    156c:	19 95       	eicall
    156e:	ff 91       	pop	r31
    1570:	ef 91       	pop	r30
    1572:	bf 91       	pop	r27
    1574:	af 91       	pop	r26
    1576:	9f 91       	pop	r25
    1578:	8f 91       	pop	r24
    157a:	7f 91       	pop	r23
    157c:	6f 91       	pop	r22
    157e:	5f 91       	pop	r21
    1580:	4f 91       	pop	r20
    1582:	3f 91       	pop	r19
    1584:	2f 91       	pop	r18
    1586:	0f 90       	pop	r0
    1588:	0b be       	out	0x3b, r0	; 59
    158a:	0f 90       	pop	r0
    158c:	0f be       	out	0x3f, r0	; 63
    158e:	0f 90       	pop	r0
    1590:	1f 90       	pop	r1
    1592:	18 95       	reti

00001594 <__vector_19>:
    1594:	1f 92       	push	r1
    1596:	0f 92       	push	r0
    1598:	0f b6       	in	r0, 0x3f	; 63
    159a:	0f 92       	push	r0
    159c:	11 24       	eor	r1, r1
    159e:	0b b6       	in	r0, 0x3b	; 59
    15a0:	0f 92       	push	r0
    15a2:	2f 93       	push	r18
    15a4:	3f 93       	push	r19
    15a6:	4f 93       	push	r20
    15a8:	5f 93       	push	r21
    15aa:	6f 93       	push	r22
    15ac:	7f 93       	push	r23
    15ae:	8f 93       	push	r24
    15b0:	9f 93       	push	r25
    15b2:	af 93       	push	r26
    15b4:	bf 93       	push	r27
    15b6:	ef 93       	push	r30
    15b8:	ff 93       	push	r31
    15ba:	e0 91 3c 22 	lds	r30, 0x223C	; 0x80223c <tc_tcc0_ccd_callback>
    15be:	f0 91 3d 22 	lds	r31, 0x223D	; 0x80223d <tc_tcc0_ccd_callback+0x1>
    15c2:	30 97       	sbiw	r30, 0x00	; 0
    15c4:	09 f0       	breq	.+2      	; 0x15c8 <__vector_19+0x34>
    15c6:	19 95       	eicall
    15c8:	ff 91       	pop	r31
    15ca:	ef 91       	pop	r30
    15cc:	bf 91       	pop	r27
    15ce:	af 91       	pop	r26
    15d0:	9f 91       	pop	r25
    15d2:	8f 91       	pop	r24
    15d4:	7f 91       	pop	r23
    15d6:	6f 91       	pop	r22
    15d8:	5f 91       	pop	r21
    15da:	4f 91       	pop	r20
    15dc:	3f 91       	pop	r19
    15de:	2f 91       	pop	r18
    15e0:	0f 90       	pop	r0
    15e2:	0b be       	out	0x3b, r0	; 59
    15e4:	0f 90       	pop	r0
    15e6:	0f be       	out	0x3f, r0	; 63
    15e8:	0f 90       	pop	r0
    15ea:	1f 90       	pop	r1
    15ec:	18 95       	reti

000015ee <__vector_20>:
    15ee:	1f 92       	push	r1
    15f0:	0f 92       	push	r0
    15f2:	0f b6       	in	r0, 0x3f	; 63
    15f4:	0f 92       	push	r0
    15f6:	11 24       	eor	r1, r1
    15f8:	0b b6       	in	r0, 0x3b	; 59
    15fa:	0f 92       	push	r0
    15fc:	2f 93       	push	r18
    15fe:	3f 93       	push	r19
    1600:	4f 93       	push	r20
    1602:	5f 93       	push	r21
    1604:	6f 93       	push	r22
    1606:	7f 93       	push	r23
    1608:	8f 93       	push	r24
    160a:	9f 93       	push	r25
    160c:	af 93       	push	r26
    160e:	bf 93       	push	r27
    1610:	ef 93       	push	r30
    1612:	ff 93       	push	r31
    1614:	e0 91 3a 22 	lds	r30, 0x223A	; 0x80223a <tc_tcc1_ovf_callback>
    1618:	f0 91 3b 22 	lds	r31, 0x223B	; 0x80223b <tc_tcc1_ovf_callback+0x1>
    161c:	30 97       	sbiw	r30, 0x00	; 0
    161e:	09 f0       	breq	.+2      	; 0x1622 <__vector_20+0x34>
    1620:	19 95       	eicall
    1622:	ff 91       	pop	r31
    1624:	ef 91       	pop	r30
    1626:	bf 91       	pop	r27
    1628:	af 91       	pop	r26
    162a:	9f 91       	pop	r25
    162c:	8f 91       	pop	r24
    162e:	7f 91       	pop	r23
    1630:	6f 91       	pop	r22
    1632:	5f 91       	pop	r21
    1634:	4f 91       	pop	r20
    1636:	3f 91       	pop	r19
    1638:	2f 91       	pop	r18
    163a:	0f 90       	pop	r0
    163c:	0b be       	out	0x3b, r0	; 59
    163e:	0f 90       	pop	r0
    1640:	0f be       	out	0x3f, r0	; 63
    1642:	0f 90       	pop	r0
    1644:	1f 90       	pop	r1
    1646:	18 95       	reti

00001648 <__vector_21>:
    1648:	1f 92       	push	r1
    164a:	0f 92       	push	r0
    164c:	0f b6       	in	r0, 0x3f	; 63
    164e:	0f 92       	push	r0
    1650:	11 24       	eor	r1, r1
    1652:	0b b6       	in	r0, 0x3b	; 59
    1654:	0f 92       	push	r0
    1656:	2f 93       	push	r18
    1658:	3f 93       	push	r19
    165a:	4f 93       	push	r20
    165c:	5f 93       	push	r21
    165e:	6f 93       	push	r22
    1660:	7f 93       	push	r23
    1662:	8f 93       	push	r24
    1664:	9f 93       	push	r25
    1666:	af 93       	push	r26
    1668:	bf 93       	push	r27
    166a:	ef 93       	push	r30
    166c:	ff 93       	push	r31
    166e:	e0 91 38 22 	lds	r30, 0x2238	; 0x802238 <tc_tcc1_err_callback>
    1672:	f0 91 39 22 	lds	r31, 0x2239	; 0x802239 <tc_tcc1_err_callback+0x1>
    1676:	30 97       	sbiw	r30, 0x00	; 0
    1678:	09 f0       	breq	.+2      	; 0x167c <__vector_21+0x34>
    167a:	19 95       	eicall
    167c:	ff 91       	pop	r31
    167e:	ef 91       	pop	r30
    1680:	bf 91       	pop	r27
    1682:	af 91       	pop	r26
    1684:	9f 91       	pop	r25
    1686:	8f 91       	pop	r24
    1688:	7f 91       	pop	r23
    168a:	6f 91       	pop	r22
    168c:	5f 91       	pop	r21
    168e:	4f 91       	pop	r20
    1690:	3f 91       	pop	r19
    1692:	2f 91       	pop	r18
    1694:	0f 90       	pop	r0
    1696:	0b be       	out	0x3b, r0	; 59
    1698:	0f 90       	pop	r0
    169a:	0f be       	out	0x3f, r0	; 63
    169c:	0f 90       	pop	r0
    169e:	1f 90       	pop	r1
    16a0:	18 95       	reti

000016a2 <__vector_22>:
    16a2:	1f 92       	push	r1
    16a4:	0f 92       	push	r0
    16a6:	0f b6       	in	r0, 0x3f	; 63
    16a8:	0f 92       	push	r0
    16aa:	11 24       	eor	r1, r1
    16ac:	0b b6       	in	r0, 0x3b	; 59
    16ae:	0f 92       	push	r0
    16b0:	2f 93       	push	r18
    16b2:	3f 93       	push	r19
    16b4:	4f 93       	push	r20
    16b6:	5f 93       	push	r21
    16b8:	6f 93       	push	r22
    16ba:	7f 93       	push	r23
    16bc:	8f 93       	push	r24
    16be:	9f 93       	push	r25
    16c0:	af 93       	push	r26
    16c2:	bf 93       	push	r27
    16c4:	ef 93       	push	r30
    16c6:	ff 93       	push	r31
    16c8:	e0 91 36 22 	lds	r30, 0x2236	; 0x802236 <tc_tcc1_cca_callback>
    16cc:	f0 91 37 22 	lds	r31, 0x2237	; 0x802237 <tc_tcc1_cca_callback+0x1>
    16d0:	30 97       	sbiw	r30, 0x00	; 0
    16d2:	09 f0       	breq	.+2      	; 0x16d6 <__vector_22+0x34>
    16d4:	19 95       	eicall
    16d6:	ff 91       	pop	r31
    16d8:	ef 91       	pop	r30
    16da:	bf 91       	pop	r27
    16dc:	af 91       	pop	r26
    16de:	9f 91       	pop	r25
    16e0:	8f 91       	pop	r24
    16e2:	7f 91       	pop	r23
    16e4:	6f 91       	pop	r22
    16e6:	5f 91       	pop	r21
    16e8:	4f 91       	pop	r20
    16ea:	3f 91       	pop	r19
    16ec:	2f 91       	pop	r18
    16ee:	0f 90       	pop	r0
    16f0:	0b be       	out	0x3b, r0	; 59
    16f2:	0f 90       	pop	r0
    16f4:	0f be       	out	0x3f, r0	; 63
    16f6:	0f 90       	pop	r0
    16f8:	1f 90       	pop	r1
    16fa:	18 95       	reti

000016fc <__vector_23>:
    16fc:	1f 92       	push	r1
    16fe:	0f 92       	push	r0
    1700:	0f b6       	in	r0, 0x3f	; 63
    1702:	0f 92       	push	r0
    1704:	11 24       	eor	r1, r1
    1706:	0b b6       	in	r0, 0x3b	; 59
    1708:	0f 92       	push	r0
    170a:	2f 93       	push	r18
    170c:	3f 93       	push	r19
    170e:	4f 93       	push	r20
    1710:	5f 93       	push	r21
    1712:	6f 93       	push	r22
    1714:	7f 93       	push	r23
    1716:	8f 93       	push	r24
    1718:	9f 93       	push	r25
    171a:	af 93       	push	r26
    171c:	bf 93       	push	r27
    171e:	ef 93       	push	r30
    1720:	ff 93       	push	r31
    1722:	e0 91 34 22 	lds	r30, 0x2234	; 0x802234 <tc_tcc1_ccb_callback>
    1726:	f0 91 35 22 	lds	r31, 0x2235	; 0x802235 <tc_tcc1_ccb_callback+0x1>
    172a:	30 97       	sbiw	r30, 0x00	; 0
    172c:	09 f0       	breq	.+2      	; 0x1730 <__vector_23+0x34>
    172e:	19 95       	eicall
    1730:	ff 91       	pop	r31
    1732:	ef 91       	pop	r30
    1734:	bf 91       	pop	r27
    1736:	af 91       	pop	r26
    1738:	9f 91       	pop	r25
    173a:	8f 91       	pop	r24
    173c:	7f 91       	pop	r23
    173e:	6f 91       	pop	r22
    1740:	5f 91       	pop	r21
    1742:	4f 91       	pop	r20
    1744:	3f 91       	pop	r19
    1746:	2f 91       	pop	r18
    1748:	0f 90       	pop	r0
    174a:	0b be       	out	0x3b, r0	; 59
    174c:	0f 90       	pop	r0
    174e:	0f be       	out	0x3f, r0	; 63
    1750:	0f 90       	pop	r0
    1752:	1f 90       	pop	r1
    1754:	18 95       	reti

00001756 <__vector_77>:
    1756:	1f 92       	push	r1
    1758:	0f 92       	push	r0
    175a:	0f b6       	in	r0, 0x3f	; 63
    175c:	0f 92       	push	r0
    175e:	11 24       	eor	r1, r1
    1760:	0b b6       	in	r0, 0x3b	; 59
    1762:	0f 92       	push	r0
    1764:	2f 93       	push	r18
    1766:	3f 93       	push	r19
    1768:	4f 93       	push	r20
    176a:	5f 93       	push	r21
    176c:	6f 93       	push	r22
    176e:	7f 93       	push	r23
    1770:	8f 93       	push	r24
    1772:	9f 93       	push	r25
    1774:	af 93       	push	r26
    1776:	bf 93       	push	r27
    1778:	ef 93       	push	r30
    177a:	ff 93       	push	r31
    177c:	e0 91 32 22 	lds	r30, 0x2232	; 0x802232 <tc_tcd0_ovf_callback>
    1780:	f0 91 33 22 	lds	r31, 0x2233	; 0x802233 <tc_tcd0_ovf_callback+0x1>
    1784:	30 97       	sbiw	r30, 0x00	; 0
    1786:	09 f0       	breq	.+2      	; 0x178a <__vector_77+0x34>
    1788:	19 95       	eicall
    178a:	ff 91       	pop	r31
    178c:	ef 91       	pop	r30
    178e:	bf 91       	pop	r27
    1790:	af 91       	pop	r26
    1792:	9f 91       	pop	r25
    1794:	8f 91       	pop	r24
    1796:	7f 91       	pop	r23
    1798:	6f 91       	pop	r22
    179a:	5f 91       	pop	r21
    179c:	4f 91       	pop	r20
    179e:	3f 91       	pop	r19
    17a0:	2f 91       	pop	r18
    17a2:	0f 90       	pop	r0
    17a4:	0b be       	out	0x3b, r0	; 59
    17a6:	0f 90       	pop	r0
    17a8:	0f be       	out	0x3f, r0	; 63
    17aa:	0f 90       	pop	r0
    17ac:	1f 90       	pop	r1
    17ae:	18 95       	reti

000017b0 <__vector_78>:
    17b0:	1f 92       	push	r1
    17b2:	0f 92       	push	r0
    17b4:	0f b6       	in	r0, 0x3f	; 63
    17b6:	0f 92       	push	r0
    17b8:	11 24       	eor	r1, r1
    17ba:	0b b6       	in	r0, 0x3b	; 59
    17bc:	0f 92       	push	r0
    17be:	2f 93       	push	r18
    17c0:	3f 93       	push	r19
    17c2:	4f 93       	push	r20
    17c4:	5f 93       	push	r21
    17c6:	6f 93       	push	r22
    17c8:	7f 93       	push	r23
    17ca:	8f 93       	push	r24
    17cc:	9f 93       	push	r25
    17ce:	af 93       	push	r26
    17d0:	bf 93       	push	r27
    17d2:	ef 93       	push	r30
    17d4:	ff 93       	push	r31
    17d6:	e0 91 30 22 	lds	r30, 0x2230	; 0x802230 <tc_tcd0_err_callback>
    17da:	f0 91 31 22 	lds	r31, 0x2231	; 0x802231 <tc_tcd0_err_callback+0x1>
    17de:	30 97       	sbiw	r30, 0x00	; 0
    17e0:	09 f0       	breq	.+2      	; 0x17e4 <__vector_78+0x34>
    17e2:	19 95       	eicall
    17e4:	ff 91       	pop	r31
    17e6:	ef 91       	pop	r30
    17e8:	bf 91       	pop	r27
    17ea:	af 91       	pop	r26
    17ec:	9f 91       	pop	r25
    17ee:	8f 91       	pop	r24
    17f0:	7f 91       	pop	r23
    17f2:	6f 91       	pop	r22
    17f4:	5f 91       	pop	r21
    17f6:	4f 91       	pop	r20
    17f8:	3f 91       	pop	r19
    17fa:	2f 91       	pop	r18
    17fc:	0f 90       	pop	r0
    17fe:	0b be       	out	0x3b, r0	; 59
    1800:	0f 90       	pop	r0
    1802:	0f be       	out	0x3f, r0	; 63
    1804:	0f 90       	pop	r0
    1806:	1f 90       	pop	r1
    1808:	18 95       	reti

0000180a <__vector_79>:
    180a:	1f 92       	push	r1
    180c:	0f 92       	push	r0
    180e:	0f b6       	in	r0, 0x3f	; 63
    1810:	0f 92       	push	r0
    1812:	11 24       	eor	r1, r1
    1814:	0b b6       	in	r0, 0x3b	; 59
    1816:	0f 92       	push	r0
    1818:	2f 93       	push	r18
    181a:	3f 93       	push	r19
    181c:	4f 93       	push	r20
    181e:	5f 93       	push	r21
    1820:	6f 93       	push	r22
    1822:	7f 93       	push	r23
    1824:	8f 93       	push	r24
    1826:	9f 93       	push	r25
    1828:	af 93       	push	r26
    182a:	bf 93       	push	r27
    182c:	ef 93       	push	r30
    182e:	ff 93       	push	r31
    1830:	e0 91 2e 22 	lds	r30, 0x222E	; 0x80222e <tc_tcd0_cca_callback>
    1834:	f0 91 2f 22 	lds	r31, 0x222F	; 0x80222f <tc_tcd0_cca_callback+0x1>
    1838:	30 97       	sbiw	r30, 0x00	; 0
    183a:	09 f0       	breq	.+2      	; 0x183e <__vector_79+0x34>
    183c:	19 95       	eicall
    183e:	ff 91       	pop	r31
    1840:	ef 91       	pop	r30
    1842:	bf 91       	pop	r27
    1844:	af 91       	pop	r26
    1846:	9f 91       	pop	r25
    1848:	8f 91       	pop	r24
    184a:	7f 91       	pop	r23
    184c:	6f 91       	pop	r22
    184e:	5f 91       	pop	r21
    1850:	4f 91       	pop	r20
    1852:	3f 91       	pop	r19
    1854:	2f 91       	pop	r18
    1856:	0f 90       	pop	r0
    1858:	0b be       	out	0x3b, r0	; 59
    185a:	0f 90       	pop	r0
    185c:	0f be       	out	0x3f, r0	; 63
    185e:	0f 90       	pop	r0
    1860:	1f 90       	pop	r1
    1862:	18 95       	reti

00001864 <__vector_80>:
    1864:	1f 92       	push	r1
    1866:	0f 92       	push	r0
    1868:	0f b6       	in	r0, 0x3f	; 63
    186a:	0f 92       	push	r0
    186c:	11 24       	eor	r1, r1
    186e:	0b b6       	in	r0, 0x3b	; 59
    1870:	0f 92       	push	r0
    1872:	2f 93       	push	r18
    1874:	3f 93       	push	r19
    1876:	4f 93       	push	r20
    1878:	5f 93       	push	r21
    187a:	6f 93       	push	r22
    187c:	7f 93       	push	r23
    187e:	8f 93       	push	r24
    1880:	9f 93       	push	r25
    1882:	af 93       	push	r26
    1884:	bf 93       	push	r27
    1886:	ef 93       	push	r30
    1888:	ff 93       	push	r31
    188a:	e0 91 2c 22 	lds	r30, 0x222C	; 0x80222c <tc_tcd0_ccb_callback>
    188e:	f0 91 2d 22 	lds	r31, 0x222D	; 0x80222d <tc_tcd0_ccb_callback+0x1>
    1892:	30 97       	sbiw	r30, 0x00	; 0
    1894:	09 f0       	breq	.+2      	; 0x1898 <__vector_80+0x34>
    1896:	19 95       	eicall
    1898:	ff 91       	pop	r31
    189a:	ef 91       	pop	r30
    189c:	bf 91       	pop	r27
    189e:	af 91       	pop	r26
    18a0:	9f 91       	pop	r25
    18a2:	8f 91       	pop	r24
    18a4:	7f 91       	pop	r23
    18a6:	6f 91       	pop	r22
    18a8:	5f 91       	pop	r21
    18aa:	4f 91       	pop	r20
    18ac:	3f 91       	pop	r19
    18ae:	2f 91       	pop	r18
    18b0:	0f 90       	pop	r0
    18b2:	0b be       	out	0x3b, r0	; 59
    18b4:	0f 90       	pop	r0
    18b6:	0f be       	out	0x3f, r0	; 63
    18b8:	0f 90       	pop	r0
    18ba:	1f 90       	pop	r1
    18bc:	18 95       	reti

000018be <__vector_81>:
    18be:	1f 92       	push	r1
    18c0:	0f 92       	push	r0
    18c2:	0f b6       	in	r0, 0x3f	; 63
    18c4:	0f 92       	push	r0
    18c6:	11 24       	eor	r1, r1
    18c8:	0b b6       	in	r0, 0x3b	; 59
    18ca:	0f 92       	push	r0
    18cc:	2f 93       	push	r18
    18ce:	3f 93       	push	r19
    18d0:	4f 93       	push	r20
    18d2:	5f 93       	push	r21
    18d4:	6f 93       	push	r22
    18d6:	7f 93       	push	r23
    18d8:	8f 93       	push	r24
    18da:	9f 93       	push	r25
    18dc:	af 93       	push	r26
    18de:	bf 93       	push	r27
    18e0:	ef 93       	push	r30
    18e2:	ff 93       	push	r31
    18e4:	e0 91 2a 22 	lds	r30, 0x222A	; 0x80222a <tc_tcd0_ccc_callback>
    18e8:	f0 91 2b 22 	lds	r31, 0x222B	; 0x80222b <tc_tcd0_ccc_callback+0x1>
    18ec:	30 97       	sbiw	r30, 0x00	; 0
    18ee:	09 f0       	breq	.+2      	; 0x18f2 <__vector_81+0x34>
    18f0:	19 95       	eicall
    18f2:	ff 91       	pop	r31
    18f4:	ef 91       	pop	r30
    18f6:	bf 91       	pop	r27
    18f8:	af 91       	pop	r26
    18fa:	9f 91       	pop	r25
    18fc:	8f 91       	pop	r24
    18fe:	7f 91       	pop	r23
    1900:	6f 91       	pop	r22
    1902:	5f 91       	pop	r21
    1904:	4f 91       	pop	r20
    1906:	3f 91       	pop	r19
    1908:	2f 91       	pop	r18
    190a:	0f 90       	pop	r0
    190c:	0b be       	out	0x3b, r0	; 59
    190e:	0f 90       	pop	r0
    1910:	0f be       	out	0x3f, r0	; 63
    1912:	0f 90       	pop	r0
    1914:	1f 90       	pop	r1
    1916:	18 95       	reti

00001918 <__vector_82>:
    1918:	1f 92       	push	r1
    191a:	0f 92       	push	r0
    191c:	0f b6       	in	r0, 0x3f	; 63
    191e:	0f 92       	push	r0
    1920:	11 24       	eor	r1, r1
    1922:	0b b6       	in	r0, 0x3b	; 59
    1924:	0f 92       	push	r0
    1926:	2f 93       	push	r18
    1928:	3f 93       	push	r19
    192a:	4f 93       	push	r20
    192c:	5f 93       	push	r21
    192e:	6f 93       	push	r22
    1930:	7f 93       	push	r23
    1932:	8f 93       	push	r24
    1934:	9f 93       	push	r25
    1936:	af 93       	push	r26
    1938:	bf 93       	push	r27
    193a:	ef 93       	push	r30
    193c:	ff 93       	push	r31
    193e:	e0 91 28 22 	lds	r30, 0x2228	; 0x802228 <tc_tcd0_ccd_callback>
    1942:	f0 91 29 22 	lds	r31, 0x2229	; 0x802229 <tc_tcd0_ccd_callback+0x1>
    1946:	30 97       	sbiw	r30, 0x00	; 0
    1948:	09 f0       	breq	.+2      	; 0x194c <__vector_82+0x34>
    194a:	19 95       	eicall
    194c:	ff 91       	pop	r31
    194e:	ef 91       	pop	r30
    1950:	bf 91       	pop	r27
    1952:	af 91       	pop	r26
    1954:	9f 91       	pop	r25
    1956:	8f 91       	pop	r24
    1958:	7f 91       	pop	r23
    195a:	6f 91       	pop	r22
    195c:	5f 91       	pop	r21
    195e:	4f 91       	pop	r20
    1960:	3f 91       	pop	r19
    1962:	2f 91       	pop	r18
    1964:	0f 90       	pop	r0
    1966:	0b be       	out	0x3b, r0	; 59
    1968:	0f 90       	pop	r0
    196a:	0f be       	out	0x3f, r0	; 63
    196c:	0f 90       	pop	r0
    196e:	1f 90       	pop	r1
    1970:	18 95       	reti

00001972 <__vector_47>:
    1972:	1f 92       	push	r1
    1974:	0f 92       	push	r0
    1976:	0f b6       	in	r0, 0x3f	; 63
    1978:	0f 92       	push	r0
    197a:	11 24       	eor	r1, r1
    197c:	0b b6       	in	r0, 0x3b	; 59
    197e:	0f 92       	push	r0
    1980:	2f 93       	push	r18
    1982:	3f 93       	push	r19
    1984:	4f 93       	push	r20
    1986:	5f 93       	push	r21
    1988:	6f 93       	push	r22
    198a:	7f 93       	push	r23
    198c:	8f 93       	push	r24
    198e:	9f 93       	push	r25
    1990:	af 93       	push	r26
    1992:	bf 93       	push	r27
    1994:	ef 93       	push	r30
    1996:	ff 93       	push	r31
    1998:	e0 91 26 22 	lds	r30, 0x2226	; 0x802226 <tc_tce0_ovf_callback>
    199c:	f0 91 27 22 	lds	r31, 0x2227	; 0x802227 <tc_tce0_ovf_callback+0x1>
    19a0:	30 97       	sbiw	r30, 0x00	; 0
    19a2:	09 f0       	breq	.+2      	; 0x19a6 <__vector_47+0x34>
    19a4:	19 95       	eicall
    19a6:	ff 91       	pop	r31
    19a8:	ef 91       	pop	r30
    19aa:	bf 91       	pop	r27
    19ac:	af 91       	pop	r26
    19ae:	9f 91       	pop	r25
    19b0:	8f 91       	pop	r24
    19b2:	7f 91       	pop	r23
    19b4:	6f 91       	pop	r22
    19b6:	5f 91       	pop	r21
    19b8:	4f 91       	pop	r20
    19ba:	3f 91       	pop	r19
    19bc:	2f 91       	pop	r18
    19be:	0f 90       	pop	r0
    19c0:	0b be       	out	0x3b, r0	; 59
    19c2:	0f 90       	pop	r0
    19c4:	0f be       	out	0x3f, r0	; 63
    19c6:	0f 90       	pop	r0
    19c8:	1f 90       	pop	r1
    19ca:	18 95       	reti

000019cc <__vector_48>:
    19cc:	1f 92       	push	r1
    19ce:	0f 92       	push	r0
    19d0:	0f b6       	in	r0, 0x3f	; 63
    19d2:	0f 92       	push	r0
    19d4:	11 24       	eor	r1, r1
    19d6:	0b b6       	in	r0, 0x3b	; 59
    19d8:	0f 92       	push	r0
    19da:	2f 93       	push	r18
    19dc:	3f 93       	push	r19
    19de:	4f 93       	push	r20
    19e0:	5f 93       	push	r21
    19e2:	6f 93       	push	r22
    19e4:	7f 93       	push	r23
    19e6:	8f 93       	push	r24
    19e8:	9f 93       	push	r25
    19ea:	af 93       	push	r26
    19ec:	bf 93       	push	r27
    19ee:	ef 93       	push	r30
    19f0:	ff 93       	push	r31
    19f2:	e0 91 24 22 	lds	r30, 0x2224	; 0x802224 <tc_tce0_err_callback>
    19f6:	f0 91 25 22 	lds	r31, 0x2225	; 0x802225 <tc_tce0_err_callback+0x1>
    19fa:	30 97       	sbiw	r30, 0x00	; 0
    19fc:	09 f0       	breq	.+2      	; 0x1a00 <__vector_48+0x34>
    19fe:	19 95       	eicall
    1a00:	ff 91       	pop	r31
    1a02:	ef 91       	pop	r30
    1a04:	bf 91       	pop	r27
    1a06:	af 91       	pop	r26
    1a08:	9f 91       	pop	r25
    1a0a:	8f 91       	pop	r24
    1a0c:	7f 91       	pop	r23
    1a0e:	6f 91       	pop	r22
    1a10:	5f 91       	pop	r21
    1a12:	4f 91       	pop	r20
    1a14:	3f 91       	pop	r19
    1a16:	2f 91       	pop	r18
    1a18:	0f 90       	pop	r0
    1a1a:	0b be       	out	0x3b, r0	; 59
    1a1c:	0f 90       	pop	r0
    1a1e:	0f be       	out	0x3f, r0	; 63
    1a20:	0f 90       	pop	r0
    1a22:	1f 90       	pop	r1
    1a24:	18 95       	reti

00001a26 <__vector_49>:
    1a26:	1f 92       	push	r1
    1a28:	0f 92       	push	r0
    1a2a:	0f b6       	in	r0, 0x3f	; 63
    1a2c:	0f 92       	push	r0
    1a2e:	11 24       	eor	r1, r1
    1a30:	0b b6       	in	r0, 0x3b	; 59
    1a32:	0f 92       	push	r0
    1a34:	2f 93       	push	r18
    1a36:	3f 93       	push	r19
    1a38:	4f 93       	push	r20
    1a3a:	5f 93       	push	r21
    1a3c:	6f 93       	push	r22
    1a3e:	7f 93       	push	r23
    1a40:	8f 93       	push	r24
    1a42:	9f 93       	push	r25
    1a44:	af 93       	push	r26
    1a46:	bf 93       	push	r27
    1a48:	ef 93       	push	r30
    1a4a:	ff 93       	push	r31
    1a4c:	e0 91 22 22 	lds	r30, 0x2222	; 0x802222 <tc_tce0_cca_callback>
    1a50:	f0 91 23 22 	lds	r31, 0x2223	; 0x802223 <tc_tce0_cca_callback+0x1>
    1a54:	30 97       	sbiw	r30, 0x00	; 0
    1a56:	09 f0       	breq	.+2      	; 0x1a5a <__vector_49+0x34>
    1a58:	19 95       	eicall
    1a5a:	ff 91       	pop	r31
    1a5c:	ef 91       	pop	r30
    1a5e:	bf 91       	pop	r27
    1a60:	af 91       	pop	r26
    1a62:	9f 91       	pop	r25
    1a64:	8f 91       	pop	r24
    1a66:	7f 91       	pop	r23
    1a68:	6f 91       	pop	r22
    1a6a:	5f 91       	pop	r21
    1a6c:	4f 91       	pop	r20
    1a6e:	3f 91       	pop	r19
    1a70:	2f 91       	pop	r18
    1a72:	0f 90       	pop	r0
    1a74:	0b be       	out	0x3b, r0	; 59
    1a76:	0f 90       	pop	r0
    1a78:	0f be       	out	0x3f, r0	; 63
    1a7a:	0f 90       	pop	r0
    1a7c:	1f 90       	pop	r1
    1a7e:	18 95       	reti

00001a80 <__vector_50>:
    1a80:	1f 92       	push	r1
    1a82:	0f 92       	push	r0
    1a84:	0f b6       	in	r0, 0x3f	; 63
    1a86:	0f 92       	push	r0
    1a88:	11 24       	eor	r1, r1
    1a8a:	0b b6       	in	r0, 0x3b	; 59
    1a8c:	0f 92       	push	r0
    1a8e:	2f 93       	push	r18
    1a90:	3f 93       	push	r19
    1a92:	4f 93       	push	r20
    1a94:	5f 93       	push	r21
    1a96:	6f 93       	push	r22
    1a98:	7f 93       	push	r23
    1a9a:	8f 93       	push	r24
    1a9c:	9f 93       	push	r25
    1a9e:	af 93       	push	r26
    1aa0:	bf 93       	push	r27
    1aa2:	ef 93       	push	r30
    1aa4:	ff 93       	push	r31
    1aa6:	e0 91 20 22 	lds	r30, 0x2220	; 0x802220 <tc_tce0_ccb_callback>
    1aaa:	f0 91 21 22 	lds	r31, 0x2221	; 0x802221 <tc_tce0_ccb_callback+0x1>
    1aae:	30 97       	sbiw	r30, 0x00	; 0
    1ab0:	09 f0       	breq	.+2      	; 0x1ab4 <__vector_50+0x34>
    1ab2:	19 95       	eicall
    1ab4:	ff 91       	pop	r31
    1ab6:	ef 91       	pop	r30
    1ab8:	bf 91       	pop	r27
    1aba:	af 91       	pop	r26
    1abc:	9f 91       	pop	r25
    1abe:	8f 91       	pop	r24
    1ac0:	7f 91       	pop	r23
    1ac2:	6f 91       	pop	r22
    1ac4:	5f 91       	pop	r21
    1ac6:	4f 91       	pop	r20
    1ac8:	3f 91       	pop	r19
    1aca:	2f 91       	pop	r18
    1acc:	0f 90       	pop	r0
    1ace:	0b be       	out	0x3b, r0	; 59
    1ad0:	0f 90       	pop	r0
    1ad2:	0f be       	out	0x3f, r0	; 63
    1ad4:	0f 90       	pop	r0
    1ad6:	1f 90       	pop	r1
    1ad8:	18 95       	reti

00001ada <__vector_51>:
    1ada:	1f 92       	push	r1
    1adc:	0f 92       	push	r0
    1ade:	0f b6       	in	r0, 0x3f	; 63
    1ae0:	0f 92       	push	r0
    1ae2:	11 24       	eor	r1, r1
    1ae4:	0b b6       	in	r0, 0x3b	; 59
    1ae6:	0f 92       	push	r0
    1ae8:	2f 93       	push	r18
    1aea:	3f 93       	push	r19
    1aec:	4f 93       	push	r20
    1aee:	5f 93       	push	r21
    1af0:	6f 93       	push	r22
    1af2:	7f 93       	push	r23
    1af4:	8f 93       	push	r24
    1af6:	9f 93       	push	r25
    1af8:	af 93       	push	r26
    1afa:	bf 93       	push	r27
    1afc:	ef 93       	push	r30
    1afe:	ff 93       	push	r31
    1b00:	e0 91 1e 22 	lds	r30, 0x221E	; 0x80221e <tc_tce0_ccc_callback>
    1b04:	f0 91 1f 22 	lds	r31, 0x221F	; 0x80221f <tc_tce0_ccc_callback+0x1>
    1b08:	30 97       	sbiw	r30, 0x00	; 0
    1b0a:	09 f0       	breq	.+2      	; 0x1b0e <__vector_51+0x34>
    1b0c:	19 95       	eicall
    1b0e:	ff 91       	pop	r31
    1b10:	ef 91       	pop	r30
    1b12:	bf 91       	pop	r27
    1b14:	af 91       	pop	r26
    1b16:	9f 91       	pop	r25
    1b18:	8f 91       	pop	r24
    1b1a:	7f 91       	pop	r23
    1b1c:	6f 91       	pop	r22
    1b1e:	5f 91       	pop	r21
    1b20:	4f 91       	pop	r20
    1b22:	3f 91       	pop	r19
    1b24:	2f 91       	pop	r18
    1b26:	0f 90       	pop	r0
    1b28:	0b be       	out	0x3b, r0	; 59
    1b2a:	0f 90       	pop	r0
    1b2c:	0f be       	out	0x3f, r0	; 63
    1b2e:	0f 90       	pop	r0
    1b30:	1f 90       	pop	r1
    1b32:	18 95       	reti

00001b34 <__vector_52>:
    1b34:	1f 92       	push	r1
    1b36:	0f 92       	push	r0
    1b38:	0f b6       	in	r0, 0x3f	; 63
    1b3a:	0f 92       	push	r0
    1b3c:	11 24       	eor	r1, r1
    1b3e:	0b b6       	in	r0, 0x3b	; 59
    1b40:	0f 92       	push	r0
    1b42:	2f 93       	push	r18
    1b44:	3f 93       	push	r19
    1b46:	4f 93       	push	r20
    1b48:	5f 93       	push	r21
    1b4a:	6f 93       	push	r22
    1b4c:	7f 93       	push	r23
    1b4e:	8f 93       	push	r24
    1b50:	9f 93       	push	r25
    1b52:	af 93       	push	r26
    1b54:	bf 93       	push	r27
    1b56:	ef 93       	push	r30
    1b58:	ff 93       	push	r31
    1b5a:	e0 91 1c 22 	lds	r30, 0x221C	; 0x80221c <tc_tce0_ccd_callback>
    1b5e:	f0 91 1d 22 	lds	r31, 0x221D	; 0x80221d <tc_tce0_ccd_callback+0x1>
    1b62:	30 97       	sbiw	r30, 0x00	; 0
    1b64:	09 f0       	breq	.+2      	; 0x1b68 <__vector_52+0x34>
    1b66:	19 95       	eicall
    1b68:	ff 91       	pop	r31
    1b6a:	ef 91       	pop	r30
    1b6c:	bf 91       	pop	r27
    1b6e:	af 91       	pop	r26
    1b70:	9f 91       	pop	r25
    1b72:	8f 91       	pop	r24
    1b74:	7f 91       	pop	r23
    1b76:	6f 91       	pop	r22
    1b78:	5f 91       	pop	r21
    1b7a:	4f 91       	pop	r20
    1b7c:	3f 91       	pop	r19
    1b7e:	2f 91       	pop	r18
    1b80:	0f 90       	pop	r0
    1b82:	0b be       	out	0x3b, r0	; 59
    1b84:	0f 90       	pop	r0
    1b86:	0f be       	out	0x3f, r0	; 63
    1b88:	0f 90       	pop	r0
    1b8a:	1f 90       	pop	r1
    1b8c:	18 95       	reti

00001b8e <tc_enable>:
    1b8e:	1f 93       	push	r17
    1b90:	cf 93       	push	r28
    1b92:	df 93       	push	r29
    1b94:	1f 92       	push	r1
    1b96:	1f 92       	push	r1
    1b98:	cd b7       	in	r28, 0x3d	; 61
    1b9a:	de b7       	in	r29, 0x3e	; 62
    1b9c:	2f b7       	in	r18, 0x3f	; 63
    1b9e:	2a 83       	std	Y+2, r18	; 0x02
    1ba0:	f8 94       	cli
    1ba2:	1a 81       	ldd	r17, Y+2	; 0x02
    1ba4:	28 2f       	mov	r18, r24
    1ba6:	39 2f       	mov	r19, r25
    1ba8:	21 15       	cp	r18, r1
    1baa:	88 e0       	ldi	r24, 0x08	; 8
    1bac:	38 07       	cpc	r19, r24
    1bae:	39 f4       	brne	.+14     	; 0x1bbe <tc_enable+0x30>
    1bb0:	61 e0       	ldi	r22, 0x01	; 1
    1bb2:	83 e0       	ldi	r24, 0x03	; 3
    1bb4:	f8 db       	rcall	.-2064   	; 0x13a6 <sysclk_enable_module>
    1bb6:	64 e0       	ldi	r22, 0x04	; 4
    1bb8:	83 e0       	ldi	r24, 0x03	; 3
    1bba:	f5 db       	rcall	.-2070   	; 0x13a6 <sysclk_enable_module>
    1bbc:	22 c0       	rjmp	.+68     	; 0x1c02 <tc_enable+0x74>
    1bbe:	20 34       	cpi	r18, 0x40	; 64
    1bc0:	88 e0       	ldi	r24, 0x08	; 8
    1bc2:	38 07       	cpc	r19, r24
    1bc4:	39 f4       	brne	.+14     	; 0x1bd4 <tc_enable+0x46>
    1bc6:	62 e0       	ldi	r22, 0x02	; 2
    1bc8:	83 e0       	ldi	r24, 0x03	; 3
    1bca:	ed db       	rcall	.-2086   	; 0x13a6 <sysclk_enable_module>
    1bcc:	64 e0       	ldi	r22, 0x04	; 4
    1bce:	83 e0       	ldi	r24, 0x03	; 3
    1bd0:	ea db       	rcall	.-2092   	; 0x13a6 <sysclk_enable_module>
    1bd2:	17 c0       	rjmp	.+46     	; 0x1c02 <tc_enable+0x74>
    1bd4:	21 15       	cp	r18, r1
    1bd6:	89 e0       	ldi	r24, 0x09	; 9
    1bd8:	38 07       	cpc	r19, r24
    1bda:	39 f4       	brne	.+14     	; 0x1bea <tc_enable+0x5c>
    1bdc:	61 e0       	ldi	r22, 0x01	; 1
    1bde:	84 e0       	ldi	r24, 0x04	; 4
    1be0:	e2 db       	rcall	.-2108   	; 0x13a6 <sysclk_enable_module>
    1be2:	64 e0       	ldi	r22, 0x04	; 4
    1be4:	84 e0       	ldi	r24, 0x04	; 4
    1be6:	df db       	rcall	.-2114   	; 0x13a6 <sysclk_enable_module>
    1be8:	0c c0       	rjmp	.+24     	; 0x1c02 <tc_enable+0x74>
    1bea:	21 15       	cp	r18, r1
    1bec:	3a 40       	sbci	r19, 0x0A	; 10
    1bee:	39 f4       	brne	.+14     	; 0x1bfe <tc_enable+0x70>
    1bf0:	61 e0       	ldi	r22, 0x01	; 1
    1bf2:	85 e0       	ldi	r24, 0x05	; 5
    1bf4:	d8 db       	rcall	.-2128   	; 0x13a6 <sysclk_enable_module>
    1bf6:	64 e0       	ldi	r22, 0x04	; 4
    1bf8:	85 e0       	ldi	r24, 0x05	; 5
    1bfa:	d5 db       	rcall	.-2134   	; 0x13a6 <sysclk_enable_module>
    1bfc:	02 c0       	rjmp	.+4      	; 0x1c02 <tc_enable+0x74>
    1bfe:	1f bf       	out	0x3f, r17	; 63
    1c00:	10 c0       	rjmp	.+32     	; 0x1c22 <tc_enable+0x94>
    1c02:	80 91 3d 24 	lds	r24, 0x243D	; 0x80243d <sleepmgr_locks+0x1>
    1c06:	8f 3f       	cpi	r24, 0xFF	; 255
    1c08:	09 f4       	brne	.+2      	; 0x1c0c <tc_enable+0x7e>
    1c0a:	ff cf       	rjmp	.-2      	; 0x1c0a <tc_enable+0x7c>
    1c0c:	8f b7       	in	r24, 0x3f	; 63
    1c0e:	89 83       	std	Y+1, r24	; 0x01
    1c10:	f8 94       	cli
    1c12:	99 81       	ldd	r25, Y+1	; 0x01
    1c14:	ec e3       	ldi	r30, 0x3C	; 60
    1c16:	f4 e2       	ldi	r31, 0x24	; 36
    1c18:	81 81       	ldd	r24, Z+1	; 0x01
    1c1a:	8f 5f       	subi	r24, 0xFF	; 255
    1c1c:	81 83       	std	Z+1, r24	; 0x01
    1c1e:	9f bf       	out	0x3f, r25	; 63
    1c20:	1f bf       	out	0x3f, r17	; 63
    1c22:	0f 90       	pop	r0
    1c24:	0f 90       	pop	r0
    1c26:	df 91       	pop	r29
    1c28:	cf 91       	pop	r28
    1c2a:	1f 91       	pop	r17
    1c2c:	08 95       	ret

00001c2e <ccp_write_io>:
    1c2e:	1b be       	out	0x3b, r1	; 59
    1c30:	fc 01       	movw	r30, r24
    1c32:	28 ed       	ldi	r18, 0xD8	; 216
    1c34:	24 bf       	out	0x34, r18	; 52
    1c36:	60 83       	st	Z, r22
    1c38:	08 95       	ret

00001c3a <__subsf3>:
    1c3a:	50 58       	subi	r21, 0x80	; 128

00001c3c <__addsf3>:
    1c3c:	bb 27       	eor	r27, r27
    1c3e:	aa 27       	eor	r26, r26
    1c40:	0e d0       	rcall	.+28     	; 0x1c5e <__addsf3x>
    1c42:	70 c1       	rjmp	.+736    	; 0x1f24 <__fp_round>
    1c44:	61 d1       	rcall	.+706    	; 0x1f08 <__fp_pscA>
    1c46:	30 f0       	brcs	.+12     	; 0x1c54 <__addsf3+0x18>
    1c48:	66 d1       	rcall	.+716    	; 0x1f16 <__fp_pscB>
    1c4a:	20 f0       	brcs	.+8      	; 0x1c54 <__addsf3+0x18>
    1c4c:	31 f4       	brne	.+12     	; 0x1c5a <__addsf3+0x1e>
    1c4e:	9f 3f       	cpi	r25, 0xFF	; 255
    1c50:	11 f4       	brne	.+4      	; 0x1c56 <__addsf3+0x1a>
    1c52:	1e f4       	brtc	.+6      	; 0x1c5a <__addsf3+0x1e>
    1c54:	56 c1       	rjmp	.+684    	; 0x1f02 <__fp_nan>
    1c56:	0e f4       	brtc	.+2      	; 0x1c5a <__addsf3+0x1e>
    1c58:	e0 95       	com	r30
    1c5a:	e7 fb       	bst	r30, 7
    1c5c:	4c c1       	rjmp	.+664    	; 0x1ef6 <__fp_inf>

00001c5e <__addsf3x>:
    1c5e:	e9 2f       	mov	r30, r25
    1c60:	72 d1       	rcall	.+740    	; 0x1f46 <__fp_split3>
    1c62:	80 f3       	brcs	.-32     	; 0x1c44 <__addsf3+0x8>
    1c64:	ba 17       	cp	r27, r26
    1c66:	62 07       	cpc	r22, r18
    1c68:	73 07       	cpc	r23, r19
    1c6a:	84 07       	cpc	r24, r20
    1c6c:	95 07       	cpc	r25, r21
    1c6e:	18 f0       	brcs	.+6      	; 0x1c76 <__addsf3x+0x18>
    1c70:	71 f4       	brne	.+28     	; 0x1c8e <__addsf3x+0x30>
    1c72:	9e f5       	brtc	.+102    	; 0x1cda <__addsf3x+0x7c>
    1c74:	8a c1       	rjmp	.+788    	; 0x1f8a <__fp_zero>
    1c76:	0e f4       	brtc	.+2      	; 0x1c7a <__addsf3x+0x1c>
    1c78:	e0 95       	com	r30
    1c7a:	0b 2e       	mov	r0, r27
    1c7c:	ba 2f       	mov	r27, r26
    1c7e:	a0 2d       	mov	r26, r0
    1c80:	0b 01       	movw	r0, r22
    1c82:	b9 01       	movw	r22, r18
    1c84:	90 01       	movw	r18, r0
    1c86:	0c 01       	movw	r0, r24
    1c88:	ca 01       	movw	r24, r20
    1c8a:	a0 01       	movw	r20, r0
    1c8c:	11 24       	eor	r1, r1
    1c8e:	ff 27       	eor	r31, r31
    1c90:	59 1b       	sub	r21, r25
    1c92:	99 f0       	breq	.+38     	; 0x1cba <__addsf3x+0x5c>
    1c94:	59 3f       	cpi	r21, 0xF9	; 249
    1c96:	50 f4       	brcc	.+20     	; 0x1cac <__addsf3x+0x4e>
    1c98:	50 3e       	cpi	r21, 0xE0	; 224
    1c9a:	68 f1       	brcs	.+90     	; 0x1cf6 <__addsf3x+0x98>
    1c9c:	1a 16       	cp	r1, r26
    1c9e:	f0 40       	sbci	r31, 0x00	; 0
    1ca0:	a2 2f       	mov	r26, r18
    1ca2:	23 2f       	mov	r18, r19
    1ca4:	34 2f       	mov	r19, r20
    1ca6:	44 27       	eor	r20, r20
    1ca8:	58 5f       	subi	r21, 0xF8	; 248
    1caa:	f3 cf       	rjmp	.-26     	; 0x1c92 <__addsf3x+0x34>
    1cac:	46 95       	lsr	r20
    1cae:	37 95       	ror	r19
    1cb0:	27 95       	ror	r18
    1cb2:	a7 95       	ror	r26
    1cb4:	f0 40       	sbci	r31, 0x00	; 0
    1cb6:	53 95       	inc	r21
    1cb8:	c9 f7       	brne	.-14     	; 0x1cac <__addsf3x+0x4e>
    1cba:	7e f4       	brtc	.+30     	; 0x1cda <__addsf3x+0x7c>
    1cbc:	1f 16       	cp	r1, r31
    1cbe:	ba 0b       	sbc	r27, r26
    1cc0:	62 0b       	sbc	r22, r18
    1cc2:	73 0b       	sbc	r23, r19
    1cc4:	84 0b       	sbc	r24, r20
    1cc6:	ba f0       	brmi	.+46     	; 0x1cf6 <__addsf3x+0x98>
    1cc8:	91 50       	subi	r25, 0x01	; 1
    1cca:	a1 f0       	breq	.+40     	; 0x1cf4 <__addsf3x+0x96>
    1ccc:	ff 0f       	add	r31, r31
    1cce:	bb 1f       	adc	r27, r27
    1cd0:	66 1f       	adc	r22, r22
    1cd2:	77 1f       	adc	r23, r23
    1cd4:	88 1f       	adc	r24, r24
    1cd6:	c2 f7       	brpl	.-16     	; 0x1cc8 <__addsf3x+0x6a>
    1cd8:	0e c0       	rjmp	.+28     	; 0x1cf6 <__addsf3x+0x98>
    1cda:	ba 0f       	add	r27, r26
    1cdc:	62 1f       	adc	r22, r18
    1cde:	73 1f       	adc	r23, r19
    1ce0:	84 1f       	adc	r24, r20
    1ce2:	48 f4       	brcc	.+18     	; 0x1cf6 <__addsf3x+0x98>
    1ce4:	87 95       	ror	r24
    1ce6:	77 95       	ror	r23
    1ce8:	67 95       	ror	r22
    1cea:	b7 95       	ror	r27
    1cec:	f7 95       	ror	r31
    1cee:	9e 3f       	cpi	r25, 0xFE	; 254
    1cf0:	08 f0       	brcs	.+2      	; 0x1cf4 <__addsf3x+0x96>
    1cf2:	b3 cf       	rjmp	.-154    	; 0x1c5a <__addsf3+0x1e>
    1cf4:	93 95       	inc	r25
    1cf6:	88 0f       	add	r24, r24
    1cf8:	08 f0       	brcs	.+2      	; 0x1cfc <__addsf3x+0x9e>
    1cfa:	99 27       	eor	r25, r25
    1cfc:	ee 0f       	add	r30, r30
    1cfe:	97 95       	ror	r25
    1d00:	87 95       	ror	r24
    1d02:	08 95       	ret

00001d04 <__cmpsf2>:
    1d04:	d4 d0       	rcall	.+424    	; 0x1eae <__fp_cmp>
    1d06:	08 f4       	brcc	.+2      	; 0x1d0a <__cmpsf2+0x6>
    1d08:	81 e0       	ldi	r24, 0x01	; 1
    1d0a:	08 95       	ret

00001d0c <__divsf3>:
    1d0c:	0c d0       	rcall	.+24     	; 0x1d26 <__divsf3x>
    1d0e:	0a c1       	rjmp	.+532    	; 0x1f24 <__fp_round>
    1d10:	02 d1       	rcall	.+516    	; 0x1f16 <__fp_pscB>
    1d12:	40 f0       	brcs	.+16     	; 0x1d24 <__divsf3+0x18>
    1d14:	f9 d0       	rcall	.+498    	; 0x1f08 <__fp_pscA>
    1d16:	30 f0       	brcs	.+12     	; 0x1d24 <__divsf3+0x18>
    1d18:	21 f4       	brne	.+8      	; 0x1d22 <__divsf3+0x16>
    1d1a:	5f 3f       	cpi	r21, 0xFF	; 255
    1d1c:	19 f0       	breq	.+6      	; 0x1d24 <__divsf3+0x18>
    1d1e:	eb c0       	rjmp	.+470    	; 0x1ef6 <__fp_inf>
    1d20:	51 11       	cpse	r21, r1
    1d22:	34 c1       	rjmp	.+616    	; 0x1f8c <__fp_szero>
    1d24:	ee c0       	rjmp	.+476    	; 0x1f02 <__fp_nan>

00001d26 <__divsf3x>:
    1d26:	0f d1       	rcall	.+542    	; 0x1f46 <__fp_split3>
    1d28:	98 f3       	brcs	.-26     	; 0x1d10 <__divsf3+0x4>

00001d2a <__divsf3_pse>:
    1d2a:	99 23       	and	r25, r25
    1d2c:	c9 f3       	breq	.-14     	; 0x1d20 <__divsf3+0x14>
    1d2e:	55 23       	and	r21, r21
    1d30:	b1 f3       	breq	.-20     	; 0x1d1e <__divsf3+0x12>
    1d32:	95 1b       	sub	r25, r21
    1d34:	55 0b       	sbc	r21, r21
    1d36:	bb 27       	eor	r27, r27
    1d38:	aa 27       	eor	r26, r26
    1d3a:	62 17       	cp	r22, r18
    1d3c:	73 07       	cpc	r23, r19
    1d3e:	84 07       	cpc	r24, r20
    1d40:	38 f0       	brcs	.+14     	; 0x1d50 <__divsf3_pse+0x26>
    1d42:	9f 5f       	subi	r25, 0xFF	; 255
    1d44:	5f 4f       	sbci	r21, 0xFF	; 255
    1d46:	22 0f       	add	r18, r18
    1d48:	33 1f       	adc	r19, r19
    1d4a:	44 1f       	adc	r20, r20
    1d4c:	aa 1f       	adc	r26, r26
    1d4e:	a9 f3       	breq	.-22     	; 0x1d3a <__divsf3_pse+0x10>
    1d50:	33 d0       	rcall	.+102    	; 0x1db8 <__divsf3_pse+0x8e>
    1d52:	0e 2e       	mov	r0, r30
    1d54:	3a f0       	brmi	.+14     	; 0x1d64 <__divsf3_pse+0x3a>
    1d56:	e0 e8       	ldi	r30, 0x80	; 128
    1d58:	30 d0       	rcall	.+96     	; 0x1dba <__divsf3_pse+0x90>
    1d5a:	91 50       	subi	r25, 0x01	; 1
    1d5c:	50 40       	sbci	r21, 0x00	; 0
    1d5e:	e6 95       	lsr	r30
    1d60:	00 1c       	adc	r0, r0
    1d62:	ca f7       	brpl	.-14     	; 0x1d56 <__divsf3_pse+0x2c>
    1d64:	29 d0       	rcall	.+82     	; 0x1db8 <__divsf3_pse+0x8e>
    1d66:	fe 2f       	mov	r31, r30
    1d68:	27 d0       	rcall	.+78     	; 0x1db8 <__divsf3_pse+0x8e>
    1d6a:	66 0f       	add	r22, r22
    1d6c:	77 1f       	adc	r23, r23
    1d6e:	88 1f       	adc	r24, r24
    1d70:	bb 1f       	adc	r27, r27
    1d72:	26 17       	cp	r18, r22
    1d74:	37 07       	cpc	r19, r23
    1d76:	48 07       	cpc	r20, r24
    1d78:	ab 07       	cpc	r26, r27
    1d7a:	b0 e8       	ldi	r27, 0x80	; 128
    1d7c:	09 f0       	breq	.+2      	; 0x1d80 <__divsf3_pse+0x56>
    1d7e:	bb 0b       	sbc	r27, r27
    1d80:	80 2d       	mov	r24, r0
    1d82:	bf 01       	movw	r22, r30
    1d84:	ff 27       	eor	r31, r31
    1d86:	93 58       	subi	r25, 0x83	; 131
    1d88:	5f 4f       	sbci	r21, 0xFF	; 255
    1d8a:	2a f0       	brmi	.+10     	; 0x1d96 <__divsf3_pse+0x6c>
    1d8c:	9e 3f       	cpi	r25, 0xFE	; 254
    1d8e:	51 05       	cpc	r21, r1
    1d90:	68 f0       	brcs	.+26     	; 0x1dac <__divsf3_pse+0x82>
    1d92:	b1 c0       	rjmp	.+354    	; 0x1ef6 <__fp_inf>
    1d94:	fb c0       	rjmp	.+502    	; 0x1f8c <__fp_szero>
    1d96:	5f 3f       	cpi	r21, 0xFF	; 255
    1d98:	ec f3       	brlt	.-6      	; 0x1d94 <__divsf3_pse+0x6a>
    1d9a:	98 3e       	cpi	r25, 0xE8	; 232
    1d9c:	dc f3       	brlt	.-10     	; 0x1d94 <__divsf3_pse+0x6a>
    1d9e:	86 95       	lsr	r24
    1da0:	77 95       	ror	r23
    1da2:	67 95       	ror	r22
    1da4:	b7 95       	ror	r27
    1da6:	f7 95       	ror	r31
    1da8:	9f 5f       	subi	r25, 0xFF	; 255
    1daa:	c9 f7       	brne	.-14     	; 0x1d9e <__divsf3_pse+0x74>
    1dac:	88 0f       	add	r24, r24
    1dae:	91 1d       	adc	r25, r1
    1db0:	96 95       	lsr	r25
    1db2:	87 95       	ror	r24
    1db4:	97 f9       	bld	r25, 7
    1db6:	08 95       	ret
    1db8:	e1 e0       	ldi	r30, 0x01	; 1
    1dba:	66 0f       	add	r22, r22
    1dbc:	77 1f       	adc	r23, r23
    1dbe:	88 1f       	adc	r24, r24
    1dc0:	bb 1f       	adc	r27, r27
    1dc2:	62 17       	cp	r22, r18
    1dc4:	73 07       	cpc	r23, r19
    1dc6:	84 07       	cpc	r24, r20
    1dc8:	ba 07       	cpc	r27, r26
    1dca:	20 f0       	brcs	.+8      	; 0x1dd4 <__divsf3_pse+0xaa>
    1dcc:	62 1b       	sub	r22, r18
    1dce:	73 0b       	sbc	r23, r19
    1dd0:	84 0b       	sbc	r24, r20
    1dd2:	ba 0b       	sbc	r27, r26
    1dd4:	ee 1f       	adc	r30, r30
    1dd6:	88 f7       	brcc	.-30     	; 0x1dba <__divsf3_pse+0x90>
    1dd8:	e0 95       	com	r30
    1dda:	08 95       	ret

00001ddc <__fixunssfsi>:
    1ddc:	bc d0       	rcall	.+376    	; 0x1f56 <__fp_splitA>
    1dde:	88 f0       	brcs	.+34     	; 0x1e02 <__fixunssfsi+0x26>
    1de0:	9f 57       	subi	r25, 0x7F	; 127
    1de2:	90 f0       	brcs	.+36     	; 0x1e08 <__fixunssfsi+0x2c>
    1de4:	b9 2f       	mov	r27, r25
    1de6:	99 27       	eor	r25, r25
    1de8:	b7 51       	subi	r27, 0x17	; 23
    1dea:	a0 f0       	brcs	.+40     	; 0x1e14 <__fixunssfsi+0x38>
    1dec:	d1 f0       	breq	.+52     	; 0x1e22 <__fixunssfsi+0x46>
    1dee:	66 0f       	add	r22, r22
    1df0:	77 1f       	adc	r23, r23
    1df2:	88 1f       	adc	r24, r24
    1df4:	99 1f       	adc	r25, r25
    1df6:	1a f0       	brmi	.+6      	; 0x1dfe <__fixunssfsi+0x22>
    1df8:	ba 95       	dec	r27
    1dfa:	c9 f7       	brne	.-14     	; 0x1dee <__fixunssfsi+0x12>
    1dfc:	12 c0       	rjmp	.+36     	; 0x1e22 <__fixunssfsi+0x46>
    1dfe:	b1 30       	cpi	r27, 0x01	; 1
    1e00:	81 f0       	breq	.+32     	; 0x1e22 <__fixunssfsi+0x46>
    1e02:	c3 d0       	rcall	.+390    	; 0x1f8a <__fp_zero>
    1e04:	b1 e0       	ldi	r27, 0x01	; 1
    1e06:	08 95       	ret
    1e08:	c0 c0       	rjmp	.+384    	; 0x1f8a <__fp_zero>
    1e0a:	67 2f       	mov	r22, r23
    1e0c:	78 2f       	mov	r23, r24
    1e0e:	88 27       	eor	r24, r24
    1e10:	b8 5f       	subi	r27, 0xF8	; 248
    1e12:	39 f0       	breq	.+14     	; 0x1e22 <__fixunssfsi+0x46>
    1e14:	b9 3f       	cpi	r27, 0xF9	; 249
    1e16:	cc f3       	brlt	.-14     	; 0x1e0a <__fixunssfsi+0x2e>
    1e18:	86 95       	lsr	r24
    1e1a:	77 95       	ror	r23
    1e1c:	67 95       	ror	r22
    1e1e:	b3 95       	inc	r27
    1e20:	d9 f7       	brne	.-10     	; 0x1e18 <__fixunssfsi+0x3c>
    1e22:	3e f4       	brtc	.+14     	; 0x1e32 <__fixunssfsi+0x56>
    1e24:	90 95       	com	r25
    1e26:	80 95       	com	r24
    1e28:	70 95       	com	r23
    1e2a:	61 95       	neg	r22
    1e2c:	7f 4f       	sbci	r23, 0xFF	; 255
    1e2e:	8f 4f       	sbci	r24, 0xFF	; 255
    1e30:	9f 4f       	sbci	r25, 0xFF	; 255
    1e32:	08 95       	ret

00001e34 <__floatunsisf>:
    1e34:	e8 94       	clt
    1e36:	09 c0       	rjmp	.+18     	; 0x1e4a <__floatsisf+0x12>

00001e38 <__floatsisf>:
    1e38:	97 fb       	bst	r25, 7
    1e3a:	3e f4       	brtc	.+14     	; 0x1e4a <__floatsisf+0x12>
    1e3c:	90 95       	com	r25
    1e3e:	80 95       	com	r24
    1e40:	70 95       	com	r23
    1e42:	61 95       	neg	r22
    1e44:	7f 4f       	sbci	r23, 0xFF	; 255
    1e46:	8f 4f       	sbci	r24, 0xFF	; 255
    1e48:	9f 4f       	sbci	r25, 0xFF	; 255
    1e4a:	99 23       	and	r25, r25
    1e4c:	a9 f0       	breq	.+42     	; 0x1e78 <__floatsisf+0x40>
    1e4e:	f9 2f       	mov	r31, r25
    1e50:	96 e9       	ldi	r25, 0x96	; 150
    1e52:	bb 27       	eor	r27, r27
    1e54:	93 95       	inc	r25
    1e56:	f6 95       	lsr	r31
    1e58:	87 95       	ror	r24
    1e5a:	77 95       	ror	r23
    1e5c:	67 95       	ror	r22
    1e5e:	b7 95       	ror	r27
    1e60:	f1 11       	cpse	r31, r1
    1e62:	f8 cf       	rjmp	.-16     	; 0x1e54 <__floatsisf+0x1c>
    1e64:	fa f4       	brpl	.+62     	; 0x1ea4 <__floatsisf+0x6c>
    1e66:	bb 0f       	add	r27, r27
    1e68:	11 f4       	brne	.+4      	; 0x1e6e <__floatsisf+0x36>
    1e6a:	60 ff       	sbrs	r22, 0
    1e6c:	1b c0       	rjmp	.+54     	; 0x1ea4 <__floatsisf+0x6c>
    1e6e:	6f 5f       	subi	r22, 0xFF	; 255
    1e70:	7f 4f       	sbci	r23, 0xFF	; 255
    1e72:	8f 4f       	sbci	r24, 0xFF	; 255
    1e74:	9f 4f       	sbci	r25, 0xFF	; 255
    1e76:	16 c0       	rjmp	.+44     	; 0x1ea4 <__floatsisf+0x6c>
    1e78:	88 23       	and	r24, r24
    1e7a:	11 f0       	breq	.+4      	; 0x1e80 <__floatsisf+0x48>
    1e7c:	96 e9       	ldi	r25, 0x96	; 150
    1e7e:	11 c0       	rjmp	.+34     	; 0x1ea2 <__floatsisf+0x6a>
    1e80:	77 23       	and	r23, r23
    1e82:	21 f0       	breq	.+8      	; 0x1e8c <__floatsisf+0x54>
    1e84:	9e e8       	ldi	r25, 0x8E	; 142
    1e86:	87 2f       	mov	r24, r23
    1e88:	76 2f       	mov	r23, r22
    1e8a:	05 c0       	rjmp	.+10     	; 0x1e96 <__floatsisf+0x5e>
    1e8c:	66 23       	and	r22, r22
    1e8e:	71 f0       	breq	.+28     	; 0x1eac <__floatsisf+0x74>
    1e90:	96 e8       	ldi	r25, 0x86	; 134
    1e92:	86 2f       	mov	r24, r22
    1e94:	70 e0       	ldi	r23, 0x00	; 0
    1e96:	60 e0       	ldi	r22, 0x00	; 0
    1e98:	2a f0       	brmi	.+10     	; 0x1ea4 <__floatsisf+0x6c>
    1e9a:	9a 95       	dec	r25
    1e9c:	66 0f       	add	r22, r22
    1e9e:	77 1f       	adc	r23, r23
    1ea0:	88 1f       	adc	r24, r24
    1ea2:	da f7       	brpl	.-10     	; 0x1e9a <__floatsisf+0x62>
    1ea4:	88 0f       	add	r24, r24
    1ea6:	96 95       	lsr	r25
    1ea8:	87 95       	ror	r24
    1eaa:	97 f9       	bld	r25, 7
    1eac:	08 95       	ret

00001eae <__fp_cmp>:
    1eae:	99 0f       	add	r25, r25
    1eb0:	00 08       	sbc	r0, r0
    1eb2:	55 0f       	add	r21, r21
    1eb4:	aa 0b       	sbc	r26, r26
    1eb6:	e0 e8       	ldi	r30, 0x80	; 128
    1eb8:	fe ef       	ldi	r31, 0xFE	; 254
    1eba:	16 16       	cp	r1, r22
    1ebc:	17 06       	cpc	r1, r23
    1ebe:	e8 07       	cpc	r30, r24
    1ec0:	f9 07       	cpc	r31, r25
    1ec2:	c0 f0       	brcs	.+48     	; 0x1ef4 <__fp_cmp+0x46>
    1ec4:	12 16       	cp	r1, r18
    1ec6:	13 06       	cpc	r1, r19
    1ec8:	e4 07       	cpc	r30, r20
    1eca:	f5 07       	cpc	r31, r21
    1ecc:	98 f0       	brcs	.+38     	; 0x1ef4 <__fp_cmp+0x46>
    1ece:	62 1b       	sub	r22, r18
    1ed0:	73 0b       	sbc	r23, r19
    1ed2:	84 0b       	sbc	r24, r20
    1ed4:	95 0b       	sbc	r25, r21
    1ed6:	39 f4       	brne	.+14     	; 0x1ee6 <__fp_cmp+0x38>
    1ed8:	0a 26       	eor	r0, r26
    1eda:	61 f0       	breq	.+24     	; 0x1ef4 <__fp_cmp+0x46>
    1edc:	23 2b       	or	r18, r19
    1ede:	24 2b       	or	r18, r20
    1ee0:	25 2b       	or	r18, r21
    1ee2:	21 f4       	brne	.+8      	; 0x1eec <__fp_cmp+0x3e>
    1ee4:	08 95       	ret
    1ee6:	0a 26       	eor	r0, r26
    1ee8:	09 f4       	brne	.+2      	; 0x1eec <__fp_cmp+0x3e>
    1eea:	a1 40       	sbci	r26, 0x01	; 1
    1eec:	a6 95       	lsr	r26
    1eee:	8f ef       	ldi	r24, 0xFF	; 255
    1ef0:	81 1d       	adc	r24, r1
    1ef2:	81 1d       	adc	r24, r1
    1ef4:	08 95       	ret

00001ef6 <__fp_inf>:
    1ef6:	97 f9       	bld	r25, 7
    1ef8:	9f 67       	ori	r25, 0x7F	; 127
    1efa:	80 e8       	ldi	r24, 0x80	; 128
    1efc:	70 e0       	ldi	r23, 0x00	; 0
    1efe:	60 e0       	ldi	r22, 0x00	; 0
    1f00:	08 95       	ret

00001f02 <__fp_nan>:
    1f02:	9f ef       	ldi	r25, 0xFF	; 255
    1f04:	80 ec       	ldi	r24, 0xC0	; 192
    1f06:	08 95       	ret

00001f08 <__fp_pscA>:
    1f08:	00 24       	eor	r0, r0
    1f0a:	0a 94       	dec	r0
    1f0c:	16 16       	cp	r1, r22
    1f0e:	17 06       	cpc	r1, r23
    1f10:	18 06       	cpc	r1, r24
    1f12:	09 06       	cpc	r0, r25
    1f14:	08 95       	ret

00001f16 <__fp_pscB>:
    1f16:	00 24       	eor	r0, r0
    1f18:	0a 94       	dec	r0
    1f1a:	12 16       	cp	r1, r18
    1f1c:	13 06       	cpc	r1, r19
    1f1e:	14 06       	cpc	r1, r20
    1f20:	05 06       	cpc	r0, r21
    1f22:	08 95       	ret

00001f24 <__fp_round>:
    1f24:	09 2e       	mov	r0, r25
    1f26:	03 94       	inc	r0
    1f28:	00 0c       	add	r0, r0
    1f2a:	11 f4       	brne	.+4      	; 0x1f30 <__fp_round+0xc>
    1f2c:	88 23       	and	r24, r24
    1f2e:	52 f0       	brmi	.+20     	; 0x1f44 <__fp_round+0x20>
    1f30:	bb 0f       	add	r27, r27
    1f32:	40 f4       	brcc	.+16     	; 0x1f44 <__fp_round+0x20>
    1f34:	bf 2b       	or	r27, r31
    1f36:	11 f4       	brne	.+4      	; 0x1f3c <__fp_round+0x18>
    1f38:	60 ff       	sbrs	r22, 0
    1f3a:	04 c0       	rjmp	.+8      	; 0x1f44 <__fp_round+0x20>
    1f3c:	6f 5f       	subi	r22, 0xFF	; 255
    1f3e:	7f 4f       	sbci	r23, 0xFF	; 255
    1f40:	8f 4f       	sbci	r24, 0xFF	; 255
    1f42:	9f 4f       	sbci	r25, 0xFF	; 255
    1f44:	08 95       	ret

00001f46 <__fp_split3>:
    1f46:	57 fd       	sbrc	r21, 7
    1f48:	90 58       	subi	r25, 0x80	; 128
    1f4a:	44 0f       	add	r20, r20
    1f4c:	55 1f       	adc	r21, r21
    1f4e:	59 f0       	breq	.+22     	; 0x1f66 <__fp_splitA+0x10>
    1f50:	5f 3f       	cpi	r21, 0xFF	; 255
    1f52:	71 f0       	breq	.+28     	; 0x1f70 <__fp_splitA+0x1a>
    1f54:	47 95       	ror	r20

00001f56 <__fp_splitA>:
    1f56:	88 0f       	add	r24, r24
    1f58:	97 fb       	bst	r25, 7
    1f5a:	99 1f       	adc	r25, r25
    1f5c:	61 f0       	breq	.+24     	; 0x1f76 <__fp_splitA+0x20>
    1f5e:	9f 3f       	cpi	r25, 0xFF	; 255
    1f60:	79 f0       	breq	.+30     	; 0x1f80 <__fp_splitA+0x2a>
    1f62:	87 95       	ror	r24
    1f64:	08 95       	ret
    1f66:	12 16       	cp	r1, r18
    1f68:	13 06       	cpc	r1, r19
    1f6a:	14 06       	cpc	r1, r20
    1f6c:	55 1f       	adc	r21, r21
    1f6e:	f2 cf       	rjmp	.-28     	; 0x1f54 <__fp_split3+0xe>
    1f70:	46 95       	lsr	r20
    1f72:	f1 df       	rcall	.-30     	; 0x1f56 <__fp_splitA>
    1f74:	08 c0       	rjmp	.+16     	; 0x1f86 <__fp_splitA+0x30>
    1f76:	16 16       	cp	r1, r22
    1f78:	17 06       	cpc	r1, r23
    1f7a:	18 06       	cpc	r1, r24
    1f7c:	99 1f       	adc	r25, r25
    1f7e:	f1 cf       	rjmp	.-30     	; 0x1f62 <__fp_splitA+0xc>
    1f80:	86 95       	lsr	r24
    1f82:	71 05       	cpc	r23, r1
    1f84:	61 05       	cpc	r22, r1
    1f86:	08 94       	sec
    1f88:	08 95       	ret

00001f8a <__fp_zero>:
    1f8a:	e8 94       	clt

00001f8c <__fp_szero>:
    1f8c:	bb 27       	eor	r27, r27
    1f8e:	66 27       	eor	r22, r22
    1f90:	77 27       	eor	r23, r23
    1f92:	cb 01       	movw	r24, r22
    1f94:	97 f9       	bld	r25, 7
    1f96:	08 95       	ret

00001f98 <__gesf2>:
    1f98:	8a df       	rcall	.-236    	; 0x1eae <__fp_cmp>
    1f9a:	08 f4       	brcc	.+2      	; 0x1f9e <__gesf2+0x6>
    1f9c:	8f ef       	ldi	r24, 0xFF	; 255
    1f9e:	08 95       	ret

00001fa0 <__mulsf3>:
    1fa0:	0b d0       	rcall	.+22     	; 0x1fb8 <__mulsf3x>
    1fa2:	c0 cf       	rjmp	.-128    	; 0x1f24 <__fp_round>
    1fa4:	b1 df       	rcall	.-158    	; 0x1f08 <__fp_pscA>
    1fa6:	28 f0       	brcs	.+10     	; 0x1fb2 <__mulsf3+0x12>
    1fa8:	b6 df       	rcall	.-148    	; 0x1f16 <__fp_pscB>
    1faa:	18 f0       	brcs	.+6      	; 0x1fb2 <__mulsf3+0x12>
    1fac:	95 23       	and	r25, r21
    1fae:	09 f0       	breq	.+2      	; 0x1fb2 <__mulsf3+0x12>
    1fb0:	a2 cf       	rjmp	.-188    	; 0x1ef6 <__fp_inf>
    1fb2:	a7 cf       	rjmp	.-178    	; 0x1f02 <__fp_nan>
    1fb4:	11 24       	eor	r1, r1
    1fb6:	ea cf       	rjmp	.-44     	; 0x1f8c <__fp_szero>

00001fb8 <__mulsf3x>:
    1fb8:	c6 df       	rcall	.-116    	; 0x1f46 <__fp_split3>
    1fba:	a0 f3       	brcs	.-24     	; 0x1fa4 <__mulsf3+0x4>

00001fbc <__mulsf3_pse>:
    1fbc:	95 9f       	mul	r25, r21
    1fbe:	d1 f3       	breq	.-12     	; 0x1fb4 <__mulsf3+0x14>
    1fc0:	95 0f       	add	r25, r21
    1fc2:	50 e0       	ldi	r21, 0x00	; 0
    1fc4:	55 1f       	adc	r21, r21
    1fc6:	62 9f       	mul	r22, r18
    1fc8:	f0 01       	movw	r30, r0
    1fca:	72 9f       	mul	r23, r18
    1fcc:	bb 27       	eor	r27, r27
    1fce:	f0 0d       	add	r31, r0
    1fd0:	b1 1d       	adc	r27, r1
    1fd2:	63 9f       	mul	r22, r19
    1fd4:	aa 27       	eor	r26, r26
    1fd6:	f0 0d       	add	r31, r0
    1fd8:	b1 1d       	adc	r27, r1
    1fda:	aa 1f       	adc	r26, r26
    1fdc:	64 9f       	mul	r22, r20
    1fde:	66 27       	eor	r22, r22
    1fe0:	b0 0d       	add	r27, r0
    1fe2:	a1 1d       	adc	r26, r1
    1fe4:	66 1f       	adc	r22, r22
    1fe6:	82 9f       	mul	r24, r18
    1fe8:	22 27       	eor	r18, r18
    1fea:	b0 0d       	add	r27, r0
    1fec:	a1 1d       	adc	r26, r1
    1fee:	62 1f       	adc	r22, r18
    1ff0:	73 9f       	mul	r23, r19
    1ff2:	b0 0d       	add	r27, r0
    1ff4:	a1 1d       	adc	r26, r1
    1ff6:	62 1f       	adc	r22, r18
    1ff8:	83 9f       	mul	r24, r19
    1ffa:	a0 0d       	add	r26, r0
    1ffc:	61 1d       	adc	r22, r1
    1ffe:	22 1f       	adc	r18, r18
    2000:	74 9f       	mul	r23, r20
    2002:	33 27       	eor	r19, r19
    2004:	a0 0d       	add	r26, r0
    2006:	61 1d       	adc	r22, r1
    2008:	23 1f       	adc	r18, r19
    200a:	84 9f       	mul	r24, r20
    200c:	60 0d       	add	r22, r0
    200e:	21 1d       	adc	r18, r1
    2010:	82 2f       	mov	r24, r18
    2012:	76 2f       	mov	r23, r22
    2014:	6a 2f       	mov	r22, r26
    2016:	11 24       	eor	r1, r1
    2018:	9f 57       	subi	r25, 0x7F	; 127
    201a:	50 40       	sbci	r21, 0x00	; 0
    201c:	8a f0       	brmi	.+34     	; 0x2040 <__mulsf3_pse+0x84>
    201e:	e1 f0       	breq	.+56     	; 0x2058 <__mulsf3_pse+0x9c>
    2020:	88 23       	and	r24, r24
    2022:	4a f0       	brmi	.+18     	; 0x2036 <__mulsf3_pse+0x7a>
    2024:	ee 0f       	add	r30, r30
    2026:	ff 1f       	adc	r31, r31
    2028:	bb 1f       	adc	r27, r27
    202a:	66 1f       	adc	r22, r22
    202c:	77 1f       	adc	r23, r23
    202e:	88 1f       	adc	r24, r24
    2030:	91 50       	subi	r25, 0x01	; 1
    2032:	50 40       	sbci	r21, 0x00	; 0
    2034:	a9 f7       	brne	.-22     	; 0x2020 <__mulsf3_pse+0x64>
    2036:	9e 3f       	cpi	r25, 0xFE	; 254
    2038:	51 05       	cpc	r21, r1
    203a:	70 f0       	brcs	.+28     	; 0x2058 <__mulsf3_pse+0x9c>
    203c:	5c cf       	rjmp	.-328    	; 0x1ef6 <__fp_inf>
    203e:	a6 cf       	rjmp	.-180    	; 0x1f8c <__fp_szero>
    2040:	5f 3f       	cpi	r21, 0xFF	; 255
    2042:	ec f3       	brlt	.-6      	; 0x203e <__mulsf3_pse+0x82>
    2044:	98 3e       	cpi	r25, 0xE8	; 232
    2046:	dc f3       	brlt	.-10     	; 0x203e <__mulsf3_pse+0x82>
    2048:	86 95       	lsr	r24
    204a:	77 95       	ror	r23
    204c:	67 95       	ror	r22
    204e:	b7 95       	ror	r27
    2050:	f7 95       	ror	r31
    2052:	e7 95       	ror	r30
    2054:	9f 5f       	subi	r25, 0xFF	; 255
    2056:	c1 f7       	brne	.-16     	; 0x2048 <__mulsf3_pse+0x8c>
    2058:	fe 2b       	or	r31, r30
    205a:	88 0f       	add	r24, r24
    205c:	91 1d       	adc	r25, r1
    205e:	96 95       	lsr	r25
    2060:	87 95       	ror	r24
    2062:	97 f9       	bld	r25, 7
    2064:	08 95       	ret

00002066 <__udivmodsi4>:
    2066:	a1 e2       	ldi	r26, 0x21	; 33
    2068:	1a 2e       	mov	r1, r26
    206a:	aa 1b       	sub	r26, r26
    206c:	bb 1b       	sub	r27, r27
    206e:	fd 01       	movw	r30, r26
    2070:	0d c0       	rjmp	.+26     	; 0x208c <__udivmodsi4_ep>

00002072 <__udivmodsi4_loop>:
    2072:	aa 1f       	adc	r26, r26
    2074:	bb 1f       	adc	r27, r27
    2076:	ee 1f       	adc	r30, r30
    2078:	ff 1f       	adc	r31, r31
    207a:	a2 17       	cp	r26, r18
    207c:	b3 07       	cpc	r27, r19
    207e:	e4 07       	cpc	r30, r20
    2080:	f5 07       	cpc	r31, r21
    2082:	20 f0       	brcs	.+8      	; 0x208c <__udivmodsi4_ep>
    2084:	a2 1b       	sub	r26, r18
    2086:	b3 0b       	sbc	r27, r19
    2088:	e4 0b       	sbc	r30, r20
    208a:	f5 0b       	sbc	r31, r21

0000208c <__udivmodsi4_ep>:
    208c:	66 1f       	adc	r22, r22
    208e:	77 1f       	adc	r23, r23
    2090:	88 1f       	adc	r24, r24
    2092:	99 1f       	adc	r25, r25
    2094:	1a 94       	dec	r1
    2096:	69 f7       	brne	.-38     	; 0x2072 <__udivmodsi4_loop>
    2098:	60 95       	com	r22
    209a:	70 95       	com	r23
    209c:	80 95       	com	r24
    209e:	90 95       	com	r25
    20a0:	9b 01       	movw	r18, r22
    20a2:	ac 01       	movw	r20, r24
    20a4:	bd 01       	movw	r22, r26
    20a6:	cf 01       	movw	r24, r30
    20a8:	08 95       	ret

000020aa <__tablejump2__>:
    20aa:	ee 0f       	add	r30, r30
    20ac:	ff 1f       	adc	r31, r31
    20ae:	88 1f       	adc	r24, r24
    20b0:	8b bf       	out	0x3b, r24	; 59
    20b2:	07 90       	elpm	r0, Z+
    20b4:	f6 91       	elpm	r31, Z
    20b6:	e0 2d       	mov	r30, r0
    20b8:	19 94       	eijmp

000020ba <__umulhisi3>:
    20ba:	a2 9f       	mul	r26, r18
    20bc:	b0 01       	movw	r22, r0
    20be:	b3 9f       	mul	r27, r19
    20c0:	c0 01       	movw	r24, r0
    20c2:	a3 9f       	mul	r26, r19
    20c4:	70 0d       	add	r23, r0
    20c6:	81 1d       	adc	r24, r1
    20c8:	11 24       	eor	r1, r1
    20ca:	91 1d       	adc	r25, r1
    20cc:	b2 9f       	mul	r27, r18
    20ce:	70 0d       	add	r23, r0
    20d0:	81 1d       	adc	r24, r1
    20d2:	11 24       	eor	r1, r1
    20d4:	91 1d       	adc	r25, r1
    20d6:	08 95       	ret

000020d8 <_exit>:
    20d8:	f8 94       	cli

000020da <__stop_program>:
    20da:	ff cf       	rjmp	.-2      	; 0x20da <__stop_program>
